

HI-TECH Software PIC LITE Macro Assembler V9.83 build 10920 
                                                                                               Thu Aug 28 08:30:51 2014

HI-TECH Software Omniscient Code Generator (Lite mode) build 10920
     1  0000                     opt subtitle "HI-TECH Software Omniscient Code Generator (Lite mode) build 10920"
     2                           
     3                           opt pagewidth 120
     4                           
     5                           	opt lm
     6                           
     7                           	processor	16F723A
     8                           clrc	macro
     9                           	bcf	3,0
    10  0000                     	endm
    11                           clrz	macro
    12                           	bcf	3,2
    13  0000                     	endm
    14                           setc	macro
    15                           	bsf	3,0
    16  0000                     	endm
    17                           setz	macro
    18                           	bsf	3,2
    19  0000                     	endm
    20                           skipc	macro
    21                           	btfss	3,0
    22  0000                     	endm
    23                           skipz	macro
    24                           	btfss	3,2
    25  0000                     	endm
    26                           skipnc	macro
    27                           	btfsc	3,0
    28  0000                     	endm
    29                           skipnz	macro
    30                           	btfsc	3,2
    31  0000                     	endm
    32  0000                     indf	equ	0
    33  0000                     indf0	equ	0
    34  0002                     pc	equ	2
    35  0002                     pcl	equ	2
    36  0003                     status	equ	3
    37  0004                     fsr	equ	4
    38  0004                     fsr0	equ	4
    39  0001                     c	equ	1
    40  0000                     z	equ	0
    41  000A                     pclath	equ	10
    42                           # 7 "G:\Program\PIC\Source_File\MCU_16f723a_B1.c"
    43                           	psect config,class=CONFIG,delta=2 ;#
    44                           # 7 "G:\Program\PIC\Source_File\MCU_16f723a_B1.c"
    45  2007  FCF4               	dw 0xFFFC & 0xFFF7 & 0xFCFF & 0xFFFF ;#
    46                           # 8 "G:\Program\PIC\Source_File\MCU_16f723a_B1.c"
    47                           	psect config,class=CONFIG,delta=2 ;#
    48                           # 8 "G:\Program\PIC\Source_File\MCU_16f723a_B1.c"
    49  2008  FFFF               	dw 0xFFFF ;#
    50                           	FNCALL	_main,_MainT_Initialization
    51                           	FNCALL	_main,_Mcu_Initialization
    52                           	FNCALL	_main,_LED_Initialization
    53                           	FNCALL	_main,_SYSC_Initialization
    54                           	FNCALL	_main,_Lights_Initialization
    55                           	FNCALL	_main,_CDS_Initialization
    56                           	FNCALL	_main,_PIR_Initialization
    57                           	FNCALL	_main,_getCDS_AD
    58                           	FNCALL	_main,_getPIR_AD
    59                           	FNCALL	_main,_MainT
    60                           	FNCALL	_main,_LED_Main
    61                           	FNCALL	_main,_SYSC_Main
    62                           	FNCALL	_main,_Lights_Main
    63                           	FNCALL	_main,_CDS_Main
    64                           	FNCALL	_main,_PIR_Main
    65                           	FNCALL	_CDS_Main,_setCDS_Main
    66                           	FNCALL	_Lights_Main,_setLights_Main
    67                           	FNCALL	_Lights_Main,_Lights_Control
    68                           	FNCALL	_CDS_Initialization,_setCDS_Initialization
    69                           	FNCALL	_LED_Initialization,_setLED_Initialization
    70                           	FNCALL	_setCDS_Main,_setCDSPoint
    71                           	FNCALL	_setCDS_Main,_setLights_Trigger
    72                           	FNCALL	_setCDS_Main,_setLights_Switch
    73                           	FNCALL	_setCDS_Initialization,_setCDSPoint
    74                           	FNCALL	_setCDS_Initialization,_setLED
    75                           	FNCALL	_setLights_Main,_LightsPointSelect
    76                           	FNCALL	_setLights_Main,_setLights
    77                           	FNCALL	_Lights_Initialization,_setLights_Initialization
    78                           	FNCALL	_LED_Main,_setLED_Main
    79                           	FNCALL	_setLED_Initialization,_LedPointSelect
    80                           	FNCALL	_setLED_Initialization,_setLED
    81                           	FNCALL	_setLights_Switch,_LightsPointSelect
    82                           	FNCALL	_setLights_Trigger,_LightsPointSelect
    83                           	FNCALL	_setLights,_LightsPointSelect
    84                           	FNCALL	_Lights_Control,_LightsPointSelect
    85                           	FNCALL	_setLights_Initialization,_LightsPointSelect
    86                           	FNCALL	_getCDS_AD,_setCDSPoint
    87                           	FNCALL	_getCDS_AD,_getAD
    88                           	FNCALL	_Mcu_Initialization,_IO_Set
    89                           	FNCALL	_Mcu_Initialization,_TMR0_Set
    90                           	FNCALL	_Mcu_Initialization,_ADC_Set
    91                           	FNCALL	_setLED,_LedPointSelect
    92                           	FNCALL	_setLED_Main,_LedPointSelect
    93                           	FNROOT	_main
    94                           	FNCALL	_ISR,_TMR0_ISR
    95                           	FNCALL	intlevel1,_ISR
    96                           	global	intlevel1
    97                           	FNROOT	intlevel1
    98                           	global	_CDS
    99                           	global	_LED
   100                           	global	_Lights
   101                           	global	_SYSC
   102                           	global	_TMain
   103                           	global	_PIR
   104                           	global	_Timer0
   105                           	global	__PIR1
   106                           	global	_VarTMain
   107                           	global	_Lights1
   108                           	global	_VarTimer0
   109                           	global	__CDS1
   110                           	global	_VarErrLED
   111                           	global	_VarLED1
   112                           	global	_VarLED2
   113                           	global	_ADCON0
   114                           psect	text1085,local,class=CODE,delta=2
   115                           global __ptext1085
   116  0000                     __ptext1085:
   117  001F                     _ADCON0	set	31
   118                           	global	_ADRES
   119  001E                     _ADRES	set	30
   120                           	global	_PORTA
   121  0005                     _PORTA	set	5
   122                           	global	_PORTB
   123  0006                     _PORTB	set	6
   124                           	global	_PORTC
   125  0007                     _PORTC	set	7
   126                           	global	_TMR0
   127  0001                     _TMR0	set	1
   128                           	global	_GIE
   129  005F                     _GIE	set	95
   130                           	global	_GO_nDONE
   131  00F9                     _GO_nDONE	set	249
   132                           	global	_RA4
   133  002C                     _RA4	set	44
   134                           	global	_RA5
   135  002D                     _RA5	set	45
   136                           	global	_RB2
   137  0032                     _RB2	set	50
   138                           	global	_RB3
   139  0033                     _RB3	set	51
   140                           	global	_RB4
   141  0034                     _RB4	set	52
   142                           	global	_RB5
   143  0035                     _RB5	set	53
   144                           	global	_TMR0IE
   145  005D                     _TMR0IE	set	93
   146                           	global	_TMR0IF
   147  005A                     _TMR0IF	set	90
   148                           	global	_ADCON1
   149  009F                     _ADCON1	set	159
   150                           	global	_FVRCON
   151  009D                     _FVRCON	set	157
   152                           	global	_OPTION_REG
   153  0081                     _OPTION_REG	set	129
   154                           	global	_OSCCON
   155  0090                     _OSCCON	set	144
   156                           	global	_TRISA
   157  0085                     _TRISA	set	133
   158                           	global	_TRISB
   159  0086                     _TRISB	set	134
   160                           	global	_TRISC
   161  0087                     _TRISC	set	135
   162                           	global	_ANSELA
   163  0185                     _ANSELA	set	389
   164                           	global	_ANSELB
   165  0186                     _ANSELB	set	390
   166                           	file	"PIR_Ceiling_Embed_V1.1.1.as"
   167                           	line	#
   168                           psect cinit,class=CODE,delta=2
   169                           global start_initialization
   170  046B                     start_initialization:
   171                           
   172                           psect	bssCOMMON,class=COMMON,space=1
   173                           global __pbssCOMMON
   174  0076                     __pbssCOMMON:
   175  0076                     _PIR:
   176  0076                            ds      1
   177                           
   178  0077                     _Timer0:
   179  0077                            ds      1
   180                           
   181                           psect	bssBANK0,class=BANK0,space=1
   182                           global __pbssBANK0
   183  0020                     __pbssBANK0:
   184  0020                     _CDS:
   185  0020                            ds      1
   186                           
   187  0021                     _LED:
   188  0021                            ds      1
   189                           
   190  0022                     _Lights:
   191  0022                            ds      1
   192                           
   193  0023                     _SYSC:
   194  0023                            ds      1
   195                           
   196  0024                     _TMain:
   197  0024                            ds      1
   198                           
   199  0025                     _VarTMain:
   200  0025                            ds      16
   201                           
   202  0035                     _Lights1:
   203  0035                            ds      9
   204                           
   205  003E                     _VarTimer0:
   206  003E                            ds      7
   207                           
   208  0045                     __CDS1:
   209  0045                            ds      5
   210                           
   211  004A                     _VarErrLED:
   212  004A                            ds      4
   213                           
   214  004E                     _VarLED1:
   215  004E                            ds      4
   216                           
   217  0052                     _VarLED2:
   218  0052                            ds      4
   219                           
   220                           psect	bssBANK1,class=BANK1,space=1
   221                           global __pbssBANK1
   222  00A0                     __pbssBANK1:
   223  00A0                     __PIR1:
   224  00A0                            ds      47
   225                           
   226                           psect clrtext,class=CODE,delta=2
   227                           global clear_ram
   228                           ;	Called with FSR containing the base address, and
   229                           ;	W with the last address+1
   230  051F                     clear_ram:
   231  051F  0064               	clrwdt			;clear the watchdog before getting into this loop
   232  0520                     clrloop:
   233  0520  0180               	clrf	indf		;clear RAM location pointed to by FSR
   234  0521  0A84               	incf	fsr,f		;increment pointer
   235  0522  0604               	xorwf	fsr,w		;XOR with final address
   236  0523  1903               	btfsc	status,2	;have we reached the end yet?
   237  0524  3400               	retlw	0		;all done for this memory range, return
   238  0525  0604               	xorwf	fsr,w		;XOR again to restore value
   239  0526  2D20               	goto	clrloop		;do the next byte
   240                           
   241                           ; Clear objects allocated to COMMON
   242                           psect cinit,class=CODE,delta=2
   243  046B  01F6               	clrf	((__pbssCOMMON)+0)&07Fh
   244  046C  01F7               	clrf	((__pbssCOMMON)+1)&07Fh
   245                           ; Clear objects allocated to BANK0
   246                           psect cinit,class=CODE,delta=2
   247  046D  1383               	bcf	status, 7	;select IRP bank0
   248  046E  3020               	movlw	low(__pbssBANK0)
   249  046F  0084               	movwf	fsr
   250  0470  3056               	movlw	low((__pbssBANK0)+036h)
   251  0471  118A  251F  118A   	fcall	clear_ram
   252                           ; Clear objects allocated to BANK1
   253                           psect cinit,class=CODE,delta=2
   254  0474  30A0               	movlw	low(__pbssBANK1)
   255  0475  0084               	movwf	fsr
   256  0476  30CF               	movlw	low((__pbssBANK1)+02Fh)
   257  0477  118A  251F  118A   	fcall	clear_ram
   258                           psect cinit,class=CODE,delta=2
   259                           global end_of_initialization
   260                           
   261                           ;End of C runtime variable initialization code
   262                           
   263  047A                     end_of_initialization:
   264  047A  0183               clrf status
   265  047B  118A  299F         ljmp _main	;jump to C main() function
   266                           psect	cstackCOMMON,class=COMMON,space=1
   267                           global __pcstackCOMMON
   268  0070                     __pcstackCOMMON:
   269                           	global	?_setLED_Initialization
   270  0070                     ?_setLED_Initialization:	; 0 bytes @ 0x0
   271                           	global	?_setLED_Main
   272  0070                     ?_setLED_Main:	; 0 bytes @ 0x0
   273                           	global	?_MainT_Initialization
   274  0070                     ?_MainT_Initialization:	; 0 bytes @ 0x0
   275                           	global	?_Mcu_Initialization
   276  0070                     ?_Mcu_Initialization:	; 0 bytes @ 0x0
   277                           	global	?_SYSC_Initialization
   278  0070                     ?_SYSC_Initialization:	; 0 bytes @ 0x0
   279                           	global	?_Lights_Initialization
   280  0070                     ?_Lights_Initialization:	; 0 bytes @ 0x0
   281                           	global	?_CDS_Initialization
   282  0070                     ?_CDS_Initialization:	; 0 bytes @ 0x0
   283                           	global	?_PIR_Initialization
   284  0070                     ?_PIR_Initialization:	; 0 bytes @ 0x0
   285                           	global	?_MainT
   286  0070                     ?_MainT:	; 0 bytes @ 0x0
   287                           	global	?_SYSC_Main
   288  0070                     ?_SYSC_Main:	; 0 bytes @ 0x0
   289                           	global	?_Lights_Main
   290  0070                     ?_Lights_Main:	; 0 bytes @ 0x0
   291                           	global	?_CDS_Main
   292  0070                     ?_CDS_Main:	; 0 bytes @ 0x0
   293                           	global	?_PIR_Main
   294  0070                     ?_PIR_Main:	; 0 bytes @ 0x0
   295                           	global	?_IO_Set
   296  0070                     ?_IO_Set:	; 0 bytes @ 0x0
   297                           	global	?_TMR0_Set
   298  0070                     ?_TMR0_Set:	; 0 bytes @ 0x0
   299                           	global	?_ADC_Set
   300  0070                     ?_ADC_Set:	; 0 bytes @ 0x0
   301                           	global	?_TMR0_ISR
   302  0070                     ?_TMR0_ISR:	; 0 bytes @ 0x0
   303                           	global	??_TMR0_ISR
   304  0070                     ??_TMR0_ISR:	; 0 bytes @ 0x0
   305                           	global	?_setLights_Initialization
   306  0070                     ?_setLights_Initialization:	; 0 bytes @ 0x0
   307                           	global	?_setLights_Main
   308  0070                     ?_setLights_Main:	; 0 bytes @ 0x0
   309                           	global	?_Lights_Control
   310  0070                     ?_Lights_Control:	; 0 bytes @ 0x0
   311                           	global	?_setCDS_Initialization
   312  0070                     ?_setCDS_Initialization:	; 0 bytes @ 0x0
   313                           	global	?_setCDS_Main
   314  0070                     ?_setCDS_Main:	; 0 bytes @ 0x0
   315                           	global	?_LedPointSelect
   316  0070                     ?_LedPointSelect:	; 0 bytes @ 0x0
   317                           	global	?_LED_Initialization
   318  0070                     ?_LED_Initialization:	; 0 bytes @ 0x0
   319                           	global	?_LED_Main
   320  0070                     ?_LED_Main:	; 0 bytes @ 0x0
   321                           	global	?_main
   322  0070                     ?_main:	; 0 bytes @ 0x0
   323                           	global	?_ISR
   324  0070                     ?_ISR:	; 0 bytes @ 0x0
   325                           	global	?_LightsPointSelect
   326  0070                     ?_LightsPointSelect:	; 0 bytes @ 0x0
   327                           	global	?_setCDSPoint
   328  0070                     ?_setCDSPoint:	; 0 bytes @ 0x0
   329  0070                     	ds	2
   330                           	global	??_ISR
   331  0072                     ??_ISR:	; 0 bytes @ 0x2
   332  0072                     	ds	4
   333                           	global	??_setLED_Initialization
   334  0076                     ??_setLED_Initialization:	; 0 bytes @ 0x6
   335                           	global	??_setLED
   336  0076                     ??_setLED:	; 0 bytes @ 0x6
   337                           	global	??_Mcu_Initialization
   338  0076                     ??_Mcu_Initialization:	; 0 bytes @ 0x6
   339                           	global	??_SYSC_Initialization
   340  0076                     ??_SYSC_Initialization:	; 0 bytes @ 0x6
   341                           	global	??_Lights_Initialization
   342  0076                     ??_Lights_Initialization:	; 0 bytes @ 0x6
   343                           	global	??_CDS_Initialization
   344  0076                     ??_CDS_Initialization:	; 0 bytes @ 0x6
   345                           	global	??_PIR_Initialization
   346  0076                     ??_PIR_Initialization:	; 0 bytes @ 0x6
   347                           	global	??_getPIR_AD
   348  0076                     ??_getPIR_AD:	; 0 bytes @ 0x6
   349                           	global	??_SYSC_Main
   350  0076                     ??_SYSC_Main:	; 0 bytes @ 0x6
   351                           	global	??_Lights_Main
   352  0076                     ??_Lights_Main:	; 0 bytes @ 0x6
   353                           	global	??_CDS_Main
   354  0076                     ??_CDS_Main:	; 0 bytes @ 0x6
   355                           	global	??_PIR_Main
   356  0076                     ??_PIR_Main:	; 0 bytes @ 0x6
   357                           	global	??_IO_Set
   358  0076                     ??_IO_Set:	; 0 bytes @ 0x6
   359                           	global	??_ADC_Set
   360  0076                     ??_ADC_Set:	; 0 bytes @ 0x6
   361                           	global	??_setLights_Initialization
   362  0076                     ??_setLights_Initialization:	; 0 bytes @ 0x6
   363                           	global	??_setLights_Main
   364  0076                     ??_setLights_Main:	; 0 bytes @ 0x6
   365                           	global	??_setCDS_Initialization
   366  0076                     ??_setCDS_Initialization:	; 0 bytes @ 0x6
   367                           	global	??_LED_Initialization
   368  0076                     ??_LED_Initialization:	; 0 bytes @ 0x6
   369                           	global	??_LED_Main
   370  0076                     ??_LED_Main:	; 0 bytes @ 0x6
   371                           	global	??_getAD
   372  0076                     ??_getAD:	; 0 bytes @ 0x6
   373                           	global	??_setLights_Trigger
   374  0076                     ??_setLights_Trigger:	; 0 bytes @ 0x6
   375                           	global	??_setLights_Switch
   376  0076                     ??_setLights_Switch:	; 0 bytes @ 0x6
   377                           psect	cstackBANK0,class=BANK0,space=1
   378                           global __pcstackBANK0
   379  0056                     __pcstackBANK0:
   380                           	global	??_MainT_Initialization
   381  0056                     ??_MainT_Initialization:	; 0 bytes @ 0x0
   382                           	global	?_getPIR_AD
   383  0056                     ?_getPIR_AD:	; 0 bytes @ 0x0
   384                           	global	??_MainT
   385  0056                     ??_MainT:	; 0 bytes @ 0x0
   386                           	global	??_TMR0_Set
   387  0056                     ??_TMR0_Set:	; 0 bytes @ 0x0
   388                           	global	??_LedPointSelect
   389  0056                     ??_LedPointSelect:	; 0 bytes @ 0x0
   390                           	global	??_LightsPointSelect
   391  0056                     ??_LightsPointSelect:	; 0 bytes @ 0x0
   392                           	global	??_setCDSPoint
   393  0056                     ??_setCDSPoint:	; 0 bytes @ 0x0
   394                           	global	?_getAD
   395  0056                     ?_getAD:	; 1 bytes @ 0x0
   396                           	global	getAD@adcon1
   397  0056                     getAD@adcon1:	; 1 bytes @ 0x0
   398                           	global	getPIR_AD@channel1
   399  0056                     getPIR_AD@channel1:	; 1 bytes @ 0x0
   400  0056                     	ds	1
   401                           	global	LedPointSelect@led
   402  0057                     LedPointSelect@led:	; 1 bytes @ 0x1
   403                           	global	getAD@adcon0
   404  0057                     getAD@adcon0:	; 1 bytes @ 0x1
   405                           	global	LightsPointSelect@lights
   406  0057                     LightsPointSelect@lights:	; 1 bytes @ 0x1
   407                           	global	setCDSPoint@cds
   408  0057                     setCDSPoint@cds:	; 1 bytes @ 0x1
   409                           	global	getPIR_AD@charchannel2
   410  0057                     getPIR_AD@charchannel2:	; 1 bytes @ 0x1
   411  0057                     	ds	1
   412                           	global	??_setLED_Main
   413  0058                     ??_setLED_Main:	; 0 bytes @ 0x2
   414                           	global	?_setLED
   415  0058                     ?_setLED:	; 0 bytes @ 0x2
   416                           	global	?_getCDS_AD
   417  0058                     ?_getCDS_AD:	; 0 bytes @ 0x2
   418                           	global	??_Lights_Control
   419  0058                     ??_Lights_Control:	; 0 bytes @ 0x2
   420                           	global	?_setLights
   421  0058                     ?_setLights:	; 0 bytes @ 0x2
   422                           	global	?_setLights_Trigger
   423  0058                     ?_setLights_Trigger:	; 0 bytes @ 0x2
   424                           	global	?_setLights_Switch
   425  0058                     ?_setLights_Switch:	; 0 bytes @ 0x2
   426                           	global	setLED@command
   427  0058                     setLED@command:	; 1 bytes @ 0x2
   428                           	global	setLights_Initialization@lights
   429  0058                     setLights_Initialization@lights:	; 1 bytes @ 0x2
   430                           	global	setLights_Trigger@command
   431  0058                     setLights_Trigger@command:	; 1 bytes @ 0x2
   432                           	global	setLights_Switch@command
   433  0058                     setLights_Switch@command:	; 1 bytes @ 0x2
   434                           	global	setLights@command
   435  0058                     setLights@command:	; 1 bytes @ 0x2
   436                           	global	getCDS_AD@channel1
   437  0058                     getCDS_AD@channel1:	; 1 bytes @ 0x2
   438  0058                     	ds	1
   439                           	global	??_setLights
   440  0059                     ??_setLights:	; 0 bytes @ 0x3
   441                           	global	setLED@led
   442  0059                     setLED@led:	; 1 bytes @ 0x3
   443                           	global	setLights_Trigger@lights
   444  0059                     setLights_Trigger@lights:	; 1 bytes @ 0x3
   445                           	global	setLights_Switch@lights
   446  0059                     setLights_Switch@lights:	; 1 bytes @ 0x3
   447                           	global	getCDS_AD@channel2
   448  0059                     getCDS_AD@channel2:	; 1 bytes @ 0x3
   449  0059                     	ds	1
   450                           	global	??_getCDS_AD
   451  005A                     ??_getCDS_AD:	; 0 bytes @ 0x4
   452                           	global	??_setCDS_Main
   453  005A                     ??_setCDS_Main:	; 0 bytes @ 0x4
   454                           	global	setLED_Initialization@led
   455  005A                     setLED_Initialization@led:	; 1 bytes @ 0x4
   456                           	global	setLED_Main@led
   457  005A                     setLED_Main@led:	; 1 bytes @ 0x4
   458                           	global	setLights@lights
   459  005A                     setLights@lights:	; 1 bytes @ 0x4
   460                           	global	Lights_Control@lights
   461  005A                     Lights_Control@lights:	; 1 bytes @ 0x4
   462                           	global	setCDS_Initialization@cds
   463  005A                     setCDS_Initialization@cds:	; 1 bytes @ 0x4
   464  005A                     	ds	1
   465                           	global	setLights_Main@open
   466  005B                     setLights_Main@open:	; 1 bytes @ 0x5
   467  005B                     	ds	1
   468                           	global	setLights_Main@close
   469  005C                     setLights_Main@close:	; 1 bytes @ 0x6
   470                           	global	getCDS_AD@i
   471  005C                     getCDS_AD@i:	; 1 bytes @ 0x6
   472  005C                     	ds	1
   473                           	global	setLights_Main@lights
   474  005D                     setLights_Main@lights:	; 1 bytes @ 0x7
   475                           	global	setCDS_Main@cds
   476  005D                     setCDS_Main@cds:	; 1 bytes @ 0x7
   477                           	global	getCDS_AD@j
   478  005D                     getCDS_AD@j:	; 1 bytes @ 0x7
   479  005D                     	ds	1
   480                           	global	getCDS_AD@cds
   481  005E                     getCDS_AD@cds:	; 1 bytes @ 0x8
   482  005E                     	ds	1
   483                           	global	??_main
   484  005F                     ??_main:	; 0 bytes @ 0x9
   485  005F                     	ds	2
   486 ;;Data sizes: Strings 0, constant 0, data 0, bss 103, persistent 0 stack 0
   487 ;;Auto spaces:   Size  Autos    Used
   488 ;; COMMON          14      6       8
   489 ;; BANK0           80     11      65
   490 ;; BANK1           80      0      47
   491 ;; BANK2           16      0       0
   492                           
   493 ;;
   494 ;; Pointer list with targets:
   495                           
   496 ;; PIR	PTR struct PIR size(1) Largest target is 0
   497 ;;		 -> NULL(NULL[0]), 
   498 ;;
   499 ;; SYSC	PTR struct SYSC size(1) Largest target is 0
   500 ;;		 -> NULL(NULL[0]), 
   501 ;;
   502 ;; CDS	PTR struct CDS size(1) Largest target is 5
   503 ;;		 -> NULL(NULL[0]), _CDS1(BANK0[5]), 
   504 ;;
   505 ;; Lights	PTR struct Lights size(1) Largest target is 9
   506 ;;		 -> NULL(NULL[0]), Lights1(BANK0[9]), 
   507 ;;
   508 ;; Timer0	PTR struct Timer0 size(1) Largest target is 7
   509 ;;		 -> NULL(NULL[0]), VarTimer0(BANK0[7]), 
   510 ;;
   511 ;; TMain	PTR struct TMain size(1) Largest target is 16
   512 ;;		 -> NULL(NULL[0]), VarTMain(BANK0[16]), 
   513 ;;
   514 ;; LED	PTR struct LED size(1) Largest target is 4
   515 ;;		 -> NULL(NULL[0]), VarErrLED(BANK0[4]), VarLED2(BANK0[4]), VarLED1(BANK0[4]), 
   516 ;;
   517                           
   518                           
   519 ;;
   520 ;; Critical Paths under _main in COMMON
   521 ;;
   522 ;;   None.
   523 ;;
   524 ;; Critical Paths under _ISR in COMMON
   525 ;;
   526 ;;   _ISR->_TMR0_ISR
   527 ;;
   528 ;; Critical Paths under _main in BANK0
   529 ;;
   530 ;;   _main->_getCDS_AD
   531 ;;   _CDS_Main->_setCDS_Main
   532 ;;   _Lights_Main->_setLights_Main
   533 ;;   _CDS_Initialization->_setCDS_Initialization
   534 ;;   _LED_Initialization->_setLED_Initialization
   535 ;;   _setCDS_Main->_setLights_Trigger
   536 ;;   _setCDS_Main->_setLights_Switch
   537 ;;   _setCDS_Initialization->_setLED
   538 ;;   _setLights_Main->_setLights
   539 ;;   _Lights_Initialization->_setLights_Initialization
   540 ;;   _LED_Main->_setLED_Main
   541 ;;   _setLED_Initialization->_setLED
   542 ;;   _setLights_Switch->_LightsPointSelect
   543 ;;   _setLights_Trigger->_LightsPointSelect
   544 ;;   _setLights->_LightsPointSelect
   545 ;;   _Lights_Control->_LightsPointSelect
   546 ;;   _setLights_Initialization->_LightsPointSelect
   547 ;;   _getCDS_AD->_setCDSPoint
   548 ;;   _getCDS_AD->_getAD
   549 ;;   _Mcu_Initialization->_TMR0_Set
   550 ;;   _setLED->_LedPointSelect
   551 ;;   _setLED_Main->_LedPointSelect
   552 ;;
   553 ;; Critical Paths under _ISR in BANK0
   554 ;;
   555 ;;   None.
   556 ;;
   557 ;; Critical Paths under _main in BANK1
   558 ;;
   559 ;;   None.
   560 ;;
   561 ;; Critical Paths under _ISR in BANK1
   562 ;;
   563 ;;   None.
   564 ;;
   565 ;; Critical Paths under _main in BANK2
   566 ;;
   567 ;;   None.
   568 ;;
   569 ;; Critical Paths under _ISR in BANK2
   570 ;;
   571 ;;   None.
   572                           
   573 ;;
   574 ;;Main: autosize = 0, tempsize = 2, incstack = 0, save=0
   575 ;;
   576                           
   577 ;;
   578 ;;Call Graph Tables:
   579 ;;
   580 ;; ---------------------------------------------------------------------------------
   581 ;; (Depth) Function   	        Calls       Base Space   Used Autos Params    Refs
   582 ;; ---------------------------------------------------------------------------------
   583 ;; (0) _main                                                 2     2      0    2523
   584 ;;                                              9 BANK0      2     2      0
   585 ;;               _MainT_Initialization
   586 ;;                 _Mcu_Initialization
   587 ;;                 _LED_Initialization
   588 ;;                _SYSC_Initialization
   589 ;;              _Lights_Initialization
   590 ;;                 _CDS_Initialization
   591 ;;                 _PIR_Initialization
   592 ;;                          _getCDS_AD
   593 ;;                          _getPIR_AD
   594 ;;                              _MainT
   595 ;;                           _LED_Main
   596 ;;                          _SYSC_Main
   597 ;;                        _Lights_Main
   598 ;;                           _CDS_Main
   599 ;;                           _PIR_Main
   600 ;; ---------------------------------------------------------------------------------
   601 ;; (1) _CDS_Main                                             0     0      0     248
   602 ;;                        _setCDS_Main
   603 ;; ---------------------------------------------------------------------------------
   604 ;; (1) _Lights_Main                                          0     0      0     471
   605 ;;                     _setLights_Main
   606 ;;                     _Lights_Control
   607 ;; ---------------------------------------------------------------------------------
   608 ;; (1) _CDS_Initialization                                   0     0      0     651
   609 ;;              _setCDS_Initialization
   610 ;; ---------------------------------------------------------------------------------
   611 ;; (1) _LED_Initialization                                   0     0      0     682
   612 ;;              _setLED_Initialization
   613 ;; ---------------------------------------------------------------------------------
   614 ;; (2) _setCDS_Main                                          4     4      0     248
   615 ;;                                              4 BANK0      4     4      0
   616 ;;                        _setCDSPoint
   617 ;;                  _setLights_Trigger
   618 ;;                   _setLights_Switch
   619 ;; ---------------------------------------------------------------------------------
   620 ;; (2) _setCDS_Initialization                                1     1      0     651
   621 ;;                                              4 BANK0      1     1      0
   622 ;;                        _setCDSPoint
   623 ;;                             _setLED
   624 ;; ---------------------------------------------------------------------------------
   625 ;; (2) _setLights_Main                                       3     3      0     347
   626 ;;                                              5 BANK0      3     3      0
   627 ;;                  _LightsPointSelect
   628 ;;                          _setLights
   629 ;; ---------------------------------------------------------------------------------
   630 ;; (1) _Lights_Initialization                                0     0      0      62
   631 ;;           _setLights_Initialization
   632 ;; ---------------------------------------------------------------------------------
   633 ;; (1) _LED_Main                                             0     0      0     217
   634 ;;                        _setLED_Main
   635 ;; ---------------------------------------------------------------------------------
   636 ;; (2) _setLED_Initialization                                1     1      0     682
   637 ;;                                              4 BANK0      1     1      0
   638 ;;                     _LedPointSelect
   639 ;;                             _setLED
   640 ;; ---------------------------------------------------------------------------------
   641 ;; (3) _setLights_Switch                                     2     1      1      93
   642 ;;                                              2 BANK0      2     1      1
   643 ;;                  _LightsPointSelect
   644 ;; ---------------------------------------------------------------------------------
   645 ;; (3) _setLights_Trigger                                    2     1      1      93
   646 ;;                                              2 BANK0      2     1      1
   647 ;;                  _LightsPointSelect
   648 ;; ---------------------------------------------------------------------------------
   649 ;; (3) _setLights                                            3     2      1     155
   650 ;;                                              2 BANK0      3     2      1
   651 ;;                  _LightsPointSelect
   652 ;; ---------------------------------------------------------------------------------
   653 ;; (2) _Lights_Control                                       3     3      0     124
   654 ;;                                              2 BANK0      3     3      0
   655 ;;                  _LightsPointSelect
   656 ;; ---------------------------------------------------------------------------------
   657 ;; (2) _setLights_Initialization                             1     1      0      62
   658 ;;                                              2 BANK0      1     1      0
   659 ;;                  _LightsPointSelect
   660 ;; ---------------------------------------------------------------------------------
   661 ;; (1) _getCDS_AD                                            7     5      2     192
   662 ;;                                              2 BANK0      7     5      2
   663 ;;                        _setCDSPoint
   664 ;;                              _getAD
   665 ;; ---------------------------------------------------------------------------------
   666 ;; (1) _Mcu_Initialization                                   0     0      0       0
   667 ;;                             _IO_Set
   668 ;;                           _TMR0_Set
   669 ;;                            _ADC_Set
   670 ;; ---------------------------------------------------------------------------------
   671 ;; (1) _MainT_Initialization                                 1     1      0       0
   672 ;;                                              0 BANK0      1     1      0
   673 ;; ---------------------------------------------------------------------------------
   674 ;; (3) _setLED                                               2     1      1     527
   675 ;;                                              2 BANK0      2     1      1
   676 ;;                     _LedPointSelect
   677 ;; ---------------------------------------------------------------------------------
   678 ;; (2) _setLED_Main                                          3     3      0     217
   679 ;;                                              2 BANK0      3     3      0
   680 ;;                     _LedPointSelect
   681 ;; ---------------------------------------------------------------------------------
   682 ;; (3) _setCDSPoint                                          2     2      0      31
   683 ;;                                              0 BANK0      2     2      0
   684 ;; ---------------------------------------------------------------------------------
   685 ;; (4) _LightsPointSelect                                    2     2      0      31
   686 ;;                                              0 BANK0      2     2      0
   687 ;; ---------------------------------------------------------------------------------
   688 ;; (2) _getAD                                                2     1      1      62
   689 ;;                                              0 BANK0      2     1      1
   690 ;; ---------------------------------------------------------------------------------
   691 ;; (2) _ADC_Set                                              0     0      0       0
   692 ;; ---------------------------------------------------------------------------------
   693 ;; (2) _TMR0_Set                                             1     1      0       0
   694 ;;                                              0 BANK0      1     1      0
   695 ;; ---------------------------------------------------------------------------------
   696 ;; (2) _IO_Set                                               0     0      0       0
   697 ;; ---------------------------------------------------------------------------------
   698 ;; (1) _PIR_Main                                             0     0      0       0
   699 ;; ---------------------------------------------------------------------------------
   700 ;; (1) _SYSC_Main                                            0     0      0       0
   701 ;; ---------------------------------------------------------------------------------
   702 ;; (1) _MainT                                                2     2      0       0
   703 ;;                                              0 BANK0      2     2      0
   704 ;; ---------------------------------------------------------------------------------
   705 ;; (1) _getPIR_AD                                            2     0      2       0
   706 ;;                                              0 BANK0      2     0      2
   707 ;; ---------------------------------------------------------------------------------
   708 ;; (1) _PIR_Initialization                                   0     0      0       0
   709 ;; ---------------------------------------------------------------------------------
   710 ;; (1) _SYSC_Initialization                                  0     0      0       0
   711 ;; ---------------------------------------------------------------------------------
   712 ;; (3) _LedPointSelect                                       2     2      0      93
   713 ;;                                              0 BANK0      2     2      0
   714 ;; ---------------------------------------------------------------------------------
   715 ;; Estimated maximum stack depth 4
   716 ;; ---------------------------------------------------------------------------------
   717 ;; (Depth) Function   	        Calls       Base Space   Used Autos Params    Refs
   718 ;; ---------------------------------------------------------------------------------
   719 ;; (5) _ISR                                                  4     4      0       0
   720 ;;                                              2 COMMON     4     4      0
   721 ;;                           _TMR0_ISR
   722 ;; ---------------------------------------------------------------------------------
   723 ;; (6) _TMR0_ISR                                             2     2      0       0
   724 ;;                                              0 COMMON     2     2      0
   725 ;; ---------------------------------------------------------------------------------
   726 ;; Estimated maximum stack depth 6
   727 ;; ---------------------------------------------------------------------------------
   728                           
   729 ;; Call Graph Graphs:
   730                           
   731 ;; _main (ROOT)
   732 ;;   _MainT_Initialization
   733 ;;   _Mcu_Initialization
   734 ;;     _IO_Set
   735 ;;     _TMR0_Set
   736 ;;     _ADC_Set
   737 ;;   _LED_Initialization
   738 ;;     _setLED_Initialization
   739 ;;       _LedPointSelect
   740 ;;       _setLED
   741 ;;         _LedPointSelect
   742 ;;   _SYSC_Initialization
   743 ;;   _Lights_Initialization
   744 ;;     _setLights_Initialization
   745 ;;       _LightsPointSelect
   746 ;;   _CDS_Initialization
   747 ;;     _setCDS_Initialization
   748 ;;       _setCDSPoint
   749 ;;       _setLED
   750 ;;         _LedPointSelect
   751 ;;   _PIR_Initialization
   752 ;;   _getCDS_AD
   753 ;;     _setCDSPoint
   754 ;;     _getAD
   755 ;;   _getPIR_AD
   756 ;;   _MainT
   757 ;;   _LED_Main
   758 ;;     _setLED_Main
   759 ;;       _LedPointSelect
   760 ;;   _SYSC_Main
   761 ;;   _Lights_Main
   762 ;;     _setLights_Main
   763 ;;       _LightsPointSelect
   764 ;;       _setLights
   765 ;;         _LightsPointSelect
   766 ;;     _Lights_Control
   767 ;;       _LightsPointSelect
   768 ;;   _CDS_Main
   769 ;;     _setCDS_Main
   770 ;;       _setCDSPoint
   771 ;;       _setLights_Trigger
   772 ;;         _LightsPointSelect
   773 ;;       _setLights_Switch
   774 ;;         _LightsPointSelect
   775 ;;   _PIR_Main
   776 ;;
   777 ;; _ISR (ROOT)
   778 ;;   _TMR0_ISR
   779 ;;
   780                           
   781 ;; Address spaces:
   782                           
   783 ;;Name               Size   Autos  Total    Cost      Usage
   784 ;;BITCOMMON            E      0       0       0        0.0%
   785 ;;NULL                 0      0       0       0        0.0%
   786 ;;CODE                 0      0       0       0        0.0%
   787 ;;COMMON               E      6       8       1       57.1%
   788 ;;BITSFR0              0      0       0       1        0.0%
   789 ;;SFR0                 0      0       0       1        0.0%
   790 ;;BITSFR1              0      0       0       2        0.0%
   791 ;;SFR1                 0      0       0       2        0.0%
   792 ;;STACK                0      0       8       2        0.0%
   793 ;;ABS                  0      0      78       3        0.0%
   794 ;;BITBANK0            50      0       0       4        0.0%
   795 ;;BITSFR3              0      0       0       4        0.0%
   796 ;;SFR3                 0      0       0       4        0.0%
   797 ;;BANK0               50      B      41       5       81.3%
   798 ;;BITSFR2              0      0       0       5        0.0%
   799 ;;SFR2                 0      0       0       5        0.0%
   800 ;;BITBANK1            50      0       0       6        0.0%
   801 ;;BANK1               50      0      2F       7       58.8%
   802 ;;BITBANK2            10      0       0       8        0.0%
   803 ;;BANK2               10      0       0       9        0.0%
   804 ;;DATA                 0      0      80      10        0.0%
   805                           
   806                           	global	_main
   807                           psect	maintext,global,class=CODE,delta=2
   808                           global __pmaintext
   809  019F                     __pmaintext:
   810                           
   811 ;; *************** function _main *****************
   812 ;; Defined at:
   813 ;;		line 7 in file "G:\Program\PIC\Source_File\main.c"
   814 ;; Parameters:    Size  Location     Type
   815 ;;		None
   816 ;; Auto vars:     Size  Location     Type
   817 ;;		None
   818 ;; Return value:  Size  Location     Type
   819 ;;		None               void
   820 ;; Registers used:
   821 ;;		wreg, fsr0l, fsr0h, status,2, status,0, pclath, cstack
   822 ;; Tracked objects:
   823 ;;		On entry : 17F/0
   824 ;;		On exit  : 0/0
   825 ;;		Unchanged: 0/0
   826 ;; Data sizes:     COMMON   BANK0   BANK1   BANK2
   827 ;;      Params:         0       0       0       0
   828 ;;      Locals:         0       0       0       0
   829 ;;      Temps:          0       2       0       0
   830 ;;      Totals:         0       2       0       0
   831 ;;Total ram usage:        2 bytes
   832 ;; Hardware stack levels required when called:    6
   833 ;; This function calls:
   834 ;;		_MainT_Initialization
   835 ;;		_Mcu_Initialization
   836 ;;		_LED_Initialization
   837 ;;		_SYSC_Initialization
   838 ;;		_Lights_Initialization
   839 ;;		_CDS_Initialization
   840 ;;		_PIR_Initialization
   841 ;;		_getCDS_AD
   842 ;;		_getPIR_AD
   843 ;;		_MainT
   844 ;;		_LED_Main
   845 ;;		_SYSC_Main
   846 ;;		_Lights_Main
   847 ;;		_CDS_Main
   848 ;;		_PIR_Main
   849 ;; This function is called by:
   850 ;;		Startup code after reset
   851 ;; This function uses a non-reentrant model
   852 ;;
   853                           psect	maintext
   854                           	file	"G:\Program\PIC\Source_File\main.c"
   855                           	line	7
   856                           	global	__size_of_main
   857  0068                     	__size_of_main	equ	__end_of_main-_main
   858                           	
   859  019F                     _main:	
   860                           	opt	stack 2
   861                           ; Regs used in _main: [wreg-fsr0h+status,2+status,0+pclath+cstack]
   862                           	line	8
   863                           	
   864  019F                     l15905:	
   865                           ;main.c: 8: MainT_Initialization();
   866  019F  118A  24B0  118A   	fcall	_MainT_Initialization
   867                           	line	9
   868                           ;main.c: 9: Mcu_Initialization();
   869  01A2  118A  24EE  118A   	fcall	_Mcu_Initialization
   870                           	line	11
   871                           ;main.c: 10: ;;
   872                           ;main.c: 11: LED_Initialization();
   873  01A5  118A  24FC  118A   	fcall	_LED_Initialization
   874                           	line	14
   875                           	
   876  01A8                     l15907:	
   877                           ;main.c: 12: ;;
   878                           ;main.c: 14: SYSC_Initialization();
   879  01A8  118A  2541  118A   	fcall	_SYSC_Initialization
   880                           	line	22
   881                           	
   882  01AB                     l15909:	
   883                           ;main.c: 15: ;;
   884                           ;main.c: 16: ;;
   885                           ;main.c: 17: ;;
   886                           ;main.c: 18: ;;
   887                           ;main.c: 21: ;;
   888                           ;main.c: 22: Lights_Initialization();
   889  01AB  118A  2538  118A   	fcall	_Lights_Initialization
   890                           	line	23
   891                           	
   892  01AE                     l15911:	
   893                           ;main.c: 23: CDS_Initialization();
   894  01AE  118A  2533  118A   	fcall	_CDS_Initialization
   895                           	line	24
   896                           	
   897  01B1                     l15913:	
   898                           ;main.c: 24: PIR_Initialization();
   899  01B1  118A  2540  118A   	fcall	_PIR_Initialization
   900                           	line	28
   901                           	
   902  01B4                     l15915:	
   903                           ;main.c: 26: ;;
   904                           ;main.c: 27: ;;
   905                           ;main.c: 28: _nop();
   906  01B4  0000               	nop
   907  01B5  29B6               	goto	l15917
   908                           	line	30
   909                           ;main.c: 30: while(1)
   910                           	
   911  01B6                     l5073:	
   912                           	line	32
   913                           	
   914  01B6                     l15917:	
   915                           ;main.c: 31: {
   916                           ;main.c: 32: if(TMain->PowerON)
   917  01B6  1283               	bcf	status, 5	;RP0=0, select bank0
   918  01B7  1303               	bcf	status, 6	;RP1=0, select bank0
   919  01B8  0824               	movf	(_TMain),w
   920  01B9  0084               	movwf	fsr0
   921  01BA  1383               	bcf	status, 7	;select IRP bank0
   922  01BB  1C00               	btfss	indf,0
   923  01BC  29BE               	goto	u3941
   924  01BD  29BF               	goto	u3940
   925  01BE                     u3941:
   926  01BE  29DA               	goto	l15923
   927  01BF                     u3940:
   928                           	line	51
   929                           	
   930  01BF                     l15919:	
   931                           ;main.c: 33: {
   932                           ;main.c: 51: getCDS_AD(1,0x09,0x31);
   933  01BF  3009               	movlw	(09h)
   934  01C0  00DF               	movwf	(??_main+0)+0
   935  01C1  085F               	movf	(??_main+0)+0,w
   936  01C2  00D8               	movwf	(?_getCDS_AD)
   937  01C3  3031               	movlw	(031h)
   938  01C4  00E0               	movwf	(??_main+1)+0
   939  01C5  0860               	movf	(??_main+1)+0,w
   940  01C6  00D9               	movwf	0+(?_getCDS_AD)+01h
   941  01C7  3001               	movlw	(01h)
   942  01C8  118A  22B9  118A   	fcall	_getCDS_AD
   943                           	line	55
   944                           	
   945  01CB                     l15921:	
   946                           ;main.c: 55: getPIR_AD(1,0x05,0x0d);
   947  01CB  3005               	movlw	(05h)
   948  01CC  1283               	bcf	status, 5	;RP0=0, select bank0
   949  01CD  1303               	bcf	status, 6	;RP1=0, select bank0
   950  01CE  00DF               	movwf	(??_main+0)+0
   951  01CF  085F               	movf	(??_main+0)+0,w
   952  01D0  00D6               	movwf	(?_getPIR_AD)
   953  01D1  300D               	movlw	(0Dh)
   954  01D2  00E0               	movwf	(??_main+1)+0
   955  01D3  0860               	movf	(??_main+1)+0,w
   956  01D4  00D7               	movwf	0+(?_getPIR_AD)+01h
   957  01D5  3001               	movlw	(01h)
   958  01D6  118A  253F  118A   	fcall	_getPIR_AD
   959  01D9  29DA               	goto	l15923
   960                           	line	57
   961                           	
   962  01DA                     l5074:	
   963                           	line	59
   964                           	
   965  01DA                     l15923:	
   966                           ;main.c: 57: }
   967                           ;main.c: 59: if(TMain->T0_Timerout)
   968  01DA  1283               	bcf	status, 5	;RP0=0, select bank0
   969  01DB  1303               	bcf	status, 6	;RP1=0, select bank0
   970  01DC  0824               	movf	(_TMain),w
   971  01DD  0084               	movwf	fsr0
   972  01DE  1383               	bcf	status, 7	;select IRP bank0
   973  01DF  1C80               	btfss	indf,1
   974  01E0  29E2               	goto	u3951
   975  01E1  29E3               	goto	u3950
   976  01E2                     u3951:
   977  01E2  29B6               	goto	l15917
   978  01E3                     u3950:
   979                           	line	61
   980                           	
   981  01E3                     l15925:	
   982                           ;main.c: 60: {
   983                           ;main.c: 61: TMain->T0_Timerout = 0;
   984  01E3  0824               	movf	(_TMain),w
   985  01E4  0084               	movwf	fsr0
   986  01E5  1080               	bcf	indf,1
   987                           	line	62
   988                           	
   989  01E6                     l15927:	
   990                           ;main.c: 62: MainT();
   991  01E6  118A  2207  118A   	fcall	_MainT
   992                           	line	63
   993                           	
   994  01E9                     l15929:	
   995                           ;main.c: 63: if(TMain->PowerON)
   996  01E9  1283               	bcf	status, 5	;RP0=0, select bank0
   997  01EA  1303               	bcf	status, 6	;RP1=0, select bank0
   998  01EB  0824               	movf	(_TMain),w
   999  01EC  0084               	movwf	fsr0
  1000  01ED  1383               	bcf	status, 7	;select IRP bank0
  1001  01EE  1C00               	btfss	indf,0
  1002  01EF  29F1               	goto	u3961
  1003  01F0  29F2               	goto	u3960
  1004  01F1                     u3961:
  1005  01F1  29B6               	goto	l15917
  1006  01F2                     u3960:
  1007                           	line	67
  1008                           	
  1009  01F2                     l15931:	
  1010                           ;main.c: 64: {
  1011                           ;main.c: 65: ;;
  1012                           ;main.c: 66: ;;
  1013                           ;main.c: 67: LED_Main();
  1014  01F2  118A  2509  118A   	fcall	_LED_Main
  1015                           	line	69
  1016                           	
  1017  01F5                     l15933:	
  1018                           ;main.c: 69: SYSC_Main();
  1019  01F5  118A  253E  118A   	fcall	_SYSC_Main
  1020                           	line	74
  1021                           	
  1022  01F8                     l15935:	
  1023                           ;main.c: 70: ;;
  1024                           ;main.c: 71: ;;
  1025                           ;main.c: 72: ;;
  1026                           ;main.c: 74: Lights_Main();
  1027  01F8  118A  2516  118A   	fcall	_Lights_Main
  1028                           	line	77
  1029                           	
  1030  01FB                     l15937:	
  1031                           ;main.c: 75: ;;
  1032                           ;main.c: 76: ;;
  1033                           ;main.c: 77: CDS_Main();
  1034  01FB  118A  252E  118A   	fcall	_CDS_Main
  1035                           	line	78
  1036                           	
  1037  01FE                     l15939:	
  1038                           ;main.c: 78: PIR_Main();
  1039  01FE  118A  253D  118A   	fcall	_PIR_Main
  1040  0201  29B6               	goto	l15917
  1041                           	line	82
  1042                           ;main.c: 80: ;;
  1043                           ;main.c: 81: ;;
  1044                           	
  1045  0202                     l5076:	
  1046  0202  29B6               	goto	l15917
  1047                           	line	83
  1048                           	
  1049  0203                     l5075:	
  1050  0203  29B6               	goto	l15917
  1051                           	line	84
  1052                           	
  1053  0204                     l5077:	
  1054                           	line	30
  1055  0204  29B6               	goto	l15917
  1056                           	
  1057  0205                     l5078:	
  1058                           	line	85
  1059                           	
  1060  0205                     l5079:	
  1061                           	global	start
  1062  0205  118A  2811         	ljmp	start
  1063                           	opt stack 0
  1064                           GLOBAL	__end_of_main
  1065  0207                     	__end_of_main:
  1066 ;; =============== function _main ends ============
  1067                           
  1068                           	signat	_main,88
  1069                           	global	_CDS_Main
  1070                           psect	text1086,local,class=CODE,delta=2
  1071                           global __ptext1086
  1072  052E                     __ptext1086:
  1073                           
  1074 ;; *************** function _CDS_Main *****************
  1075 ;; Defined at:
  1076 ;;		line 31 in file "G:\Program\PIC\Source_File\CDS_B1.c"
  1077 ;; Parameters:    Size  Location     Type
  1078 ;;		None
  1079 ;; Auto vars:     Size  Location     Type
  1080 ;;		None
  1081 ;; Return value:  Size  Location     Type
  1082 ;;		None               void
  1083 ;; Registers used:
  1084 ;;		wreg, fsr0l, fsr0h, status,2, status,0, pclath, cstack
  1085 ;; Tracked objects:
  1086 ;;		On entry : 0/0
  1087 ;;		On exit  : 0/0
  1088 ;;		Unchanged: 0/0
  1089 ;; Data sizes:     COMMON   BANK0   BANK1   BANK2
  1090 ;;      Params:         0       0       0       0
  1091 ;;      Locals:         0       0       0       0
  1092 ;;      Temps:          0       0       0       0
  1093 ;;      Totals:         0       0       0       0
  1094 ;;Total ram usage:        0 bytes
  1095 ;; Hardware stack levels used:    1
  1096 ;; Hardware stack levels required when called:    5
  1097 ;; This function calls:
  1098 ;;		_setCDS_Main
  1099 ;; This function is called by:
  1100 ;;		_main
  1101 ;; This function uses a non-reentrant model
  1102 ;;
  1103                           psect	text1086
  1104                           	file	"G:\Program\PIC\Source_File\CDS_B1.c"
  1105                           	line	31
  1106                           	global	__size_of_CDS_Main
  1107  0005                     	__size_of_CDS_Main	equ	__end_of_CDS_Main-_CDS_Main
  1108                           	
  1109  052E                     _CDS_Main:	
  1110                           	opt	stack 2
  1111                           ; Regs used in _CDS_Main: [wreg-fsr0h+status,2+status,0+pclath+cstack]
  1112                           	line	33
  1113                           	
  1114  052E                     l15903:	
  1115                           ;CDS_B1.c: 33: setCDS_Main(1);
  1116  052E  3001               	movlw	(01h)
  1117  052F  118A  2013  118A   	fcall	_setCDS_Main
  1118                           	line	35
  1119                           	
  1120  0532                     l11868:	
  1121  0532  0008               	return
  1122                           	opt stack 0
  1123                           GLOBAL	__end_of_CDS_Main
  1124  0533                     	__end_of_CDS_Main:
  1125 ;; =============== function _CDS_Main ends ============
  1126                           
  1127                           	signat	_CDS_Main,88
  1128                           	global	_Lights_Main
  1129                           psect	text1087,local,class=CODE,delta=2
  1130                           global __ptext1087
  1131  0516                     __ptext1087:
  1132                           
  1133 ;; *************** function _Lights_Main *****************
  1134 ;; Defined at:
  1135 ;;		line 53 in file "G:\Program\PIC\Source_File\TriacRelay_B1.c"
  1136 ;; Parameters:    Size  Location     Type
  1137 ;;		None
  1138 ;; Auto vars:     Size  Location     Type
  1139 ;;		None
  1140 ;; Return value:  Size  Location     Type
  1141 ;;		None               void
  1142 ;; Registers used:
  1143 ;;		wreg, fsr0l, fsr0h, status,2, status,0, pclath, cstack
  1144 ;; Tracked objects:
  1145 ;;		On entry : 0/0
  1146 ;;		On exit  : 0/0
  1147 ;;		Unchanged: 0/0
  1148 ;; Data sizes:     COMMON   BANK0   BANK1   BANK2
  1149 ;;      Params:         0       0       0       0
  1150 ;;      Locals:         0       0       0       0
  1151 ;;      Temps:          0       0       0       0
  1152 ;;      Totals:         0       0       0       0
  1153 ;;Total ram usage:        0 bytes
  1154 ;; Hardware stack levels used:    1
  1155 ;; Hardware stack levels required when called:    5
  1156 ;; This function calls:
  1157 ;;		_setLights_Main
  1158 ;;		_Lights_Control
  1159 ;; This function is called by:
  1160 ;;		_main
  1161 ;; This function uses a non-reentrant model
  1162 ;;
  1163                           psect	text1087
  1164                           	file	"G:\Program\PIC\Source_File\TriacRelay_B1.c"
  1165                           	line	53
  1166                           	global	__size_of_Lights_Main
  1167  0009                     	__size_of_Lights_Main	equ	__end_of_Lights_Main-_Lights_Main
  1168                           	
  1169  0516                     _Lights_Main:	
  1170                           	opt	stack 2
  1171                           ; Regs used in _Lights_Main: [wreg-fsr0h+status,2+status,0+pclath+cstack]
  1172                           	line	55
  1173                           	
  1174  0516                     l15901:	
  1175                           ;TriacRelay_B1.c: 55: setLights_Main(1);
  1176  0516  3001               	movlw	(01h)
  1177  0517  118A  2309  118A   	fcall	_setLights_Main
  1178                           	line	67
  1179                           ;TriacRelay_B1.c: 67: Lights_Control(1);
  1180  051A  3001               	movlw	(01h)
  1181  051B  118A  2135  118A   	fcall	_Lights_Control
  1182                           	line	77
  1183                           	
  1184  051E                     l10965:	
  1185  051E  0008               	return
  1186                           	opt stack 0
  1187                           GLOBAL	__end_of_Lights_Main
  1188  051F                     	__end_of_Lights_Main:
  1189 ;; =============== function _Lights_Main ends ============
  1190                           
  1191                           	signat	_Lights_Main,88
  1192                           	global	_CDS_Initialization
  1193                           psect	text1088,local,class=CODE,delta=2
  1194                           global __ptext1088
  1195  0533                     __ptext1088:
  1196                           
  1197 ;; *************** function _CDS_Initialization *****************
  1198 ;; Defined at:
  1199 ;;		line 17 in file "G:\Program\PIC\Source_File\CDS_B1.c"
  1200 ;; Parameters:    Size  Location     Type
  1201 ;;		None
  1202 ;; Auto vars:     Size  Location     Type
  1203 ;;		None
  1204 ;; Return value:  Size  Location     Type
  1205 ;;		None               void
  1206 ;; Registers used:
  1207 ;;		wreg, fsr0l, fsr0h, status,2, status,0, pclath, cstack
  1208 ;; Tracked objects:
  1209 ;;		On entry : 0/0
  1210 ;;		On exit  : 0/0
  1211 ;;		Unchanged: 0/0
  1212 ;; Data sizes:     COMMON   BANK0   BANK1   BANK2
  1213 ;;      Params:         0       0       0       0
  1214 ;;      Locals:         0       0       0       0
  1215 ;;      Temps:          0       0       0       0
  1216 ;;      Totals:         0       0       0       0
  1217 ;;Total ram usage:        0 bytes
  1218 ;; Hardware stack levels used:    1
  1219 ;; Hardware stack levels required when called:    5
  1220 ;; This function calls:
  1221 ;;		_setCDS_Initialization
  1222 ;; This function is called by:
  1223 ;;		_main
  1224 ;; This function uses a non-reentrant model
  1225 ;;
  1226                           psect	text1088
  1227                           	file	"G:\Program\PIC\Source_File\CDS_B1.c"
  1228                           	line	17
  1229                           	global	__size_of_CDS_Initialization
  1230  0005                     	__size_of_CDS_Initialization	equ	__end_of_CDS_Initialization-_CDS_Initialization
  1231                           	
  1232  0533                     _CDS_Initialization:	
  1233                           	opt	stack 2
  1234                           ; Regs used in _CDS_Initialization: [wreg-fsr0h+status,2+status,0+pclath+cstack]
  1235                           	line	19
  1236                           	
  1237  0533                     l15899:	
  1238                           ;CDS_B1.c: 19: setCDS_Initialization(1);
  1239  0533  3001               	movlw	(01h)
  1240  0534  118A  23F8  118A   	fcall	_setCDS_Initialization
  1241                           	line	22
  1242                           	
  1243  0537                     l11862:	
  1244  0537  0008               	return
  1245                           	opt stack 0
  1246                           GLOBAL	__end_of_CDS_Initialization
  1247  0538                     	__end_of_CDS_Initialization:
  1248 ;; =============== function _CDS_Initialization ends ============
  1249                           
  1250                           	signat	_CDS_Initialization,88
  1251                           	global	_LED_Initialization
  1252                           psect	text1089,local,class=CODE,delta=2
  1253                           global __ptext1089
  1254  04FC                     __ptext1089:
  1255                           
  1256 ;; *************** function _LED_Initialization *****************
  1257 ;; Defined at:
  1258 ;;		line 36 in file "G:\Program\PIC\Source_File\LED_B1.c"
  1259 ;; Parameters:    Size  Location     Type
  1260 ;;		None
  1261 ;; Auto vars:     Size  Location     Type
  1262 ;;		None
  1263 ;; Return value:  Size  Location     Type
  1264 ;;		None               void
  1265 ;; Registers used:
  1266 ;;		wreg, fsr0l, fsr0h, status,2, status,0, pclath, cstack
  1267 ;; Tracked objects:
  1268 ;;		On entry : 0/0
  1269 ;;		On exit  : 0/0
  1270 ;;		Unchanged: 0/0
  1271 ;; Data sizes:     COMMON   BANK0   BANK1   BANK2
  1272 ;;      Params:         0       0       0       0
  1273 ;;      Locals:         0       0       0       0
  1274 ;;      Temps:          0       0       0       0
  1275 ;;      Totals:         0       0       0       0
  1276 ;;Total ram usage:        0 bytes
  1277 ;; Hardware stack levels used:    1
  1278 ;; Hardware stack levels required when called:    5
  1279 ;; This function calls:
  1280 ;;		_setLED_Initialization
  1281 ;; This function is called by:
  1282 ;;		_main
  1283 ;; This function uses a non-reentrant model
  1284 ;;
  1285                           psect	text1089
  1286                           	file	"G:\Program\PIC\Source_File\LED_B1.c"
  1287                           	line	36
  1288                           	global	__size_of_LED_Initialization
  1289  000D                     	__size_of_LED_Initialization	equ	__end_of_LED_Initialization-_LED_Initialization
  1290                           	
  1291  04FC                     _LED_Initialization:	
  1292                           	opt	stack 2
  1293                           ; Regs used in _LED_Initialization: [wreg-fsr0h+status,2+status,0+pclath+cstack]
  1294                           	line	38
  1295                           	
  1296  04FC                     l15897:	
  1297                           ;LED_B1.c: 38: setLED_Initialization(1);
  1298  04FC  3001               	movlw	(01h)
  1299  04FD  118A  2458  118A   	fcall	_setLED_Initialization
  1300                           	line	41
  1301                           ;LED_B1.c: 41: setLED_Initialization(2);
  1302  0500  3002               	movlw	(02h)
  1303  0501  118A  2458  118A   	fcall	_setLED_Initialization
  1304                           	line	47
  1305                           ;LED_B1.c: 47: setLED_Initialization(99);
  1306  0504  3063               	movlw	(063h)
  1307  0505  118A  2458  118A   	fcall	_setLED_Initialization
  1308                           	line	49
  1309                           	
  1310  0508                     l4167:	
  1311  0508  0008               	return
  1312                           	opt stack 0
  1313                           GLOBAL	__end_of_LED_Initialization
  1314  0509                     	__end_of_LED_Initialization:
  1315 ;; =============== function _LED_Initialization ends ============
  1316                           
  1317                           	signat	_LED_Initialization,88
  1318                           	global	_setCDS_Main
  1319                           psect	text1090,local,class=CODE,delta=2
  1320                           global __ptext1090
  1321  0013                     __ptext1090:
  1322                           
  1323 ;; *************** function _setCDS_Main *****************
  1324 ;; Defined at:
  1325 ;;		line 38 in file "G:\Program\PIC\Source_File\CDS_B1.c"
  1326 ;; Parameters:    Size  Location     Type
  1327 ;;  cds             1    wreg     unsigned char 
  1328 ;; Auto vars:     Size  Location     Type
  1329 ;;  cds             1    7[BANK0 ] unsigned char 
  1330 ;; Return value:  Size  Location     Type
  1331 ;;		None               void
  1332 ;; Registers used:
  1333 ;;		wreg, fsr0l, fsr0h, status,2, status,0, pclath, cstack
  1334 ;; Tracked objects:
  1335 ;;		On entry : 0/0
  1336 ;;		On exit  : 0/0
  1337 ;;		Unchanged: 0/0
  1338 ;; Data sizes:     COMMON   BANK0   BANK1   BANK2
  1339 ;;      Params:         0       0       0       0
  1340 ;;      Locals:         0       1       0       0
  1341 ;;      Temps:          0       3       0       0
  1342 ;;      Totals:         0       4       0       0
  1343 ;;Total ram usage:        4 bytes
  1344 ;; Hardware stack levels used:    1
  1345 ;; Hardware stack levels required when called:    4
  1346 ;; This function calls:
  1347 ;;		_setCDSPoint
  1348 ;;		_setLights_Trigger
  1349 ;;		_setLights_Switch
  1350 ;; This function is called by:
  1351 ;;		_CDS_Main
  1352 ;; This function uses a non-reentrant model
  1353 ;;
  1354                           psect	text1090
  1355                           	file	"G:\Program\PIC\Source_File\CDS_B1.c"
  1356                           	line	38
  1357                           	global	__size_of_setCDS_Main
  1358  009C                     	__size_of_setCDS_Main	equ	__end_of_setCDS_Main-_setCDS_Main
  1359                           	
  1360  0013                     _setCDS_Main:	
  1361                           	opt	stack 2
  1362                           ; Regs used in _setCDS_Main: [wreg-fsr0h+status,2+status,0+pclath+cstack]
  1363                           ;setCDS_Main@cds stored from wreg
  1364  0013  1283               	bcf	status, 5	;RP0=0, select bank0
  1365  0014  1303               	bcf	status, 6	;RP1=0, select bank0
  1366  0015  00DD               	movwf	(setCDS_Main@cds)
  1367                           	line	39
  1368                           	
  1369  0016                     l15861:	
  1370                           ;CDS_B1.c: 39: setCDSPoint(cds);
  1371  0016  085D               	movf	(setCDS_Main@cds),w
  1372  0017  118A  24D0  118A   	fcall	_setCDSPoint
  1373                           	line	40
  1374                           	
  1375  001A                     l15863:	
  1376                           ;CDS_B1.c: 40: if(CDS->Enable)
  1377  001A  1283               	bcf	status, 5	;RP0=0, select bank0
  1378  001B  1303               	bcf	status, 6	;RP1=0, select bank0
  1379  001C  0820               	movf	(_CDS),w
  1380  001D  0084               	movwf	fsr0
  1381  001E  1383               	bcf	status, 7	;select IRP bank0
  1382  001F  1C00               	btfss	indf,0
  1383  0020  2822               	goto	u3871
  1384  0021  2823               	goto	u3870
  1385  0022                     u3871:
  1386  0022  28AE               	goto	l11880
  1387  0023                     u3870:
  1388                           	line	42
  1389                           	
  1390  0023                     l15865:	
  1391                           ;CDS_B1.c: 41: {
  1392                           ;CDS_B1.c: 42: if(!CDS->GO)
  1393  0023  0820               	movf	(_CDS),w
  1394  0024  0084               	movwf	fsr0
  1395  0025  1880               	btfsc	indf,1
  1396  0026  2828               	goto	u3881
  1397  0027  2829               	goto	u3880
  1398  0028                     u3881:
  1399  0028  2849               	goto	l15875
  1400  0029                     u3880:
  1401                           	line	44
  1402                           	
  1403  0029                     l15867:	
  1404                           ;CDS_B1.c: 43: {
  1405                           ;CDS_B1.c: 44: if(!CDS->ADtoGO)
  1406  0029  0820               	movf	(_CDS),w
  1407  002A  0084               	movwf	fsr0
  1408  002B  1980               	btfsc	indf,3
  1409  002C  282E               	goto	u3891
  1410  002D  282F               	goto	u3890
  1411  002E                     u3891:
  1412  002E  28AE               	goto	l11880
  1413  002F                     u3890:
  1414                           	line	46
  1415                           	
  1416  002F                     l15869:	
  1417                           ;CDS_B1.c: 45: {
  1418                           ;CDS_B1.c: 46: CDS->Time++;
  1419  002F  3001               	movlw	(01h)
  1420  0030  00DA               	movwf	(??_setCDS_Main+0)+0
  1421  0031  0820               	movf	(_CDS),w
  1422  0032  3E01               	addlw	01h
  1423  0033  0084               	movwf	fsr0
  1424  0034  085A               	movf	(??_setCDS_Main+0)+0,w
  1425  0035  0780               	addwf	indf,f
  1426                           	line	47
  1427                           	
  1428  0036                     l15871:	
  1429                           ;CDS_B1.c: 47: if(CDS->Time >= 100)
  1430  0036  0820               	movf	(_CDS),w
  1431  0037  3E01               	addlw	01h
  1432  0038  0084               	movwf	fsr0
  1433  0039  3064               	movlw	(064h)
  1434  003A  0200               	subwf	indf,w
  1435  003B  1C03               	skipc
  1436  003C  283E               	goto	u3901
  1437  003D  283F               	goto	u3900
  1438  003E                     u3901:
  1439  003E  28AE               	goto	l11880
  1440  003F                     u3900:
  1441                           	line	49
  1442                           	
  1443  003F                     l15873:	
  1444                           ;CDS_B1.c: 48: {
  1445                           ;CDS_B1.c: 49: CDS->Time=0;
  1446  003F  0820               	movf	(_CDS),w
  1447  0040  3E01               	addlw	01h
  1448  0041  0084               	movwf	fsr0
  1449  0042  0180               	clrf	indf
  1450                           	line	50
  1451                           ;CDS_B1.c: 50: CDS->ADtoGO=1;
  1452  0043  0820               	movf	(_CDS),w
  1453  0044  0084               	movwf	fsr0
  1454  0045  1580               	bsf	indf,3
  1455  0046  28AE               	goto	l11880
  1456                           	line	51
  1457                           	
  1458  0047                     l11874:	
  1459  0047  28AE               	goto	l11880
  1460                           	line	52
  1461                           	
  1462  0048                     l11873:	
  1463                           	line	53
  1464                           ;CDS_B1.c: 51: }
  1465                           ;CDS_B1.c: 52: }
  1466                           ;CDS_B1.c: 53: }
  1467  0048  28AE               	goto	l11880
  1468                           	line	54
  1469                           	
  1470  0049                     l11872:	
  1471                           	line	56
  1472                           	
  1473  0049                     l15875:	
  1474                           ;CDS_B1.c: 54: else
  1475                           ;CDS_B1.c: 55: {
  1476                           ;CDS_B1.c: 56: CDS->GO=0;
  1477  0049  0820               	movf	(_CDS),w
  1478  004A  0084               	movwf	fsr0
  1479  004B  1080               	bcf	indf,1
  1480                           	line	57
  1481                           ;CDS_B1.c: 57: if(CDS->High)
  1482  004C  0820               	movf	(_CDS),w
  1483  004D  0084               	movwf	fsr0
  1484  004E  1E00               	btfss	indf,4
  1485  004F  2851               	goto	u3911
  1486  0050  2852               	goto	u3910
  1487  0051                     u3911:
  1488  0051  2878               	goto	l15887
  1489  0052                     u3910:
  1490                           	line	59
  1491                           	
  1492  0052                     l15877:	
  1493                           ;CDS_B1.c: 58: {
  1494                           ;CDS_B1.c: 59: if(CDS->SignalAD >= CDS->VRAD)
  1495  0052  0820               	movf	(_CDS),w
  1496  0053  3E02               	addlw	02h
  1497  0054  0084               	movwf	fsr
  1498  0055  0800               	movf	indf,w
  1499  0056  00DA               	movwf	(??_setCDS_Main+0)+0
  1500  0057  0820               	movf	(_CDS),w
  1501  0058  3E03               	addlw	03h
  1502  0059  0084               	movwf	fsr0
  1503  005A  0800               	movf	indf,w
  1504  005B  00DB               	movwf	(??_setCDS_Main+1)+0
  1505  005C  085A               	movf	(??_setCDS_Main+0)+0,w
  1506  005D  025B               	subwf	(??_setCDS_Main+1)+0,w
  1507  005E  1C03               	skipc
  1508  005F  2861               	goto	u3921
  1509  0060  2862               	goto	u3920
  1510  0061                     u3921:
  1511  0061  28AE               	goto	l11880
  1512  0062                     u3920:
  1513                           	line	61
  1514                           	
  1515  0062                     l15879:	
  1516                           ;CDS_B1.c: 60: {
  1517                           ;CDS_B1.c: 61: CDS->High=0;
  1518  0062  0820               	movf	(_CDS),w
  1519  0063  0084               	movwf	fsr0
  1520  0064  1200               	bcf	indf,4
  1521                           	line	62
  1522                           	
  1523  0065                     l15881:	
  1524                           ;CDS_B1.c: 62: RB3=0;
  1525  0065  1186               	bcf	(51/8),(51)&7
  1526                           	line	63
  1527                           	
  1528  0066                     l15883:	
  1529                           ;CDS_B1.c: 63: setLights_Trigger(1,1);
  1530  0066  01D8               	clrf	(?_setLights_Trigger)
  1531  0067  1403               	bsf	status,0
  1532  0068  0DD8               	rlf	(?_setLights_Trigger),f
  1533  0069  3001               	movlw	(01h)
  1534  006A  118A  248E  118A   	fcall	_setLights_Trigger
  1535                           	line	64
  1536                           	
  1537  006D                     l15885:	
  1538                           ;CDS_B1.c: 64: setLights_Switch(1,1);
  1539  006D  1283               	bcf	status, 5	;RP0=0, select bank0
  1540  006E  1303               	bcf	status, 6	;RP1=0, select bank0
  1541  006F  01D8               	clrf	(?_setLights_Switch)
  1542  0070  1403               	bsf	status,0
  1543  0071  0DD8               	rlf	(?_setLights_Switch),f
  1544  0072  3001               	movlw	(01h)
  1545  0073  118A  247D  118A   	fcall	_setLights_Switch
  1546  0076  28AE               	goto	l11880
  1547                           	line	65
  1548                           	
  1549  0077                     l11877:	
  1550                           	line	66
  1551                           ;CDS_B1.c: 65: }
  1552                           ;CDS_B1.c: 66: }
  1553  0077  28AE               	goto	l11880
  1554                           	line	67
  1555                           	
  1556  0078                     l11876:	
  1557                           	line	69
  1558                           	
  1559  0078                     l15887:	
  1560                           ;CDS_B1.c: 67: else
  1561                           ;CDS_B1.c: 68: {
  1562                           ;CDS_B1.c: 69: if(CDS->SignalAD <= (CDS->VRAD-100))
  1563  0078  1283               	bcf	status, 5	;RP0=0, select bank0
  1564  0079  1303               	bcf	status, 6	;RP1=0, select bank0
  1565  007A  0820               	movf	(_CDS),w
  1566  007B  3E02               	addlw	02h
  1567  007C  0084               	movwf	fsr0
  1568  007D  1383               	bcf	status, 7	;select IRP bank0
  1569  007E  0800               	movf	indf,w
  1570  007F  3E9C               	addlw	low(-100)
  1571  0080  00DA               	movwf	(??_setCDS_Main+0)+0
  1572  0081  30FF               	movlw	high(-100)
  1573  0082  1803               	skipnc
  1574  0083  3000               	movlw	(high(-100)+1)&0ffh
  1575  0084  00DB               	movwf	((??_setCDS_Main+0)+0)+1
  1576  0085  0820               	movf	(_CDS),w
  1577  0086  3E03               	addlw	03h
  1578  0087  0084               	movwf	fsr0
  1579  0088  085B               	movf	1+(??_setCDS_Main+0)+0,w
  1580  0089  3A80               	xorlw	80h
  1581  008A  00DC               	movwf	(??_setCDS_Main+2)+0
  1582  008B  3080               	movlw	80h
  1583  008C  025C               	subwf	(??_setCDS_Main+2)+0,w
  1584  008D  1D03               	skipz
  1585  008E  2891               	goto	u3935
  1586  008F  0800               	movf	indf,w
  1587  0090  025A               	subwf	0+(??_setCDS_Main+0)+0,w
  1588  0091                     u3935:
  1589                           
  1590  0091  1C03               	skipc
  1591  0092  2894               	goto	u3931
  1592  0093  2895               	goto	u3930
  1593  0094                     u3931:
  1594  0094  28AE               	goto	l11880
  1595  0095                     u3930:
  1596                           	line	71
  1597                           	
  1598  0095                     l15889:	
  1599                           ;CDS_B1.c: 70: {
  1600                           ;CDS_B1.c: 71: CDS->High=1;
  1601  0095  1283               	bcf	status, 5	;RP0=0, select bank0
  1602  0096  1303               	bcf	status, 6	;RP1=0, select bank0
  1603  0097  0820               	movf	(_CDS),w
  1604  0098  0084               	movwf	fsr0
  1605  0099  1383               	bcf	status, 7	;select IRP bank0
  1606  009A  1600               	bsf	indf,4
  1607                           	line	72
  1608                           	
  1609  009B                     l15891:	
  1610                           ;CDS_B1.c: 72: RB3=1;
  1611  009B  1586               	bsf	(51/8),(51)&7
  1612                           	line	73
  1613                           	
  1614  009C                     l15893:	
  1615                           ;CDS_B1.c: 73: setLights_Trigger(1,1);
  1616  009C  01D8               	clrf	(?_setLights_Trigger)
  1617  009D  1403               	bsf	status,0
  1618  009E  0DD8               	rlf	(?_setLights_Trigger),f
  1619  009F  3001               	movlw	(01h)
  1620  00A0  118A  248E  118A   	fcall	_setLights_Trigger
  1621                           	line	74
  1622                           	
  1623  00A3                     l15895:	
  1624                           ;CDS_B1.c: 74: setLights_Switch(1,0);
  1625  00A3  1283               	bcf	status, 5	;RP0=0, select bank0
  1626  00A4  1303               	bcf	status, 6	;RP1=0, select bank0
  1627  00A5  01D8               	clrf	(?_setLights_Switch)
  1628  00A6  3001               	movlw	(01h)
  1629  00A7  118A  247D  118A   	fcall	_setLights_Switch
  1630  00AA  28AE               	goto	l11880
  1631                           	line	75
  1632                           	
  1633  00AB                     l11879:	
  1634  00AB  28AE               	goto	l11880
  1635                           	line	76
  1636                           	
  1637  00AC                     l11878:	
  1638  00AC  28AE               	goto	l11880
  1639                           	line	77
  1640                           	
  1641  00AD                     l11875:	
  1642  00AD  28AE               	goto	l11880
  1643                           	line	78
  1644                           	
  1645  00AE                     l11871:	
  1646                           	line	79
  1647                           	
  1648  00AE                     l11880:	
  1649  00AE  0008               	return
  1650                           	opt stack 0
  1651                           GLOBAL	__end_of_setCDS_Main
  1652  00AF                     	__end_of_setCDS_Main:
  1653 ;; =============== function _setCDS_Main ends ============
  1654                           
  1655                           	signat	_setCDS_Main,4216
  1656                           	global	_setCDS_Initialization
  1657                           psect	text1091,local,class=CODE,delta=2
  1658                           global __ptext1091
  1659  03F8                     __ptext1091:
  1660                           
  1661 ;; *************** function _setCDS_Initialization *****************
  1662 ;; Defined at:
  1663 ;;		line 24 in file "G:\Program\PIC\Source_File\CDS_B1.c"
  1664 ;; Parameters:    Size  Location     Type
  1665 ;;  cds             1    wreg     unsigned char 
  1666 ;; Auto vars:     Size  Location     Type
  1667 ;;  cds             1    4[BANK0 ] unsigned char 
  1668 ;; Return value:  Size  Location     Type
  1669 ;;		None               void
  1670 ;; Registers used:
  1671 ;;		wreg, fsr0l, fsr0h, status,2, status,0, pclath, cstack
  1672 ;; Tracked objects:
  1673 ;;		On entry : 0/0
  1674 ;;		On exit  : 0/0
  1675 ;;		Unchanged: 0/0
  1676 ;; Data sizes:     COMMON   BANK0   BANK1   BANK2
  1677 ;;      Params:         0       0       0       0
  1678 ;;      Locals:         0       1       0       0
  1679 ;;      Temps:          0       0       0       0
  1680 ;;      Totals:         0       1       0       0
  1681 ;;Total ram usage:        1 bytes
  1682 ;; Hardware stack levels used:    1
  1683 ;; Hardware stack levels required when called:    4
  1684 ;; This function calls:
  1685 ;;		_setCDSPoint
  1686 ;;		_setLED
  1687 ;; This function is called by:
  1688 ;;		_CDS_Initialization
  1689 ;; This function uses a non-reentrant model
  1690 ;;
  1691                           psect	text1091
  1692                           	file	"G:\Program\PIC\Source_File\CDS_B1.c"
  1693                           	line	24
  1694                           	global	__size_of_setCDS_Initialization
  1695  001D                     	__size_of_setCDS_Initialization	equ	__end_of_setCDS_Initialization-_setCDS_Initializati
                                 on
  1696                           	
  1697  03F8                     _setCDS_Initialization:	
  1698                           	opt	stack 2
  1699                           ; Regs used in _setCDS_Initialization: [wreg-fsr0h+status,2+status,0+pclath+cstack]
  1700                           ;setCDS_Initialization@cds stored from wreg
  1701  03F8  1283               	bcf	status, 5	;RP0=0, select bank0
  1702  03F9  1303               	bcf	status, 6	;RP1=0, select bank0
  1703  03FA  00DA               	movwf	(setCDS_Initialization@cds)
  1704                           	line	25
  1705                           	
  1706  03FB                     l15853:	
  1707                           ;CDS_B1.c: 25: setCDSPoint(cds);
  1708  03FB  085A               	movf	(setCDS_Initialization@cds),w
  1709  03FC  118A  24D0  118A   	fcall	_setCDSPoint
  1710                           	line	26
  1711                           	
  1712  03FF                     l15855:	
  1713                           ;CDS_B1.c: 26: CDS->Enable=1;
  1714  03FF  1283               	bcf	status, 5	;RP0=0, select bank0
  1715  0400  1303               	bcf	status, 6	;RP1=0, select bank0
  1716  0401  0820               	movf	(_CDS),w
  1717  0402  0084               	movwf	fsr0
  1718  0403  1383               	bcf	status, 7	;select IRP bank0
  1719  0404  1400               	bsf	indf,0
  1720                           	line	27
  1721                           	
  1722  0405                     l15857:	
  1723                           ;CDS_B1.c: 27: setLED(cds,1);
  1724  0405  01D8               	clrf	(?_setLED)
  1725  0406  1403               	bsf	status,0
  1726  0407  0DD8               	rlf	(?_setLED),f
  1727  0408  085A               	movf	(setCDS_Initialization@cds),w
  1728  0409  118A  20AF  118A   	fcall	_setLED
  1729                           	line	28
  1730                           	
  1731  040C                     l15859:	
  1732                           ;CDS_B1.c: 28: setLED(cds+1,0);
  1733  040C  1283               	bcf	status, 5	;RP0=0, select bank0
  1734  040D  1303               	bcf	status, 6	;RP1=0, select bank0
  1735  040E  01D8               	clrf	(?_setLED)
  1736  040F  085A               	movf	(setCDS_Initialization@cds),w
  1737  0410  3E01               	addlw	01h
  1738  0411  118A  20AF  118A   	fcall	_setLED
  1739                           	line	29
  1740                           	
  1741  0414                     l11865:	
  1742  0414  0008               	return
  1743                           	opt stack 0
  1744                           GLOBAL	__end_of_setCDS_Initialization
  1745  0415                     	__end_of_setCDS_Initialization:
  1746 ;; =============== function _setCDS_Initialization ends ============
  1747                           
  1748                           	signat	_setCDS_Initialization,4216
  1749                           	global	_setLights_Main
  1750                           psect	text1092,local,class=CODE,delta=2
  1751                           global __ptext1092
  1752  0309                     __ptext1092:
  1753                           
  1754 ;; *************** function _setLights_Main *****************
  1755 ;; Defined at:
  1756 ;;		line 79 in file "G:\Program\PIC\Source_File\TriacRelay_B1.c"
  1757 ;; Parameters:    Size  Location     Type
  1758 ;;  lights          1    wreg     unsigned char 
  1759 ;; Auto vars:     Size  Location     Type
  1760 ;;  lights          1    7[BANK0 ] unsigned char 
  1761 ;;  close           1    6[BANK0 ] unsigned char 
  1762 ;;  open            1    5[BANK0 ] unsigned char 
  1763 ;; Return value:  Size  Location     Type
  1764 ;;		None               void
  1765 ;; Registers used:
  1766 ;;		wreg, fsr0l, fsr0h, status,2, status,0, pclath, cstack
  1767 ;; Tracked objects:
  1768 ;;		On entry : 0/0
  1769 ;;		On exit  : 0/0
  1770 ;;		Unchanged: 0/0
  1771 ;; Data sizes:     COMMON   BANK0   BANK1   BANK2
  1772 ;;      Params:         0       0       0       0
  1773 ;;      Locals:         0       3       0       0
  1774 ;;      Temps:          0       0       0       0
  1775 ;;      Totals:         0       3       0       0
  1776 ;;Total ram usage:        3 bytes
  1777 ;; Hardware stack levels used:    1
  1778 ;; Hardware stack levels required when called:    4
  1779 ;; This function calls:
  1780 ;;		_LightsPointSelect
  1781 ;;		_setLights
  1782 ;; This function is called by:
  1783 ;;		_Lights_Main
  1784 ;; This function uses a non-reentrant model
  1785 ;;
  1786                           psect	text1092
  1787                           	file	"G:\Program\PIC\Source_File\TriacRelay_B1.c"
  1788                           	line	79
  1789                           	global	__size_of_setLights_Main
  1790  004B                     	__size_of_setLights_Main	equ	__end_of_setLights_Main-_setLights_Main
  1791                           	
  1792  0309                     _setLights_Main:	
  1793                           	opt	stack 2
  1794                           ; Regs used in _setLights_Main: [wreg-fsr0h+status,2+status,0+pclath+cstack]
  1795                           ;setLights_Main@lights stored from wreg
  1796  0309  1283               	bcf	status, 5	;RP0=0, select bank0
  1797  030A  1303               	bcf	status, 6	;RP1=0, select bank0
  1798  030B  00DD               	movwf	(setLights_Main@lights)
  1799                           	line	80
  1800                           	
  1801  030C                     l15833:	
  1802                           ;TriacRelay_B1.c: 80: char open=1,close=1;
  1803  030C  01DB               	clrf	(setLights_Main@open)
  1804  030D  1403               	bsf	status,0
  1805  030E  0DDB               	rlf	(setLights_Main@open),f
  1806  030F  01DC               	clrf	(setLights_Main@close)
  1807  0310  1403               	bsf	status,0
  1808  0311  0DDC               	rlf	(setLights_Main@close),f
  1809                           	line	81
  1810                           	
  1811  0312                     l15835:	
  1812                           ;TriacRelay_B1.c: 81: LightsPointSelect(lights);
  1813  0312  085D               	movf	(setLights_Main@lights),w
  1814  0313  118A  24DF  118A   	fcall	_LightsPointSelect
  1815                           	line	82
  1816                           	
  1817  0316                     l15837:	
  1818                           ;TriacRelay_B1.c: 82: if(Lights->Trigger)
  1819  0316  1283               	bcf	status, 5	;RP0=0, select bank0
  1820  0317  1303               	bcf	status, 6	;RP1=0, select bank0
  1821  0318  0822               	movf	(_Lights),w
  1822  0319  0084               	movwf	fsr0
  1823  031A  1383               	bcf	status, 7	;select IRP bank0
  1824  031B  1E80               	btfss	indf,5
  1825  031C  2B1E               	goto	u3831
  1826  031D  2B1F               	goto	u3830
  1827  031E                     u3831:
  1828  031E  2B53               	goto	l10973
  1829  031F                     u3830:
  1830                           	line	125
  1831                           	
  1832  031F                     l15839:	
  1833                           ;TriacRelay_B1.c: 83: {
  1834                           ;TriacRelay_B1.c: 125: if(open)
  1835  031F  085B               	movf	(setLights_Main@open),w
  1836  0320  1D03               	skipz
  1837  0321  2B23               	goto	u3840
  1838  0322  2B53               	goto	l10973
  1839  0323                     u3840:
  1840                           	line	127
  1841                           	
  1842  0323                     l15841:	
  1843                           ;TriacRelay_B1.c: 126: {
  1844                           ;TriacRelay_B1.c: 127: if(Lights->Switch)
  1845  0323  0822               	movf	(_Lights),w
  1846  0324  0084               	movwf	fsr0
  1847  0325  1F00               	btfss	indf,6
  1848  0326  2B28               	goto	u3851
  1849  0327  2B29               	goto	u3850
  1850  0328                     u3851:
  1851  0328  2B3F               	goto	l15849
  1852  0329                     u3850:
  1853                           	line	170
  1854                           	
  1855  0329                     l15843:	
  1856                           ;TriacRelay_B1.c: 128: {
  1857                           ;TriacRelay_B1.c: 170: if(close)
  1858  0329  085C               	movf	(setLights_Main@close),w
  1859  032A  1D03               	skipz
  1860  032B  2B2D               	goto	u3860
  1861  032C  2B53               	goto	l10973
  1862  032D                     u3860:
  1863                           	line	172
  1864                           	
  1865  032D                     l15845:	
  1866                           ;TriacRelay_B1.c: 171: {
  1867                           ;TriacRelay_B1.c: 172: Lights->Trigger=0;
  1868  032D  0822               	movf	(_Lights),w
  1869  032E  0084               	movwf	fsr0
  1870  032F  1280               	bcf	indf,5
  1871                           	line	173
  1872                           ;TriacRelay_B1.c: 173: Lights->Open=0;
  1873  0330  0822               	movf	(_Lights),w
  1874  0331  0084               	movwf	fsr0
  1875  0332  1180               	bcf	indf,3
  1876                           	line	174
  1877                           ;TriacRelay_B1.c: 174: Lights->Close=1;
  1878  0333  0822               	movf	(_Lights),w
  1879  0334  0084               	movwf	fsr0
  1880  0335  1600               	bsf	indf,4
  1881                           	line	175
  1882                           	
  1883  0336                     l15847:	
  1884                           ;TriacRelay_B1.c: 175: setLights(lights,1);
  1885  0336  01D8               	clrf	(?_setLights)
  1886  0337  1403               	bsf	status,0
  1887  0338  0DD8               	rlf	(?_setLights),f
  1888  0339  085D               	movf	(setLights_Main@lights),w
  1889  033A  118A  2354  118A   	fcall	_setLights
  1890  033D  2B53               	goto	l10973
  1891                           	line	176
  1892                           	
  1893  033E                     l10971:	
  1894                           	line	177
  1895                           ;TriacRelay_B1.c: 176: }
  1896                           ;TriacRelay_B1.c: 177: }
  1897  033E  2B53               	goto	l10973
  1898                           	line	178
  1899                           	
  1900  033F                     l10970:	
  1901                           	line	180
  1902                           	
  1903  033F                     l15849:	
  1904                           ;TriacRelay_B1.c: 178: else
  1905                           ;TriacRelay_B1.c: 179: {
  1906                           ;TriacRelay_B1.c: 180: Lights->Trigger=0;
  1907  033F  1283               	bcf	status, 5	;RP0=0, select bank0
  1908  0340  1303               	bcf	status, 6	;RP1=0, select bank0
  1909  0341  0822               	movf	(_Lights),w
  1910  0342  0084               	movwf	fsr0
  1911  0343  1383               	bcf	status, 7	;select IRP bank0
  1912  0344  1280               	bcf	indf,5
  1913                           	line	181
  1914                           ;TriacRelay_B1.c: 181: Lights->Open=1;
  1915  0345  0822               	movf	(_Lights),w
  1916  0346  0084               	movwf	fsr0
  1917  0347  1580               	bsf	indf,3
  1918                           	line	182
  1919                           ;TriacRelay_B1.c: 182: Lights->Close=0;
  1920  0348  0822               	movf	(_Lights),w
  1921  0349  0084               	movwf	fsr0
  1922  034A  1200               	bcf	indf,4
  1923                           	line	183
  1924                           	
  1925  034B                     l15851:	
  1926                           ;TriacRelay_B1.c: 183: setLights(lights,0);
  1927  034B  01D8               	clrf	(?_setLights)
  1928  034C  085D               	movf	(setLights_Main@lights),w
  1929  034D  118A  2354  118A   	fcall	_setLights
  1930  0350  2B53               	goto	l10973
  1931                           	line	184
  1932                           	
  1933  0351                     l10972:	
  1934  0351  2B53               	goto	l10973
  1935                           	line	185
  1936                           	
  1937  0352                     l10969:	
  1938  0352  2B53               	goto	l10973
  1939                           	line	186
  1940                           	
  1941  0353                     l10968:	
  1942                           	line	187
  1943                           	
  1944  0353                     l10973:	
  1945  0353  0008               	return
  1946                           	opt stack 0
  1947                           GLOBAL	__end_of_setLights_Main
  1948  0354                     	__end_of_setLights_Main:
  1949 ;; =============== function _setLights_Main ends ============
  1950                           
  1951                           	signat	_setLights_Main,4216
  1952                           	global	_Lights_Initialization
  1953                           psect	text1093,local,class=CODE,delta=2
  1954                           global __ptext1093
  1955  0538                     __ptext1093:
  1956                           
  1957 ;; *************** function _Lights_Initialization *****************
  1958 ;; Defined at:
  1959 ;;		line 33 in file "G:\Program\PIC\Source_File\TriacRelay_B1.c"
  1960 ;; Parameters:    Size  Location     Type
  1961 ;;		None
  1962 ;; Auto vars:     Size  Location     Type
  1963 ;;		None
  1964 ;; Return value:  Size  Location     Type
  1965 ;;		None               void
  1966 ;; Registers used:
  1967 ;;		wreg, fsr0l, fsr0h, status,2, status,0, pclath, cstack
  1968 ;; Tracked objects:
  1969 ;;		On entry : 0/0
  1970 ;;		On exit  : 0/0
  1971 ;;		Unchanged: 0/0
  1972 ;; Data sizes:     COMMON   BANK0   BANK1   BANK2
  1973 ;;      Params:         0       0       0       0
  1974 ;;      Locals:         0       0       0       0
  1975 ;;      Temps:          0       0       0       0
  1976 ;;      Totals:         0       0       0       0
  1977 ;;Total ram usage:        0 bytes
  1978 ;; Hardware stack levels used:    1
  1979 ;; Hardware stack levels required when called:    4
  1980 ;; This function calls:
  1981 ;;		_setLights_Initialization
  1982 ;; This function is called by:
  1983 ;;		_main
  1984 ;; This function uses a non-reentrant model
  1985 ;;
  1986                           psect	text1093
  1987                           	file	"G:\Program\PIC\Source_File\TriacRelay_B1.c"
  1988                           	line	33
  1989                           	global	__size_of_Lights_Initialization
  1990  0005                     	__size_of_Lights_Initialization	equ	__end_of_Lights_Initialization-_Lights_Initializati
                                 on
  1991                           	
  1992  0538                     _Lights_Initialization:	
  1993                           	opt	stack 3
  1994                           ; Regs used in _Lights_Initialization: [wreg-fsr0h+status,2+status,0+pclath+cstack]
  1995                           	line	35
  1996                           	
  1997  0538                     l15831:	
  1998                           ;TriacRelay_B1.c: 35: setLights_Initialization(1);
  1999  0538  3001               	movlw	(01h)
  2000  0539  118A  249F  118A   	fcall	_setLights_Initialization
  2001                           	line	45
  2002                           	
  2003  053C                     l10959:	
  2004  053C  0008               	return
  2005                           	opt stack 0
  2006                           GLOBAL	__end_of_Lights_Initialization
  2007  053D                     	__end_of_Lights_Initialization:
  2008 ;; =============== function _Lights_Initialization ends ============
  2009                           
  2010                           	signat	_Lights_Initialization,88
  2011                           	global	_LED_Main
  2012                           psect	text1094,local,class=CODE,delta=2
  2013                           global __ptext1094
  2014  0509                     __ptext1094:
  2015                           
  2016 ;; *************** function _LED_Main *****************
  2017 ;; Defined at:
  2018 ;;		line 52 in file "G:\Program\PIC\Source_File\LED_B1.c"
  2019 ;; Parameters:    Size  Location     Type
  2020 ;;		None
  2021 ;; Auto vars:     Size  Location     Type
  2022 ;;		None
  2023 ;; Return value:  Size  Location     Type
  2024 ;;		None               void
  2025 ;; Registers used:
  2026 ;;		wreg, fsr0l, fsr0h, status,2, status,0, pclath, cstack
  2027 ;; Tracked objects:
  2028 ;;		On entry : 0/0
  2029 ;;		On exit  : 0/0
  2030 ;;		Unchanged: 0/0
  2031 ;; Data sizes:     COMMON   BANK0   BANK1   BANK2
  2032 ;;      Params:         0       0       0       0
  2033 ;;      Locals:         0       0       0       0
  2034 ;;      Temps:          0       0       0       0
  2035 ;;      Totals:         0       0       0       0
  2036 ;;Total ram usage:        0 bytes
  2037 ;; Hardware stack levels used:    1
  2038 ;; Hardware stack levels required when called:    4
  2039 ;; This function calls:
  2040 ;;		_setLED_Main
  2041 ;; This function is called by:
  2042 ;;		_main
  2043 ;; This function uses a non-reentrant model
  2044 ;;
  2045                           psect	text1094
  2046                           	file	"G:\Program\PIC\Source_File\LED_B1.c"
  2047                           	line	52
  2048                           	global	__size_of_LED_Main
  2049  000D                     	__size_of_LED_Main	equ	__end_of_LED_Main-_LED_Main
  2050                           	
  2051  0509                     _LED_Main:	
  2052                           	opt	stack 3
  2053                           ; Regs used in _LED_Main: [wreg-fsr0h+status,2+status,0+pclath+cstack]
  2054                           	line	54
  2055                           	
  2056  0509                     l15829:	
  2057                           ;LED_B1.c: 54: setLED_Main(1);
  2058  0509  3001               	movlw	(01h)
  2059  050A  118A  2268  118A   	fcall	_setLED_Main
  2060                           	line	57
  2061                           ;LED_B1.c: 57: setLED_Main(2);
  2062  050D  3002               	movlw	(02h)
  2063  050E  118A  2268  118A   	fcall	_setLED_Main
  2064                           	line	63
  2065                           ;LED_B1.c: 63: setLED_Main(99);
  2066  0511  3063               	movlw	(063h)
  2067  0512  118A  2268  118A   	fcall	_setLED_Main
  2068                           	line	65
  2069                           	
  2070  0515                     l4170:	
  2071  0515  0008               	return
  2072                           	opt stack 0
  2073                           GLOBAL	__end_of_LED_Main
  2074  0516                     	__end_of_LED_Main:
  2075 ;; =============== function _LED_Main ends ============
  2076                           
  2077                           	signat	_LED_Main,88
  2078                           	global	_setLED_Initialization
  2079                           psect	text1095,local,class=CODE,delta=2
  2080                           global __ptext1095
  2081  0458                     __ptext1095:
  2082                           
  2083 ;; *************** function _setLED_Initialization *****************
  2084 ;; Defined at:
  2085 ;;		line 68 in file "G:\Program\PIC\Source_File\LED_B1.c"
  2086 ;; Parameters:    Size  Location     Type
  2087 ;;  led             1    wreg     unsigned char 
  2088 ;; Auto vars:     Size  Location     Type
  2089 ;;  led             1    4[BANK0 ] unsigned char 
  2090 ;; Return value:  Size  Location     Type
  2091 ;;		None               void
  2092 ;; Registers used:
  2093 ;;		wreg, fsr0l, fsr0h, status,2, status,0, pclath, cstack
  2094 ;; Tracked objects:
  2095 ;;		On entry : 0/0
  2096 ;;		On exit  : 0/0
  2097 ;;		Unchanged: 0/0
  2098 ;; Data sizes:     COMMON   BANK0   BANK1   BANK2
  2099 ;;      Params:         0       0       0       0
  2100 ;;      Locals:         0       1       0       0
  2101 ;;      Temps:          0       0       0       0
  2102 ;;      Totals:         0       1       0       0
  2103 ;;Total ram usage:        1 bytes
  2104 ;; Hardware stack levels used:    1
  2105 ;; Hardware stack levels required when called:    4
  2106 ;; This function calls:
  2107 ;;		_LedPointSelect
  2108 ;;		_setLED
  2109 ;; This function is called by:
  2110 ;;		_LED_Initialization
  2111 ;; This function uses a non-reentrant model
  2112 ;;
  2113                           psect	text1095
  2114                           	file	"G:\Program\PIC\Source_File\LED_B1.c"
  2115                           	line	68
  2116                           	global	__size_of_setLED_Initialization
  2117  0013                     	__size_of_setLED_Initialization	equ	__end_of_setLED_Initialization-_setLED_Initializati
                                 on
  2118                           	
  2119  0458                     _setLED_Initialization:	
  2120                           	opt	stack 2
  2121                           ; Regs used in _setLED_Initialization: [wreg-fsr0h+status,2+status,0+pclath+cstack]
  2122                           ;setLED_Initialization@led stored from wreg
  2123  0458  1283               	bcf	status, 5	;RP0=0, select bank0
  2124  0459  1303               	bcf	status, 6	;RP1=0, select bank0
  2125  045A  00DA               	movwf	(setLED_Initialization@led)
  2126                           	line	69
  2127                           	
  2128  045B                     l15823:	
  2129                           ;LED_B1.c: 69: LedPointSelect(led);
  2130  045B  085A               	movf	(setLED_Initialization@led),w
  2131  045C  118A  23D1  118A   	fcall	_LedPointSelect
  2132                           	line	70
  2133                           	
  2134  045F                     l15825:	
  2135                           ;LED_B1.c: 70: LED->Enable=1;
  2136  045F  1283               	bcf	status, 5	;RP0=0, select bank0
  2137  0460  1303               	bcf	status, 6	;RP1=0, select bank0
  2138  0461  0821               	movf	(_LED),w
  2139  0462  0084               	movwf	fsr0
  2140  0463  1383               	bcf	status, 7	;select IRP bank0
  2141  0464  1400               	bsf	indf,0
  2142                           	line	71
  2143                           	
  2144  0465                     l15827:	
  2145                           ;LED_B1.c: 71: setLED(led,0);
  2146  0465  01D8               	clrf	(?_setLED)
  2147  0466  085A               	movf	(setLED_Initialization@led),w
  2148  0467  118A  20AF  118A   	fcall	_setLED
  2149                           	line	72
  2150                           	
  2151  046A                     l4173:	
  2152  046A  0008               	return
  2153                           	opt stack 0
  2154                           GLOBAL	__end_of_setLED_Initialization
  2155  046B                     	__end_of_setLED_Initialization:
  2156 ;; =============== function _setLED_Initialization ends ============
  2157                           
  2158                           	signat	_setLED_Initialization,4216
  2159                           	global	_setLights_Switch
  2160                           psect	text1096,local,class=CODE,delta=2
  2161                           global __ptext1096
  2162  047D                     __ptext1096:
  2163                           
  2164 ;; *************** function _setLights_Switch *****************
  2165 ;; Defined at:
  2166 ;;		line 194 in file "G:\Program\PIC\Source_File\TriacRelay_B1.c"
  2167 ;; Parameters:    Size  Location     Type
  2168 ;;  lights          1    wreg     unsigned char 
  2169 ;;  command         1    2[BANK0 ] unsigned char 
  2170 ;; Auto vars:     Size  Location     Type
  2171 ;;  lights          1    3[BANK0 ] unsigned char 
  2172 ;; Return value:  Size  Location     Type
  2173 ;;		None               void
  2174 ;; Registers used:
  2175 ;;		wreg, fsr0l, fsr0h, status,2, status,0, pclath, cstack
  2176 ;; Tracked objects:
  2177 ;;		On entry : 0/0
  2178 ;;		On exit  : 0/0
  2179 ;;		Unchanged: 0/0
  2180 ;; Data sizes:     COMMON   BANK0   BANK1   BANK2
  2181 ;;      Params:         0       1       0       0
  2182 ;;      Locals:         0       1       0       0
  2183 ;;      Temps:          0       0       0       0
  2184 ;;      Totals:         0       2       0       0
  2185 ;;Total ram usage:        2 bytes
  2186 ;; Hardware stack levels used:    1
  2187 ;; Hardware stack levels required when called:    3
  2188 ;; This function calls:
  2189 ;;		_LightsPointSelect
  2190 ;; This function is called by:
  2191 ;;		_setCDS_Main
  2192 ;; This function uses a non-reentrant model
  2193 ;;
  2194                           psect	text1096
  2195                           	file	"G:\Program\PIC\Source_File\TriacRelay_B1.c"
  2196                           	line	194
  2197                           	global	__size_of_setLights_Switch
  2198  0011                     	__size_of_setLights_Switch	equ	__end_of_setLights_Switch-_setLights_Switch
  2199                           	
  2200  047D                     _setLights_Switch:	
  2201                           	opt	stack 2
  2202                           ; Regs used in _setLights_Switch: [wreg-fsr0h+status,2+status,0+pclath+cstack]
  2203                           ;setLights_Switch@lights stored from wreg
  2204  047D  1283               	bcf	status, 5	;RP0=0, select bank0
  2205  047E  1303               	bcf	status, 6	;RP1=0, select bank0
  2206  047F  00D9               	movwf	(setLights_Switch@lights)
  2207                           	line	195
  2208                           	
  2209  0480                     l15819:	
  2210                           ;TriacRelay_B1.c: 195: LightsPointSelect(lights);
  2211  0480  0859               	movf	(setLights_Switch@lights),w
  2212  0481  118A  24DF  118A   	fcall	_LightsPointSelect
  2213                           	line	196
  2214                           	
  2215  0484                     l15821:	
  2216                           ;TriacRelay_B1.c: 196: Lights->Switch=command;
  2217  0484  1283               	bcf	status, 5	;RP0=0, select bank0
  2218  0485  1303               	bcf	status, 6	;RP1=0, select bank0
  2219  0486  0822               	movf	(_Lights),w
  2220  0487  0084               	movwf	fsr0
  2221  0488  0858               	movf	(setLights_Switch@command),w
  2222  0489  1383               	bcf	status, 7	;select IRP bank0
  2223  048A  1300               	bcf	indf,6
  2224  048B  1D03               	skipz
  2225  048C  1700               	bsf	indf,6
  2226                           	line	197
  2227                           	
  2228  048D                     l10979:	
  2229  048D  0008               	return
  2230                           	opt stack 0
  2231                           GLOBAL	__end_of_setLights_Switch
  2232  048E                     	__end_of_setLights_Switch:
  2233 ;; =============== function _setLights_Switch ends ============
  2234                           
  2235                           	signat	_setLights_Switch,8312
  2236                           	global	_setLights_Trigger
  2237                           psect	text1097,local,class=CODE,delta=2
  2238                           global __ptext1097
  2239  048E                     __ptext1097:
  2240                           
  2241 ;; *************** function _setLights_Trigger *****************
  2242 ;; Defined at:
  2243 ;;		line 189 in file "G:\Program\PIC\Source_File\TriacRelay_B1.c"
  2244 ;; Parameters:    Size  Location     Type
  2245 ;;  lights          1    wreg     unsigned char 
  2246 ;;  command         1    2[BANK0 ] unsigned char 
  2247 ;; Auto vars:     Size  Location     Type
  2248 ;;  lights          1    3[BANK0 ] unsigned char 
  2249 ;; Return value:  Size  Location     Type
  2250 ;;		None               void
  2251 ;; Registers used:
  2252 ;;		wreg, fsr0l, fsr0h, status,2, status,0, pclath, cstack
  2253 ;; Tracked objects:
  2254 ;;		On entry : 0/0
  2255 ;;		On exit  : 0/0
  2256 ;;		Unchanged: 0/0
  2257 ;; Data sizes:     COMMON   BANK0   BANK1   BANK2
  2258 ;;      Params:         0       1       0       0
  2259 ;;      Locals:         0       1       0       0
  2260 ;;      Temps:          0       0       0       0
  2261 ;;      Totals:         0       2       0       0
  2262 ;;Total ram usage:        2 bytes
  2263 ;; Hardware stack levels used:    1
  2264 ;; Hardware stack levels required when called:    3
  2265 ;; This function calls:
  2266 ;;		_LightsPointSelect
  2267 ;; This function is called by:
  2268 ;;		_setCDS_Main
  2269 ;; This function uses a non-reentrant model
  2270 ;;
  2271                           psect	text1097
  2272                           	file	"G:\Program\PIC\Source_File\TriacRelay_B1.c"
  2273                           	line	189
  2274                           	global	__size_of_setLights_Trigger
  2275  0011                     	__size_of_setLights_Trigger	equ	__end_of_setLights_Trigger-_setLights_Trigger
  2276                           	
  2277  048E                     _setLights_Trigger:	
  2278                           	opt	stack 2
  2279                           ; Regs used in _setLights_Trigger: [wreg-fsr0h+status,2+status,0+pclath+cstack]
  2280                           ;setLights_Trigger@lights stored from wreg
  2281  048E  1283               	bcf	status, 5	;RP0=0, select bank0
  2282  048F  1303               	bcf	status, 6	;RP1=0, select bank0
  2283  0490  00D9               	movwf	(setLights_Trigger@lights)
  2284                           	line	190
  2285                           	
  2286  0491                     l15815:	
  2287                           ;TriacRelay_B1.c: 190: LightsPointSelect(lights);
  2288  0491  0859               	movf	(setLights_Trigger@lights),w
  2289  0492  118A  24DF  118A   	fcall	_LightsPointSelect
  2290                           	line	191
  2291                           	
  2292  0495                     l15817:	
  2293                           ;TriacRelay_B1.c: 191: Lights->Trigger=command;
  2294  0495  1283               	bcf	status, 5	;RP0=0, select bank0
  2295  0496  1303               	bcf	status, 6	;RP1=0, select bank0
  2296  0497  0822               	movf	(_Lights),w
  2297  0498  0084               	movwf	fsr0
  2298  0499  0858               	movf	(setLights_Trigger@command),w
  2299  049A  1383               	bcf	status, 7	;select IRP bank0
  2300  049B  1280               	bcf	indf,5
  2301  049C  1D03               	skipz
  2302  049D  1680               	bsf	indf,5
  2303                           	line	192
  2304                           	
  2305  049E                     l10976:	
  2306  049E  0008               	return
  2307                           	opt stack 0
  2308                           GLOBAL	__end_of_setLights_Trigger
  2309  049F                     	__end_of_setLights_Trigger:
  2310 ;; =============== function _setLights_Trigger ends ============
  2311                           
  2312                           	signat	_setLights_Trigger,8312
  2313                           	global	_setLights
  2314                           psect	text1098,local,class=CODE,delta=2
  2315                           global __ptext1098
  2316  0354                     __ptext1098:
  2317                           
  2318 ;; *************** function _setLights *****************
  2319 ;; Defined at:
  2320 ;;		line 220 in file "G:\Program\PIC\Source_File\TriacRelay_B1.c"
  2321 ;; Parameters:    Size  Location     Type
  2322 ;;  lights          1    wreg     unsigned char 
  2323 ;;  command         1    2[BANK0 ] unsigned char 
  2324 ;; Auto vars:     Size  Location     Type
  2325 ;;  lights          1    4[BANK0 ] unsigned char 
  2326 ;; Return value:  Size  Location     Type
  2327 ;;		None               void
  2328 ;; Registers used:
  2329 ;;		wreg, fsr0l, fsr0h, status,2, status,0, pclath, cstack
  2330 ;; Tracked objects:
  2331 ;;		On entry : 0/0
  2332 ;;		On exit  : 0/0
  2333 ;;		Unchanged: 0/0
  2334 ;; Data sizes:     COMMON   BANK0   BANK1   BANK2
  2335 ;;      Params:         0       1       0       0
  2336 ;;      Locals:         0       1       0       0
  2337 ;;      Temps:          0       1       0       0
  2338 ;;      Totals:         0       3       0       0
  2339 ;;Total ram usage:        3 bytes
  2340 ;; Hardware stack levels used:    1
  2341 ;; Hardware stack levels required when called:    3
  2342 ;; This function calls:
  2343 ;;		_LightsPointSelect
  2344 ;; This function is called by:
  2345 ;;		_setLights_Main
  2346 ;; This function uses a non-reentrant model
  2347 ;;
  2348                           psect	text1098
  2349                           	file	"G:\Program\PIC\Source_File\TriacRelay_B1.c"
  2350                           	line	220
  2351                           	global	__size_of_setLights
  2352  004A                     	__size_of_setLights	equ	__end_of_setLights-_setLights
  2353                           	
  2354  0354                     _setLights:	
  2355                           	opt	stack 2
  2356                           ; Regs used in _setLights: [wreg-fsr0h+status,2+status,0+pclath+cstack]
  2357                           ;setLights@lights stored from wreg
  2358  0354  1283               	bcf	status, 5	;RP0=0, select bank0
  2359  0355  1303               	bcf	status, 6	;RP1=0, select bank0
  2360  0356  00DA               	movwf	(setLights@lights)
  2361                           	line	221
  2362                           	
  2363  0357                     l15795:	
  2364                           ;TriacRelay_B1.c: 221: LightsPointSelect(lights);
  2365  0357  085A               	movf	(setLights@lights),w
  2366  0358  118A  24DF  118A   	fcall	_LightsPointSelect
  2367                           	line	223
  2368                           	
  2369  035B                     l15797:	
  2370                           ;TriacRelay_B1.c: 223: Lights->GO=1;
  2371  035B  1283               	bcf	status, 5	;RP0=0, select bank0
  2372  035C  1303               	bcf	status, 6	;RP1=0, select bank0
  2373  035D  0822               	movf	(_Lights),w
  2374  035E  0084               	movwf	fsr0
  2375  035F  1383               	bcf	status, 7	;select IRP bank0
  2376  0360  1480               	bsf	indf,1
  2377                           	line	224
  2378                           	
  2379  0361                     l15799:	
  2380                           ;TriacRelay_B1.c: 224: Lights->RelaySet=0;
  2381  0361  0822               	movf	(_Lights),w
  2382  0362  3E07               	addlw	07h
  2383  0363  0084               	movwf	fsr0
  2384  0364  1000               	bcf	indf,0
  2385                           	line	225
  2386                           	
  2387  0365                     l15801:	
  2388                           ;TriacRelay_B1.c: 225: if(command)
  2389  0365  0858               	movf	(setLights@command),w
  2390  0366  1D03               	skipz
  2391  0367  2B69               	goto	u3800
  2392  0368  2B83               	goto	l15809
  2393  0369                     u3800:
  2394                           	line	227
  2395                           	
  2396  0369                     l15803:	
  2397                           ;TriacRelay_B1.c: 226: {
  2398                           ;TriacRelay_B1.c: 227: Lights->Status=1;
  2399  0369  0822               	movf	(_Lights),w
  2400  036A  0084               	movwf	fsr0
  2401  036B  1500               	bsf	indf,2
  2402                           	line	228
  2403                           ;TriacRelay_B1.c: 228: Lights->TriacValue=13;
  2404  036C  300D               	movlw	(0Dh)
  2405  036D  00D9               	movwf	(??_setLights+0)+0
  2406  036E  0822               	movf	(_Lights),w
  2407  036F  3E04               	addlw	04h
  2408  0370  0084               	movwf	fsr0
  2409  0371  0859               	movf	(??_setLights+0)+0,w
  2410  0372  0080               	movwf	indf
  2411                           	line	229
  2412                           ;TriacRelay_B1.c: 229: Lights->RelayValue=10;
  2413  0373  300A               	movlw	(0Ah)
  2414  0374  00D9               	movwf	(??_setLights+0)+0
  2415  0375  0822               	movf	(_Lights),w
  2416  0376  3E06               	addlw	06h
  2417  0377  0084               	movwf	fsr0
  2418  0378  0859               	movf	(??_setLights+0)+0,w
  2419  0379  0080               	movwf	indf
  2420                           	line	232
  2421                           	
  2422  037A                     l15805:	
  2423                           ;TriacRelay_B1.c: 232: if(lights == 1)
  2424  037A  085A               	movf	(setLights@lights),w
  2425  037B  3A01               	xorlw	01h
  2426  037C  1D03               	skipz
  2427  037D  2B7F               	goto	u3811
  2428  037E  2B80               	goto	u3810
  2429  037F                     u3811:
  2430  037F  2B9D               	goto	l10998
  2431  0380                     u3810:
  2432                           	line	234
  2433                           	
  2434  0380                     l15807:	
  2435                           ;TriacRelay_B1.c: 233: {
  2436                           ;TriacRelay_B1.c: 234: RB2=1;
  2437  0380  1506               	bsf	(50/8),(50)&7
  2438  0381  2B9D               	goto	l10998
  2439                           	line	235
  2440                           	
  2441  0382                     l10995:	
  2442                           	line	251
  2443                           ;TriacRelay_B1.c: 235: }
  2444                           ;TriacRelay_B1.c: 251: }
  2445  0382  2B9D               	goto	l10998
  2446                           	line	252
  2447                           	
  2448  0383                     l10994:	
  2449                           	line	254
  2450                           	
  2451  0383                     l15809:	
  2452                           ;TriacRelay_B1.c: 252: else
  2453                           ;TriacRelay_B1.c: 253: {
  2454                           ;TriacRelay_B1.c: 254: Lights->Status=0;
  2455  0383  0822               	movf	(_Lights),w
  2456  0384  0084               	movwf	fsr0
  2457  0385  1100               	bcf	indf,2
  2458                           	line	255
  2459                           ;TriacRelay_B1.c: 255: Lights->TriacValue=5;
  2460  0386  3005               	movlw	(05h)
  2461  0387  00D9               	movwf	(??_setLights+0)+0
  2462  0388  0822               	movf	(_Lights),w
  2463  0389  3E04               	addlw	04h
  2464  038A  0084               	movwf	fsr0
  2465  038B  0859               	movf	(??_setLights+0)+0,w
  2466  038C  0080               	movwf	indf
  2467                           	line	256
  2468                           ;TriacRelay_B1.c: 256: Lights->RelayValue=2;
  2469  038D  3002               	movlw	(02h)
  2470  038E  00D9               	movwf	(??_setLights+0)+0
  2471  038F  0822               	movf	(_Lights),w
  2472  0390  3E06               	addlw	06h
  2473  0391  0084               	movwf	fsr0
  2474  0392  0859               	movf	(??_setLights+0)+0,w
  2475  0393  0080               	movwf	indf
  2476                           	line	258
  2477                           	
  2478  0394                     l15811:	
  2479                           ;TriacRelay_B1.c: 258: if(lights == 1)
  2480  0394  085A               	movf	(setLights@lights),w
  2481  0395  3A01               	xorlw	01h
  2482  0396  1D03               	skipz
  2483  0397  2B99               	goto	u3821
  2484  0398  2B9A               	goto	u3820
  2485  0399                     u3821:
  2486  0399  2B9D               	goto	l10998
  2487  039A                     u3820:
  2488                           	line	260
  2489                           	
  2490  039A                     l15813:	
  2491                           ;TriacRelay_B1.c: 259: {
  2492                           ;TriacRelay_B1.c: 260: RB2=1;
  2493  039A  1506               	bsf	(50/8),(50)&7
  2494  039B  2B9D               	goto	l10998
  2495                           	line	261
  2496                           	
  2497  039C                     l10997:	
  2498  039C  2B9D               	goto	l10998
  2499                           	line	277
  2500                           	
  2501  039D                     l10996:	
  2502                           	line	287
  2503                           	
  2504  039D                     l10998:	
  2505  039D  0008               	return
  2506                           	opt stack 0
  2507                           GLOBAL	__end_of_setLights
  2508  039E                     	__end_of_setLights:
  2509 ;; =============== function _setLights ends ============
  2510                           
  2511                           	signat	_setLights,8312
  2512                           	global	_Lights_Control
  2513                           psect	text1099,local,class=CODE,delta=2
  2514                           global __ptext1099
  2515  0135                     __ptext1099:
  2516                           
  2517 ;; *************** function _Lights_Control *****************
  2518 ;; Defined at:
  2519 ;;		line 289 in file "G:\Program\PIC\Source_File\TriacRelay_B1.c"
  2520 ;; Parameters:    Size  Location     Type
  2521 ;;  lights          1    wreg     unsigned char 
  2522 ;; Auto vars:     Size  Location     Type
  2523 ;;  lights          1    4[BANK0 ] unsigned char 
  2524 ;; Return value:  Size  Location     Type
  2525 ;;		None               void
  2526 ;; Registers used:
  2527 ;;		wreg, fsr0l, fsr0h, status,2, status,0, pclath, cstack
  2528 ;; Tracked objects:
  2529 ;;		On entry : 0/0
  2530 ;;		On exit  : 0/0
  2531 ;;		Unchanged: 0/0
  2532 ;; Data sizes:     COMMON   BANK0   BANK1   BANK2
  2533 ;;      Params:         0       0       0       0
  2534 ;;      Locals:         0       1       0       0
  2535 ;;      Temps:          0       2       0       0
  2536 ;;      Totals:         0       3       0       0
  2537 ;;Total ram usage:        3 bytes
  2538 ;; Hardware stack levels used:    1
  2539 ;; Hardware stack levels required when called:    3
  2540 ;; This function calls:
  2541 ;;		_LightsPointSelect
  2542 ;; This function is called by:
  2543 ;;		_Lights_Main
  2544 ;; This function uses a non-reentrant model
  2545 ;;
  2546                           psect	text1099
  2547                           	file	"G:\Program\PIC\Source_File\TriacRelay_B1.c"
  2548                           	line	289
  2549                           	global	__size_of_Lights_Control
  2550  006A                     	__size_of_Lights_Control	equ	__end_of_Lights_Control-_Lights_Control
  2551                           	
  2552  0135                     _Lights_Control:	
  2553                           	opt	stack 3
  2554                           ; Regs used in _Lights_Control: [wreg-fsr0h+status,2+status,0+pclath+cstack]
  2555                           ;Lights_Control@lights stored from wreg
  2556  0135  1283               	bcf	status, 5	;RP0=0, select bank0
  2557  0136  1303               	bcf	status, 6	;RP1=0, select bank0
  2558  0137  00DA               	movwf	(Lights_Control@lights)
  2559                           	line	290
  2560                           	
  2561  0138                     l15771:	
  2562                           ;TriacRelay_B1.c: 290: LightsPointSelect(lights);
  2563  0138  085A               	movf	(Lights_Control@lights),w
  2564  0139  118A  24DF  118A   	fcall	_LightsPointSelect
  2565                           	line	291
  2566                           	
  2567  013C                     l15773:	
  2568                           ;TriacRelay_B1.c: 291: if(Lights->GO)
  2569  013C  1283               	bcf	status, 5	;RP0=0, select bank0
  2570  013D  1303               	bcf	status, 6	;RP1=0, select bank0
  2571  013E  0822               	movf	(_Lights),w
  2572  013F  0084               	movwf	fsr0
  2573  0140  1383               	bcf	status, 7	;select IRP bank0
  2574  0141  1C80               	btfss	indf,1
  2575  0142  2944               	goto	u3721
  2576  0143  2945               	goto	u3720
  2577  0144                     u3721:
  2578  0144  299E               	goto	l11007
  2579  0145                     u3720:
  2580                           	line	293
  2581                           	
  2582  0145                     l15775:	
  2583                           ;TriacRelay_B1.c: 292: {
  2584                           ;TriacRelay_B1.c: 293: Lights->Time++;
  2585  0145  3001               	movlw	(01h)
  2586  0146  00D8               	movwf	(??_Lights_Control+0)+0
  2587  0147  0822               	movf	(_Lights),w
  2588  0148  3E02               	addlw	02h
  2589  0149  0084               	movwf	fsr0
  2590  014A  0858               	movf	(??_Lights_Control+0)+0,w
  2591  014B  0780               	addwf	indf,f
  2592                           	line	294
  2593                           	
  2594  014C                     l15777:	
  2595                           ;TriacRelay_B1.c: 294: if(Lights->Time >= Lights->RelayValue && !Lights->RelaySet)
  2596  014C  0822               	movf	(_Lights),w
  2597  014D  3E06               	addlw	06h
  2598  014E  0084               	movwf	fsr
  2599  014F  0800               	movf	indf,w
  2600  0150  00D8               	movwf	(??_Lights_Control+0)+0
  2601  0151  0822               	movf	(_Lights),w
  2602  0152  3E02               	addlw	02h
  2603  0153  0084               	movwf	fsr0
  2604  0154  0800               	movf	indf,w
  2605  0155  00D9               	movwf	(??_Lights_Control+1)+0
  2606  0156  0858               	movf	(??_Lights_Control+0)+0,w
  2607  0157  0259               	subwf	(??_Lights_Control+1)+0,w
  2608  0158  1C03               	skipc
  2609  0159  295B               	goto	u3731
  2610  015A  295C               	goto	u3730
  2611  015B                     u3731:
  2612  015B  297B               	goto	l15787
  2613  015C                     u3730:
  2614                           	
  2615  015C                     l15779:	
  2616  015C  0822               	movf	(_Lights),w
  2617  015D  3E07               	addlw	07h
  2618  015E  0084               	movwf	fsr0
  2619  015F  1800               	btfsc	indf,0
  2620  0160  2962               	goto	u3741
  2621  0161  2963               	goto	u3740
  2622  0162                     u3741:
  2623  0162  297B               	goto	l15787
  2624  0163                     u3740:
  2625                           	line	296
  2626                           	
  2627  0163                     l15781:	
  2628                           ;TriacRelay_B1.c: 295: {
  2629                           ;TriacRelay_B1.c: 296: Lights->RelaySet=1;
  2630  0163  0822               	movf	(_Lights),w
  2631  0164  3E07               	addlw	07h
  2632  0165  0084               	movwf	fsr0
  2633  0166  1400               	bsf	indf,0
  2634                           	line	298
  2635                           	
  2636  0167                     l15783:	
  2637                           ;TriacRelay_B1.c: 298: if(lights == 1)
  2638  0167  085A               	movf	(Lights_Control@lights),w
  2639  0168  3A01               	xorlw	01h
  2640  0169  1D03               	skipz
  2641  016A  296C               	goto	u3751
  2642  016B  296D               	goto	u3750
  2643  016C                     u3751:
  2644  016C  299E               	goto	l11007
  2645  016D                     u3750:
  2646                           	line	300
  2647                           	
  2648  016D                     l15785:	
  2649                           ;TriacRelay_B1.c: 299: {
  2650                           ;TriacRelay_B1.c: 300: RA4=Lights->Status?1:0;
  2651  016D  0822               	movf	(_Lights),w
  2652  016E  0084               	movwf	fsr0
  2653  016F  1900               	btfsc	indf,2
  2654  0170  2972               	goto	u3761
  2655  0171  2976               	goto	u3760
  2656                           	
  2657  0172                     u3761:
  2658  0172  1283               	bcf	status, 5	;RP0=0, select bank0
  2659  0173  1303               	bcf	status, 6	;RP1=0, select bank0
  2660  0174  1605               	bsf	(44/8),(44)&7
  2661  0175  2979               	goto	u3774
  2662  0176                     u3760:
  2663  0176  1283               	bcf	status, 5	;RP0=0, select bank0
  2664  0177  1303               	bcf	status, 6	;RP1=0, select bank0
  2665  0178  1205               	bcf	(44/8),(44)&7
  2666  0179                     u3774:
  2667  0179  299E               	goto	l11007
  2668                           	line	301
  2669                           	
  2670  017A                     l11003:	
  2671                           	line	317
  2672                           ;TriacRelay_B1.c: 301: }
  2673                           ;TriacRelay_B1.c: 317: }
  2674  017A  299E               	goto	l11007
  2675                           	line	318
  2676                           	
  2677  017B                     l11002:	
  2678                           	
  2679  017B                     l15787:	
  2680                           ;TriacRelay_B1.c: 318: else if(Lights->Time >= Lights->TriacValue)
  2681  017B  0822               	movf	(_Lights),w
  2682  017C  3E04               	addlw	04h
  2683  017D  0084               	movwf	fsr
  2684  017E  1383               	bcf	status, 7	;select IRP bank0
  2685  017F  0800               	movf	indf,w
  2686  0180  00D8               	movwf	(??_Lights_Control+0)+0
  2687  0181  0822               	movf	(_Lights),w
  2688  0182  3E02               	addlw	02h
  2689  0183  0084               	movwf	fsr0
  2690  0184  0800               	movf	indf,w
  2691  0185  00D9               	movwf	(??_Lights_Control+1)+0
  2692  0186  0858               	movf	(??_Lights_Control+0)+0,w
  2693  0187  0259               	subwf	(??_Lights_Control+1)+0,w
  2694  0188  1C03               	skipc
  2695  0189  298B               	goto	u3781
  2696  018A  298C               	goto	u3780
  2697  018B                     u3781:
  2698  018B  299E               	goto	l11007
  2699  018C                     u3780:
  2700                           	line	320
  2701                           	
  2702  018C                     l15789:	
  2703                           ;TriacRelay_B1.c: 319: {
  2704                           ;TriacRelay_B1.c: 320: Lights->Time=0;
  2705  018C  0822               	movf	(_Lights),w
  2706  018D  3E02               	addlw	02h
  2707  018E  0084               	movwf	fsr0
  2708  018F  0180               	clrf	indf
  2709                           	line	321
  2710                           ;TriacRelay_B1.c: 321: Lights->GO=0;
  2711  0190  0822               	movf	(_Lights),w
  2712  0191  0084               	movwf	fsr0
  2713  0192  1080               	bcf	indf,1
  2714                           	line	324
  2715                           	
  2716  0193                     l15791:	
  2717                           ;TriacRelay_B1.c: 324: if(lights == 1)
  2718  0193  085A               	movf	(Lights_Control@lights),w
  2719  0194  3A01               	xorlw	01h
  2720  0195  1D03               	skipz
  2721  0196  2998               	goto	u3791
  2722  0197  2999               	goto	u3790
  2723  0198                     u3791:
  2724  0198  299E               	goto	l11007
  2725  0199                     u3790:
  2726                           	line	326
  2727                           	
  2728  0199                     l15793:	
  2729                           ;TriacRelay_B1.c: 325: {
  2730                           ;TriacRelay_B1.c: 326: RB2=0;
  2731  0199  1106               	bcf	(50/8),(50)&7
  2732  019A  299E               	goto	l11007
  2733                           	line	327
  2734                           	
  2735  019B                     l11006:	
  2736  019B  299E               	goto	l11007
  2737                           	line	343
  2738                           	
  2739  019C                     l11005:	
  2740  019C  299E               	goto	l11007
  2741                           	line	344
  2742                           	
  2743  019D                     l11004:	
  2744  019D  299E               	goto	l11007
  2745                           	
  2746  019E                     l11001:	
  2747                           	line	345
  2748                           	
  2749  019E                     l11007:	
  2750  019E  0008               	return
  2751                           	opt stack 0
  2752                           GLOBAL	__end_of_Lights_Control
  2753  019F                     	__end_of_Lights_Control:
  2754 ;; =============== function _Lights_Control ends ============
  2755                           
  2756                           	signat	_Lights_Control,4216
  2757                           	global	_setLights_Initialization
  2758                           psect	text1100,local,class=CODE,delta=2
  2759                           global __ptext1100
  2760  049F                     __ptext1100:
  2761                           
  2762 ;; *************** function _setLights_Initialization *****************
  2763 ;; Defined at:
  2764 ;;		line 47 in file "G:\Program\PIC\Source_File\TriacRelay_B1.c"
  2765 ;; Parameters:    Size  Location     Type
  2766 ;;  lights          1    wreg     unsigned char 
  2767 ;; Auto vars:     Size  Location     Type
  2768 ;;  lights          1    2[BANK0 ] unsigned char 
  2769 ;; Return value:  Size  Location     Type
  2770 ;;		None               void
  2771 ;; Registers used:
  2772 ;;		wreg, fsr0l, fsr0h, status,2, status,0, pclath, cstack
  2773 ;; Tracked objects:
  2774 ;;		On entry : 0/0
  2775 ;;		On exit  : 0/0
  2776 ;;		Unchanged: 0/0
  2777 ;; Data sizes:     COMMON   BANK0   BANK1   BANK2
  2778 ;;      Params:         0       0       0       0
  2779 ;;      Locals:         0       1       0       0
  2780 ;;      Temps:          0       0       0       0
  2781 ;;      Totals:         0       1       0       0
  2782 ;;Total ram usage:        1 bytes
  2783 ;; Hardware stack levels used:    1
  2784 ;; Hardware stack levels required when called:    3
  2785 ;; This function calls:
  2786 ;;		_LightsPointSelect
  2787 ;; This function is called by:
  2788 ;;		_Lights_Initialization
  2789 ;; This function uses a non-reentrant model
  2790 ;;
  2791                           psect	text1100
  2792                           	file	"G:\Program\PIC\Source_File\TriacRelay_B1.c"
  2793                           	line	47
  2794                           	global	__size_of_setLights_Initialization
  2795  0011                     	__size_of_setLights_Initialization	equ	__end_of_setLights_Initialization-_setLights_Ini
                                 tialization
  2796                           	
  2797  049F                     _setLights_Initialization:	
  2798                           	opt	stack 3
  2799                           ; Regs used in _setLights_Initialization: [wreg-fsr0h+status,2+status,0+pclath+cstack]
  2800                           ;setLights_Initialization@lights stored from wreg
  2801  049F  1283               	bcf	status, 5	;RP0=0, select bank0
  2802  04A0  1303               	bcf	status, 6	;RP1=0, select bank0
  2803  04A1  00D8               	movwf	(setLights_Initialization@lights)
  2804                           	line	48
  2805                           	
  2806  04A2                     l15765:	
  2807                           ;TriacRelay_B1.c: 48: LightsPointSelect(lights);
  2808  04A2  0858               	movf	(setLights_Initialization@lights),w
  2809  04A3  118A  24DF  118A   	fcall	_LightsPointSelect
  2810                           	line	49
  2811                           	
  2812  04A6                     l15767:	
  2813                           ;TriacRelay_B1.c: 49: Lights->Open=1;
  2814  04A6  1283               	bcf	status, 5	;RP0=0, select bank0
  2815  04A7  1303               	bcf	status, 6	;RP1=0, select bank0
  2816  04A8  0822               	movf	(_Lights),w
  2817  04A9  0084               	movwf	fsr0
  2818  04AA  1383               	bcf	status, 7	;select IRP bank0
  2819  04AB  1580               	bsf	indf,3
  2820                           	line	50
  2821                           	
  2822  04AC                     l15769:	
  2823                           ;TriacRelay_B1.c: 50: Lights->Close=1;
  2824  04AC  0822               	movf	(_Lights),w
  2825  04AD  0084               	movwf	fsr0
  2826  04AE  1600               	bsf	indf,4
  2827                           	line	51
  2828                           	
  2829  04AF                     l10962:	
  2830  04AF  0008               	return
  2831                           	opt stack 0
  2832                           GLOBAL	__end_of_setLights_Initialization
  2833  04B0                     	__end_of_setLights_Initialization:
  2834 ;; =============== function _setLights_Initialization ends ============
  2835                           
  2836                           	signat	_setLights_Initialization,4216
  2837                           	global	_getCDS_AD
  2838                           psect	text1101,local,class=CODE,delta=2
  2839                           global __ptext1101
  2840  02B9                     __ptext1101:
  2841                           
  2842 ;; *************** function _getCDS_AD *****************
  2843 ;; Defined at:
  2844 ;;		line 81 in file "G:\Program\PIC\Source_File\CDS_B1.c"
  2845 ;; Parameters:    Size  Location     Type
  2846 ;;  cds             1    wreg     unsigned char 
  2847 ;;  channel1        1    2[BANK0 ] unsigned char 
  2848 ;;  channel2        1    3[BANK0 ] unsigned char 
  2849 ;; Auto vars:     Size  Location     Type
  2850 ;;  cds             1    8[BANK0 ] unsigned char 
  2851 ;;  j               1    7[BANK0 ] unsigned char 
  2852 ;;  i               1    6[BANK0 ] unsigned char 
  2853 ;; Return value:  Size  Location     Type
  2854 ;;		None               void
  2855 ;; Registers used:
  2856 ;;		wreg, fsr0l, fsr0h, status,2, status,0, pclath, cstack
  2857 ;; Tracked objects:
  2858 ;;		On entry : 0/0
  2859 ;;		On exit  : 0/0
  2860 ;;		Unchanged: 0/0
  2861 ;; Data sizes:     COMMON   BANK0   BANK1   BANK2
  2862 ;;      Params:         0       2       0       0
  2863 ;;      Locals:         0       3       0       0
  2864 ;;      Temps:          0       2       0       0
  2865 ;;      Totals:         0       7       0       0
  2866 ;;Total ram usage:        7 bytes
  2867 ;; Hardware stack levels used:    1
  2868 ;; Hardware stack levels required when called:    3
  2869 ;; This function calls:
  2870 ;;		_setCDSPoint
  2871 ;;		_getAD
  2872 ;; This function is called by:
  2873 ;;		_main
  2874 ;; This function uses a non-reentrant model
  2875 ;;
  2876                           psect	text1101
  2877                           	file	"G:\Program\PIC\Source_File\CDS_B1.c"
  2878                           	line	81
  2879                           	global	__size_of_getCDS_AD
  2880  0050                     	__size_of_getCDS_AD	equ	__end_of_getCDS_AD-_getCDS_AD
  2881                           	
  2882  02B9                     _getCDS_AD:	
  2883                           	opt	stack 4
  2884                           ; Regs used in _getCDS_AD: [wreg-fsr0h+status,2+status,0+pclath+cstack]
  2885                           ;getCDS_AD@cds stored from wreg
  2886  02B9  1283               	bcf	status, 5	;RP0=0, select bank0
  2887  02BA  1303               	bcf	status, 6	;RP1=0, select bank0
  2888  02BB  00DE               	movwf	(getCDS_AD@cds)
  2889                           	line	82
  2890                           	
  2891  02BC                     l15751:	
  2892                           ;CDS_B1.c: 82: char i=0,j=0;
  2893  02BC  01DC               	clrf	(getCDS_AD@i)
  2894  02BD  01DD               	clrf	(getCDS_AD@j)
  2895                           	line	83
  2896                           	
  2897  02BE                     l15753:	
  2898                           ;CDS_B1.c: 83: setCDSPoint(cds);
  2899  02BE  085E               	movf	(getCDS_AD@cds),w
  2900  02BF  118A  24D0  118A   	fcall	_setCDSPoint
  2901                           	line	84
  2902                           	
  2903  02C2                     l15755:	
  2904                           ;CDS_B1.c: 84: if(CDS->ADtoGO)
  2905  02C2  1283               	bcf	status, 5	;RP0=0, select bank0
  2906  02C3  1303               	bcf	status, 6	;RP1=0, select bank0
  2907  02C4  0820               	movf	(_CDS),w
  2908  02C5  0084               	movwf	fsr0
  2909  02C6  1383               	bcf	status, 7	;select IRP bank0
  2910  02C7  1D80               	btfss	indf,3
  2911  02C8  2ACA               	goto	u3711
  2912  02C9  2ACB               	goto	u3710
  2913  02CA                     u3711:
  2914  02CA  2B08               	goto	l11884
  2915  02CB                     u3710:
  2916                           	line	86
  2917                           	
  2918  02CB                     l15757:	
  2919                           ;CDS_B1.c: 85: {
  2920                           ;CDS_B1.c: 86: CDS->ADtoGO=0;
  2921  02CB  0820               	movf	(_CDS),w
  2922  02CC  0084               	movwf	fsr0
  2923  02CD  1180               	bcf	indf,3
  2924                           	line	87
  2925                           ;CDS_B1.c: 87: CDS->GO=1;
  2926  02CE  0820               	movf	(_CDS),w
  2927  02CF  0084               	movwf	fsr0
  2928  02D0  1480               	bsf	indf,1
  2929                           	line	88
  2930                           	
  2931  02D1                     l15759:	
  2932                           ;CDS_B1.c: 88: CDS->ADRES=getAD(channel1,0x70);
  2933  02D1  3070               	movlw	(070h)
  2934  02D2  00DA               	movwf	(??_getCDS_AD+0)+0
  2935  02D3  085A               	movf	(??_getCDS_AD+0)+0,w
  2936  02D4  00D6               	movwf	(?_getAD)
  2937  02D5  0858               	movf	(getCDS_AD@channel1),w
  2938  02D6  118A  242E  118A   	fcall	_getAD
  2939  02D9  1283               	bcf	status, 5	;RP0=0, select bank0
  2940  02DA  1303               	bcf	status, 6	;RP1=0, select bank0
  2941  02DB  00DB               	movwf	(??_getCDS_AD+1)+0
  2942  02DC  0820               	movf	(_CDS),w
  2943  02DD  3E04               	addlw	04h
  2944  02DE  0084               	movwf	fsr0
  2945  02DF  085B               	movf	(??_getCDS_AD+1)+0,w
  2946  02E0  1383               	bcf	status, 7	;select IRP bank0
  2947  02E1  0080               	movwf	indf
  2948                           	line	89
  2949                           	
  2950  02E2                     l15761:	
  2951                           ;CDS_B1.c: 89: CDS->VRAD=CDS->ADRES;
  2952  02E2  0820               	movf	(_CDS),w
  2953  02E3  3E04               	addlw	04h
  2954  02E4  0084               	movwf	fsr0
  2955  02E5  0800               	movf	indf,w
  2956  02E6  00DA               	movwf	(??_getCDS_AD+0)+0
  2957  02E7  0820               	movf	(_CDS),w
  2958  02E8  3E02               	addlw	02h
  2959  02E9  0084               	movwf	fsr0
  2960  02EA  085A               	movf	(??_getCDS_AD+0)+0,w
  2961  02EB  0080               	movwf	indf
  2962                           	line	90
  2963                           ;CDS_B1.c: 90: CDS->ADRES=getAD(channel2,0x70);
  2964  02EC  3070               	movlw	(070h)
  2965  02ED  00DA               	movwf	(??_getCDS_AD+0)+0
  2966  02EE  085A               	movf	(??_getCDS_AD+0)+0,w
  2967  02EF  00D6               	movwf	(?_getAD)
  2968  02F0  0859               	movf	(getCDS_AD@channel2),w
  2969  02F1  118A  242E  118A   	fcall	_getAD
  2970  02F4  1283               	bcf	status, 5	;RP0=0, select bank0
  2971  02F5  1303               	bcf	status, 6	;RP1=0, select bank0
  2972  02F6  00DB               	movwf	(??_getCDS_AD+1)+0
  2973  02F7  0820               	movf	(_CDS),w
  2974  02F8  3E04               	addlw	04h
  2975  02F9  0084               	movwf	fsr0
  2976  02FA  085B               	movf	(??_getCDS_AD+1)+0,w
  2977  02FB  1383               	bcf	status, 7	;select IRP bank0
  2978  02FC  0080               	movwf	indf
  2979                           	line	91
  2980                           	
  2981  02FD                     l15763:	
  2982                           ;CDS_B1.c: 91: CDS->SignalAD=CDS->ADRES;
  2983  02FD  0820               	movf	(_CDS),w
  2984  02FE  3E04               	addlw	04h
  2985  02FF  0084               	movwf	fsr0
  2986  0300  0800               	movf	indf,w
  2987  0301  00DA               	movwf	(??_getCDS_AD+0)+0
  2988  0302  0820               	movf	(_CDS),w
  2989  0303  3E03               	addlw	03h
  2990  0304  0084               	movwf	fsr0
  2991  0305  085A               	movf	(??_getCDS_AD+0)+0,w
  2992  0306  0080               	movwf	indf
  2993  0307  2B08               	goto	l11884
  2994                           	line	92
  2995                           	
  2996  0308                     l11883:	
  2997                           	line	93
  2998                           	
  2999  0308                     l11884:	
  3000  0308  0008               	return
  3001                           	opt stack 0
  3002                           GLOBAL	__end_of_getCDS_AD
  3003  0309                     	__end_of_getCDS_AD:
  3004 ;; =============== function _getCDS_AD ends ============
  3005                           
  3006                           	signat	_getCDS_AD,12408
  3007                           	global	_Mcu_Initialization
  3008                           psect	text1102,local,class=CODE,delta=2
  3009                           global __ptext1102
  3010  04EE                     __ptext1102:
  3011                           
  3012 ;; *************** function _Mcu_Initialization *****************
  3013 ;; Defined at:
  3014 ;;		line 12 in file "G:\Program\PIC\Source_File\MCU_16f723a_B1.c"
  3015 ;; Parameters:    Size  Location     Type
  3016 ;;		None
  3017 ;; Auto vars:     Size  Location     Type
  3018 ;;		None
  3019 ;; Return value:  Size  Location     Type
  3020 ;;		None               void
  3021 ;; Registers used:
  3022 ;;		wreg, fsr0l, fsr0h, status,2, status,0, pclath, cstack
  3023 ;; Tracked objects:
  3024 ;;		On entry : 0/0
  3025 ;;		On exit  : 0/0
  3026 ;;		Unchanged: 0/0
  3027 ;; Data sizes:     COMMON   BANK0   BANK1   BANK2
  3028 ;;      Params:         0       0       0       0
  3029 ;;      Locals:         0       0       0       0
  3030 ;;      Temps:          0       0       0       0
  3031 ;;      Totals:         0       0       0       0
  3032 ;;Total ram usage:        0 bytes
  3033 ;; Hardware stack levels used:    1
  3034 ;; Hardware stack levels required when called:    3
  3035 ;; This function calls:
  3036 ;;		_IO_Set
  3037 ;;		_TMR0_Set
  3038 ;;		_ADC_Set
  3039 ;; This function is called by:
  3040 ;;		_main
  3041 ;; This function uses a non-reentrant model
  3042 ;;
  3043                           psect	text1102
  3044                           	file	"G:\Program\PIC\Source_File\MCU_16f723a_B1.c"
  3045                           	line	12
  3046                           	global	__size_of_Mcu_Initialization
  3047  000E                     	__size_of_Mcu_Initialization	equ	__end_of_Mcu_Initialization-_Mcu_Initialization
  3048                           	
  3049  04EE                     _Mcu_Initialization:	
  3050                           	opt	stack 4
  3051                           ; Regs used in _Mcu_Initialization: [wreg-fsr0h+status,2+status,0+pclath+cstack]
  3052                           	line	14
  3053                           	
  3054  04EE                     l15743:	
  3055                           ;MCU_16f723a_B1.c: 14: OSCCON=0x3c; ;;
  3056  04EE  303C               	movlw	(03Ch)
  3057  04EF  1683               	bsf	status, 5	;RP0=1, select bank1
  3058  04F0  1303               	bcf	status, 6	;RP1=0, select bank1
  3059  04F1  0090               	movwf	(144)^080h	;volatile
  3060                           	line	16
  3061                           	
  3062  04F2                     l15745:	
  3063                           ;MCU_16f723a_B1.c: 16: IO_Set();
  3064  04F2  118A  2443  118A   	fcall	_IO_Set
  3065                           	line	18
  3066                           	
  3067  04F5                     l15747:	
  3068                           ;MCU_16f723a_B1.c: 18: TMR0_Set();
  3069  04F5  118A  2415  118A   	fcall	_TMR0_Set
  3070                           	line	22
  3071                           	
  3072  04F8                     l15749:	
  3073                           ;MCU_16f723a_B1.c: 20: ;;
  3074                           ;MCU_16f723a_B1.c: 22: ADC_Set();
  3075  04F8  118A  2527  118A   	fcall	_ADC_Set
  3076                           	line	35
  3077                           	
  3078  04FB                     l10082:	
  3079  04FB  0008               	return
  3080                           	opt stack 0
  3081                           GLOBAL	__end_of_Mcu_Initialization
  3082  04FC                     	__end_of_Mcu_Initialization:
  3083 ;; =============== function _Mcu_Initialization ends ============
  3084                           
  3085                           	signat	_Mcu_Initialization,88
  3086                           	global	_MainT_Initialization
  3087                           psect	text1103,local,class=CODE,delta=2
  3088                           global __ptext1103
  3089  04B0                     __ptext1103:
  3090                           
  3091 ;; *************** function _MainT_Initialization *****************
  3092 ;; Defined at:
  3093 ;;		line 89 in file "G:\Program\PIC\Source_File\main.c"
  3094 ;; Parameters:    Size  Location     Type
  3095 ;;		None
  3096 ;; Auto vars:     Size  Location     Type
  3097 ;;		None
  3098 ;; Return value:  Size  Location     Type
  3099 ;;		None               void
  3100 ;; Registers used:
  3101 ;;		wreg, fsr0l, fsr0h
  3102 ;; Tracked objects:
  3103 ;;		On entry : 0/0
  3104 ;;		On exit  : 0/0
  3105 ;;		Unchanged: 0/0
  3106 ;; Data sizes:     COMMON   BANK0   BANK1   BANK2
  3107 ;;      Params:         0       0       0       0
  3108 ;;      Locals:         0       0       0       0
  3109 ;;      Temps:          0       1       0       0
  3110 ;;      Totals:         0       1       0       0
  3111 ;;Total ram usage:        1 bytes
  3112 ;; Hardware stack levels used:    1
  3113 ;; Hardware stack levels required when called:    2
  3114 ;; This function calls:
  3115 ;;		Nothing
  3116 ;; This function is called by:
  3117 ;;		_main
  3118 ;; This function uses a non-reentrant model
  3119 ;;
  3120                           psect	text1103
  3121                           	file	"G:\Program\PIC\Source_File\main.c"
  3122                           	line	89
  3123                           	global	__size_of_MainT_Initialization
  3124  0010                     	__size_of_MainT_Initialization	equ	__end_of_MainT_Initialization-_MainT_Initialization
  3125                           	
  3126  04B0                     _MainT_Initialization:	
  3127                           	opt	stack 5
  3128                           ; Regs used in _MainT_Initialization: [wregfsr0]
  3129                           	line	91
  3130                           	
  3131  04B0                     l15735:	
  3132                           ;main.c: 91: _nop();
  3133  04B0  0000               	nop
  3134                           	line	96
  3135                           	
  3136  04B1                     l15737:	
  3137                           ;main.c: 96: TMain=&VarTMain;
  3138  04B1  3025               	movlw	(_VarTMain)&0ffh
  3139  04B2  1283               	bcf	status, 5	;RP0=0, select bank0
  3140  04B3  1303               	bcf	status, 6	;RP1=0, select bank0
  3141  04B4  00D6               	movwf	(??_MainT_Initialization+0)+0
  3142  04B5  0856               	movf	(??_MainT_Initialization+0)+0,w
  3143  04B6  00A4               	movwf	(_TMain)
  3144                           	line	97
  3145                           	
  3146  04B7                     l15739:	
  3147                           ;main.c: 97: TMain->FirstOpen=1;
  3148  04B7  0824               	movf	(_TMain),w
  3149  04B8  0084               	movwf	fsr0
  3150  04B9  1383               	bcf	status, 7	;select IRP bank0
  3151  04BA  1680               	bsf	indf,5
  3152                           	line	98
  3153                           	
  3154  04BB                     l15741:	
  3155                           ;main.c: 98: TMain->First=1;
  3156  04BB  0824               	movf	(_TMain),w
  3157  04BC  3E03               	addlw	03h
  3158  04BD  0084               	movwf	fsr0
  3159  04BE  1480               	bsf	indf,1
  3160                           	line	99
  3161                           	
  3162  04BF                     l5082:	
  3163  04BF  0008               	return
  3164                           	opt stack 0
  3165                           GLOBAL	__end_of_MainT_Initialization
  3166  04C0                     	__end_of_MainT_Initialization:
  3167 ;; =============== function _MainT_Initialization ends ============
  3168                           
  3169                           	signat	_MainT_Initialization,88
  3170                           	global	_setLED
  3171                           psect	text1104,local,class=CODE,delta=2
  3172                           global __ptext1104
  3173  00AF                     __ptext1104:
  3174                           
  3175 ;; *************** function _setLED *****************
  3176 ;; Defined at:
  3177 ;;		line 75 in file "G:\Program\PIC\Source_File\LED_B1.c"
  3178 ;; Parameters:    Size  Location     Type
  3179 ;;  led             1    wreg     unsigned char 
  3180 ;;  command         1    2[BANK0 ] unsigned char 
  3181 ;; Auto vars:     Size  Location     Type
  3182 ;;  led             1    3[BANK0 ] unsigned char 
  3183 ;; Return value:  Size  Location     Type
  3184 ;;		None               void
  3185 ;; Registers used:
  3186 ;;		wreg, fsr0l, fsr0h, status,2, status,0, pclath, cstack
  3187 ;; Tracked objects:
  3188 ;;		On entry : 0/0
  3189 ;;		On exit  : 0/0
  3190 ;;		Unchanged: 0/0
  3191 ;; Data sizes:     COMMON   BANK0   BANK1   BANK2
  3192 ;;      Params:         0       1       0       0
  3193 ;;      Locals:         0       1       0       0
  3194 ;;      Temps:          0       0       0       0
  3195 ;;      Totals:         0       2       0       0
  3196 ;;Total ram usage:        2 bytes
  3197 ;; Hardware stack levels used:    1
  3198 ;; Hardware stack levels required when called:    3
  3199 ;; This function calls:
  3200 ;;		_LedPointSelect
  3201 ;; This function is called by:
  3202 ;;		_setLED_Initialization
  3203 ;;		_setCDS_Initialization
  3204 ;;		_setSYSC_Main
  3205 ;; This function uses a non-reentrant model
  3206 ;;
  3207                           psect	text1104
  3208                           	file	"G:\Program\PIC\Source_File\LED_B1.c"
  3209                           	line	75
  3210                           	global	__size_of_setLED
  3211  0086                     	__size_of_setLED	equ	__end_of_setLED-_setLED
  3212                           	
  3213  00AF                     _setLED:	
  3214                           	opt	stack 2
  3215                           ; Regs used in _setLED: [wreg-fsr0h+status,2+status,0+pclath+cstack]
  3216                           ;setLED@led stored from wreg
  3217  00AF  1283               	bcf	status, 5	;RP0=0, select bank0
  3218  00B0  1303               	bcf	status, 6	;RP1=0, select bank0
  3219  00B1  00D9               	movwf	(setLED@led)
  3220                           	line	76
  3221                           	
  3222  00B2                     l15685:	
  3223                           ;LED_B1.c: 76: LedPointSelect(led);
  3224  00B2  0859               	movf	(setLED@led),w
  3225  00B3  118A  23D1  118A   	fcall	_LedPointSelect
  3226                           	line	77
  3227                           	
  3228  00B6                     l15687:	
  3229                           ;LED_B1.c: 77: if(command == 0)
  3230  00B6  1283               	bcf	status, 5	;RP0=0, select bank0
  3231  00B7  1303               	bcf	status, 6	;RP1=0, select bank0
  3232  00B8  08D8               	movf	(setLED@command),f
  3233  00B9  1D03               	skipz
  3234  00BA  28BC               	goto	u3581
  3235  00BB  28BD               	goto	u3580
  3236  00BC                     u3581:
  3237  00BC  28D8               	goto	l15701
  3238  00BD                     u3580:
  3239                           	line	80
  3240                           	
  3241  00BD                     l15689:	
  3242                           ;LED_B1.c: 78: {
  3243                           ;LED_B1.c: 80: if(led == 1)
  3244  00BD  0859               	movf	(setLED@led),w
  3245  00BE  3A01               	xorlw	01h
  3246  00BF  1D03               	skipz
  3247  00C0  28C2               	goto	u3591
  3248  00C1  28C3               	goto	u3590
  3249  00C2                     u3591:
  3250  00C2  28C5               	goto	l15693
  3251  00C3                     u3590:
  3252                           	line	85
  3253                           	
  3254  00C3                     l15691:	
  3255                           ;LED_B1.c: 81: {
  3256                           ;LED_B1.c: 85: RB4=1;
  3257  00C3  1606               	bsf	(52/8),(52)&7
  3258                           	line	87
  3259                           ;LED_B1.c: 87: }
  3260  00C4  2934               	goto	l4198
  3261                           	line	90
  3262                           	
  3263  00C5                     l4177:	
  3264                           	
  3265  00C5                     l15693:	
  3266                           ;LED_B1.c: 90: else if(led == 2)
  3267  00C5  0859               	movf	(setLED@led),w
  3268  00C6  3A02               	xorlw	02h
  3269  00C7  1D03               	skipz
  3270  00C8  28CA               	goto	u3601
  3271  00C9  28CB               	goto	u3600
  3272  00CA                     u3601:
  3273  00CA  28CD               	goto	l15697
  3274  00CB                     u3600:
  3275                           	line	95
  3276                           	
  3277  00CB                     l15695:	
  3278                           ;LED_B1.c: 91: {
  3279                           ;LED_B1.c: 95: RB5=1;
  3280  00CB  1686               	bsf	(53/8),(53)&7
  3281                           	line	97
  3282                           ;LED_B1.c: 97: }
  3283  00CC  2934               	goto	l4198
  3284                           	line	110
  3285                           	
  3286  00CD                     l4179:	
  3287                           	
  3288  00CD                     l15697:	
  3289                           ;LED_B1.c: 110: else if(led == 99)
  3290  00CD  0859               	movf	(setLED@led),w
  3291  00CE  3A63               	xorlw	063h
  3292  00CF  1D03               	skipz
  3293  00D0  28D2               	goto	u3611
  3294  00D1  28D3               	goto	u3610
  3295  00D2                     u3611:
  3296  00D2  2934               	goto	l4198
  3297  00D3                     u3610:
  3298                           	line	115
  3299                           	
  3300  00D3                     l15699:	
  3301                           ;LED_B1.c: 111: {
  3302                           ;LED_B1.c: 115: RB3=1;
  3303  00D3  1586               	bsf	(51/8),(51)&7
  3304  00D4  2934               	goto	l4198
  3305                           	line	117
  3306                           	
  3307  00D5                     l4181:	
  3308  00D5  2934               	goto	l4198
  3309                           	line	119
  3310                           	
  3311  00D6                     l4180:	
  3312  00D6  2934               	goto	l4198
  3313                           	
  3314  00D7                     l4178:	
  3315                           ;LED_B1.c: 117: }
  3316                           ;LED_B1.c: 119: }
  3317  00D7  2934               	goto	l4198
  3318                           	line	120
  3319                           	
  3320  00D8                     l4176:	
  3321                           	
  3322  00D8                     l15701:	
  3323                           ;LED_B1.c: 120: else if(command == 1)
  3324  00D8  0858               	movf	(setLED@command),w
  3325  00D9  3A01               	xorlw	01h
  3326  00DA  1D03               	skipz
  3327  00DB  28DD               	goto	u3621
  3328  00DC  28DE               	goto	u3620
  3329  00DD                     u3621:
  3330  00DD  28F9               	goto	l15715
  3331  00DE                     u3620:
  3332                           	line	123
  3333                           	
  3334  00DE                     l15703:	
  3335                           ;LED_B1.c: 121: {
  3336                           ;LED_B1.c: 123: if(led == 1)
  3337  00DE  0859               	movf	(setLED@led),w
  3338  00DF  3A01               	xorlw	01h
  3339  00E0  1D03               	skipz
  3340  00E1  28E3               	goto	u3631
  3341  00E2  28E4               	goto	u3630
  3342  00E3                     u3631:
  3343  00E3  28E6               	goto	l15707
  3344  00E4                     u3630:
  3345                           	line	128
  3346                           	
  3347  00E4                     l15705:	
  3348                           ;LED_B1.c: 124: {
  3349                           ;LED_B1.c: 128: RB4=0;
  3350  00E4  1206               	bcf	(52/8),(52)&7
  3351                           	line	130
  3352                           ;LED_B1.c: 130: }
  3353  00E5  2934               	goto	l4198
  3354                           	line	133
  3355                           	
  3356  00E6                     l4184:	
  3357                           	
  3358  00E6                     l15707:	
  3359                           ;LED_B1.c: 133: else if(led == 2)
  3360  00E6  0859               	movf	(setLED@led),w
  3361  00E7  3A02               	xorlw	02h
  3362  00E8  1D03               	skipz
  3363  00E9  28EB               	goto	u3641
  3364  00EA  28EC               	goto	u3640
  3365  00EB                     u3641:
  3366  00EB  28EE               	goto	l15711
  3367  00EC                     u3640:
  3368                           	line	138
  3369                           	
  3370  00EC                     l15709:	
  3371                           ;LED_B1.c: 134: {
  3372                           ;LED_B1.c: 138: RB5=0;
  3373  00EC  1286               	bcf	(53/8),(53)&7
  3374                           	line	140
  3375                           ;LED_B1.c: 140: }
  3376  00ED  2934               	goto	l4198
  3377                           	line	153
  3378                           	
  3379  00EE                     l4186:	
  3380                           	
  3381  00EE                     l15711:	
  3382                           ;LED_B1.c: 153: else if(led == 99)
  3383  00EE  0859               	movf	(setLED@led),w
  3384  00EF  3A63               	xorlw	063h
  3385  00F0  1D03               	skipz
  3386  00F1  28F3               	goto	u3651
  3387  00F2  28F4               	goto	u3650
  3388  00F3                     u3651:
  3389  00F3  2934               	goto	l4198
  3390  00F4                     u3650:
  3391                           	line	158
  3392                           	
  3393  00F4                     l15713:	
  3394                           ;LED_B1.c: 154: {
  3395                           ;LED_B1.c: 158: RB3=0;
  3396  00F4  1186               	bcf	(51/8),(51)&7
  3397  00F5  2934               	goto	l4198
  3398                           	line	160
  3399                           	
  3400  00F6                     l4188:	
  3401  00F6  2934               	goto	l4198
  3402                           	line	162
  3403                           	
  3404  00F7                     l4187:	
  3405  00F7  2934               	goto	l4198
  3406                           	
  3407  00F8                     l4185:	
  3408                           ;LED_B1.c: 160: }
  3409                           ;LED_B1.c: 162: }
  3410  00F8  2934               	goto	l4198
  3411                           	line	163
  3412                           	
  3413  00F9                     l4183:	
  3414                           	
  3415  00F9                     l15715:	
  3416                           ;LED_B1.c: 163: else if(command == 10)
  3417  00F9  0858               	movf	(setLED@command),w
  3418  00FA  3A0A               	xorlw	0Ah
  3419  00FB  1D03               	skipz
  3420  00FC  28FE               	goto	u3661
  3421  00FD  28FF               	goto	u3660
  3422  00FE                     u3661:
  3423  00FE  2926               	goto	l15731
  3424  00FF                     u3660:
  3425                           	line	165
  3426                           	
  3427  00FF                     l15717:	
  3428                           ;LED_B1.c: 164: {
  3429                           ;LED_B1.c: 165: LED->GO=0;
  3430  00FF  0821               	movf	(_LED),w
  3431  0100  0084               	movwf	fsr0
  3432  0101  1383               	bcf	status, 7	;select IRP bank0
  3433  0102  1080               	bcf	indf,1
  3434                           	line	166
  3435                           ;LED_B1.c: 166: LED->Time=0;
  3436  0103  0821               	movf	(_LED),w
  3437  0104  3E01               	addlw	01h
  3438  0105  0084               	movwf	fsr0
  3439  0106  3000               	movlw	low(0)
  3440  0107  0080               	movwf	indf
  3441  0108  0A84               	incf	fsr0,f
  3442  0109  3000               	movlw	high(0)
  3443  010A  0080               	movwf	indf
  3444                           	line	168
  3445                           	
  3446  010B                     l15719:	
  3447                           ;LED_B1.c: 168: if(led == 1)
  3448  010B  0859               	movf	(setLED@led),w
  3449  010C  3A01               	xorlw	01h
  3450  010D  1D03               	skipz
  3451  010E  2910               	goto	u3671
  3452  010F  2911               	goto	u3670
  3453  0110                     u3671:
  3454  0110  2913               	goto	l15723
  3455  0111                     u3670:
  3456                           	line	173
  3457                           	
  3458  0111                     l15721:	
  3459                           ;LED_B1.c: 169: {
  3460                           ;LED_B1.c: 173: RB4=1;
  3461  0111  1606               	bsf	(52/8),(52)&7
  3462                           	line	175
  3463                           ;LED_B1.c: 175: }
  3464  0112  2934               	goto	l4198
  3465                           	line	178
  3466                           	
  3467  0113                     l4191:	
  3468                           	
  3469  0113                     l15723:	
  3470                           ;LED_B1.c: 178: else if(led == 2)
  3471  0113  0859               	movf	(setLED@led),w
  3472  0114  3A02               	xorlw	02h
  3473  0115  1D03               	skipz
  3474  0116  2918               	goto	u3681
  3475  0117  2919               	goto	u3680
  3476  0118                     u3681:
  3477  0118  291B               	goto	l15727
  3478  0119                     u3680:
  3479                           	line	183
  3480                           	
  3481  0119                     l15725:	
  3482                           ;LED_B1.c: 179: {
  3483                           ;LED_B1.c: 183: RB5=1;
  3484  0119  1686               	bsf	(53/8),(53)&7
  3485                           	line	185
  3486                           ;LED_B1.c: 185: }
  3487  011A  2934               	goto	l4198
  3488                           	line	198
  3489                           	
  3490  011B                     l4193:	
  3491                           	
  3492  011B                     l15727:	
  3493                           ;LED_B1.c: 198: else if(led == 99)
  3494  011B  0859               	movf	(setLED@led),w
  3495  011C  3A63               	xorlw	063h
  3496  011D  1D03               	skipz
  3497  011E  2920               	goto	u3691
  3498  011F  2921               	goto	u3690
  3499  0120                     u3691:
  3500  0120  2934               	goto	l4198
  3501  0121                     u3690:
  3502                           	line	203
  3503                           	
  3504  0121                     l15729:	
  3505                           ;LED_B1.c: 199: {
  3506                           ;LED_B1.c: 203: RB3=1;
  3507  0121  1586               	bsf	(51/8),(51)&7
  3508  0122  2934               	goto	l4198
  3509                           	line	205
  3510                           	
  3511  0123                     l4195:	
  3512  0123  2934               	goto	l4198
  3513                           	line	207
  3514                           	
  3515  0124                     l4194:	
  3516  0124  2934               	goto	l4198
  3517                           	
  3518  0125                     l4192:	
  3519                           ;LED_B1.c: 205: }
  3520                           ;LED_B1.c: 207: }
  3521  0125  2934               	goto	l4198
  3522                           	line	208
  3523                           	
  3524  0126                     l4190:	
  3525                           	
  3526  0126                     l15731:	
  3527                           ;LED_B1.c: 208: else if(command == 11)
  3528  0126  0858               	movf	(setLED@command),w
  3529  0127  3A0B               	xorlw	0Bh
  3530  0128  1D03               	skipz
  3531  0129  292B               	goto	u3701
  3532  012A  292C               	goto	u3700
  3533  012B                     u3701:
  3534  012B  2934               	goto	l4198
  3535  012C                     u3700:
  3536                           	line	210
  3537                           	
  3538  012C                     l15733:	
  3539                           ;LED_B1.c: 209: {
  3540                           ;LED_B1.c: 210: LED->GO=1;
  3541  012C  0821               	movf	(_LED),w
  3542  012D  0084               	movwf	fsr0
  3543  012E  1383               	bcf	status, 7	;select IRP bank0
  3544  012F  1480               	bsf	indf,1
  3545  0130  2934               	goto	l4198
  3546                           	line	211
  3547                           	
  3548  0131                     l4197:	
  3549  0131  2934               	goto	l4198
  3550                           	line	212
  3551                           	
  3552  0132                     l4196:	
  3553  0132  2934               	goto	l4198
  3554                           	
  3555  0133                     l4189:	
  3556  0133  2934               	goto	l4198
  3557                           	
  3558  0134                     l4182:	
  3559                           	
  3560  0134                     l4198:	
  3561  0134  0008               	return
  3562                           	opt stack 0
  3563                           GLOBAL	__end_of_setLED
  3564  0135                     	__end_of_setLED:
  3565 ;; =============== function _setLED ends ============
  3566                           
  3567                           	signat	_setLED,8312
  3568                           	global	_setLED_Main
  3569                           psect	text1105,local,class=CODE,delta=2
  3570                           global __ptext1105
  3571  0268                     __ptext1105:
  3572                           
  3573 ;; *************** function _setLED_Main *****************
  3574 ;; Defined at:
  3575 ;;		line 215 in file "G:\Program\PIC\Source_File\LED_B1.c"
  3576 ;; Parameters:    Size  Location     Type
  3577 ;;  led             1    wreg     unsigned char 
  3578 ;; Auto vars:     Size  Location     Type
  3579 ;;  led             1    4[BANK0 ] unsigned char 
  3580 ;; Return value:  Size  Location     Type
  3581 ;;		None               void
  3582 ;; Registers used:
  3583 ;;		wreg, fsr0l, fsr0h, status,2, status,0, pclath, cstack
  3584 ;; Tracked objects:
  3585 ;;		On entry : 0/0
  3586 ;;		On exit  : 0/0
  3587 ;;		Unchanged: 0/0
  3588 ;; Data sizes:     COMMON   BANK0   BANK1   BANK2
  3589 ;;      Params:         0       0       0       0
  3590 ;;      Locals:         0       1       0       0
  3591 ;;      Temps:          0       2       0       0
  3592 ;;      Totals:         0       3       0       0
  3593 ;;Total ram usage:        3 bytes
  3594 ;; Hardware stack levels used:    1
  3595 ;; Hardware stack levels required when called:    3
  3596 ;; This function calls:
  3597 ;;		_LedPointSelect
  3598 ;; This function is called by:
  3599 ;;		_LED_Main
  3600 ;; This function uses a non-reentrant model
  3601 ;;
  3602                           psect	text1105
  3603                           	file	"G:\Program\PIC\Source_File\LED_B1.c"
  3604                           	line	215
  3605                           	global	__size_of_setLED_Main
  3606  0051                     	__size_of_setLED_Main	equ	__end_of_setLED_Main-_setLED_Main
  3607                           	
  3608  0268                     _setLED_Main:	
  3609                           	opt	stack 3
  3610                           ; Regs used in _setLED_Main: [wreg-fsr0h+status,2+status,0+pclath+cstack]
  3611                           ;setLED_Main@led stored from wreg
  3612  0268  1283               	bcf	status, 5	;RP0=0, select bank0
  3613  0269  1303               	bcf	status, 6	;RP1=0, select bank0
  3614  026A  00DA               	movwf	(setLED_Main@led)
  3615                           	line	216
  3616                           	
  3617  026B                     l15663:	
  3618                           ;LED_B1.c: 216: LedPointSelect(led);
  3619  026B  085A               	movf	(setLED_Main@led),w
  3620  026C  118A  23D1  118A   	fcall	_LedPointSelect
  3621                           	line	217
  3622                           	
  3623  026F                     l15665:	
  3624                           ;LED_B1.c: 217: if(LED->GO)
  3625  026F  1283               	bcf	status, 5	;RP0=0, select bank0
  3626  0270  1303               	bcf	status, 6	;RP1=0, select bank0
  3627  0271  0821               	movf	(_LED),w
  3628  0272  0084               	movwf	fsr0
  3629  0273  1383               	bcf	status, 7	;select IRP bank0
  3630  0274  1C80               	btfss	indf,1
  3631  0275  2A77               	goto	u3531
  3632  0276  2A78               	goto	u3530
  3633  0277                     u3531:
  3634  0277  2AB8               	goto	l4208
  3635  0278                     u3530:
  3636                           	line	219
  3637                           	
  3638  0278                     l15667:	
  3639                           ;LED_B1.c: 218: {
  3640                           ;LED_B1.c: 219: LED->Time++;
  3641  0278  0821               	movf	(_LED),w
  3642  0279  3E01               	addlw	01h
  3643  027A  0084               	movwf	fsr0
  3644  027B  3001               	movlw	01h
  3645  027C  0780               	addwf	indf,f
  3646  027D  0A84               	incf	fsr0,f
  3647  027E  1803               	skipnc
  3648  027F  0A80               	incf	indf,f
  3649                           	line	220
  3650                           	
  3651  0280                     l15669:	
  3652                           ;LED_B1.c: 220: if(LED->Time >= 500)
  3653  0280  0821               	movf	(_LED),w
  3654  0281  3E01               	addlw	01h
  3655  0282  0084               	movwf	fsr0
  3656  0283  0800               	movf	indf,w
  3657  0284  00D8               	movwf	(??_setLED_Main+0)+0+0
  3658  0285  0A84               	incf	fsr0,f
  3659  0286  0800               	movf	indf,w
  3660  0287  00D9               	movwf	(??_setLED_Main+0)+0+1
  3661  0288  3001               	movlw	high(01F4h)
  3662  0289  0259               	subwf	1+(??_setLED_Main+0)+0,w
  3663  028A  30F4               	movlw	low(01F4h)
  3664  028B  1903               	skipnz
  3665  028C  0258               	subwf	0+(??_setLED_Main+0)+0,w
  3666  028D  1C03               	skipc
  3667  028E  2A90               	goto	u3541
  3668  028F  2A91               	goto	u3540
  3669  0290                     u3541:
  3670  0290  2AB8               	goto	l4208
  3671  0291                     u3540:
  3672                           	line	222
  3673                           	
  3674  0291                     l15671:	
  3675                           ;LED_B1.c: 221: {
  3676                           ;LED_B1.c: 222: LED->Time=0;
  3677  0291  0821               	movf	(_LED),w
  3678  0292  3E01               	addlw	01h
  3679  0293  0084               	movwf	fsr0
  3680  0294  3000               	movlw	low(0)
  3681  0295  0080               	movwf	indf
  3682  0296  0A84               	incf	fsr0,f
  3683  0297  3000               	movlw	high(0)
  3684  0298  0080               	movwf	indf
  3685                           	line	224
  3686                           	
  3687  0299                     l15673:	
  3688                           ;LED_B1.c: 224: if(led == 1)
  3689  0299  085A               	movf	(setLED_Main@led),w
  3690  029A  3A01               	xorlw	01h
  3691  029B  1D03               	skipz
  3692  029C  2A9E               	goto	u3551
  3693  029D  2A9F               	goto	u3550
  3694  029E                     u3551:
  3695  029E  2AA2               	goto	l15677
  3696  029F                     u3550:
  3697                           	line	226
  3698                           	
  3699  029F                     l15675:	
  3700                           ;LED_B1.c: 225: {
  3701                           ;LED_B1.c: 226: RB4=~RB4;
  3702  029F  3010               	movlw	1<<((52)&7)
  3703  02A0  0686               	xorwf	((52)/8),f
  3704                           	line	227
  3705                           ;LED_B1.c: 227: }
  3706  02A1  2AB8               	goto	l4208
  3707                           	line	230
  3708                           	
  3709  02A2                     l4203:	
  3710                           	
  3711  02A2                     l15677:	
  3712                           ;LED_B1.c: 230: else if(led == 2)
  3713  02A2  085A               	movf	(setLED_Main@led),w
  3714  02A3  3A02               	xorlw	02h
  3715  02A4  1D03               	skipz
  3716  02A5  2AA7               	goto	u3561
  3717  02A6  2AA8               	goto	u3560
  3718  02A7                     u3561:
  3719  02A7  2AAB               	goto	l15681
  3720  02A8                     u3560:
  3721                           	line	232
  3722                           	
  3723  02A8                     l15679:	
  3724                           ;LED_B1.c: 231: {
  3725                           ;LED_B1.c: 232: RB5=~RB5;
  3726  02A8  3020               	movlw	1<<((53)&7)
  3727  02A9  0686               	xorwf	((53)/8),f
  3728                           	line	233
  3729                           ;LED_B1.c: 233: }
  3730  02AA  2AB8               	goto	l4208
  3731                           	line	242
  3732                           	
  3733  02AB                     l4205:	
  3734                           	
  3735  02AB                     l15681:	
  3736                           ;LED_B1.c: 242: else if(led == 99)
  3737  02AB  085A               	movf	(setLED_Main@led),w
  3738  02AC  3A63               	xorlw	063h
  3739  02AD  1D03               	skipz
  3740  02AE  2AB0               	goto	u3571
  3741  02AF  2AB1               	goto	u3570
  3742  02B0                     u3571:
  3743  02B0  2AB8               	goto	l4208
  3744  02B1                     u3570:
  3745                           	line	244
  3746                           	
  3747  02B1                     l15683:	
  3748                           ;LED_B1.c: 243: {
  3749                           ;LED_B1.c: 244: RB3=~RB3;
  3750  02B1  3008               	movlw	1<<((51)&7)
  3751  02B2  0686               	xorwf	((51)/8),f
  3752  02B3  2AB8               	goto	l4208
  3753                           	line	245
  3754                           	
  3755  02B4                     l4207:	
  3756  02B4  2AB8               	goto	l4208
  3757                           	line	247
  3758                           	
  3759  02B5                     l4206:	
  3760  02B5  2AB8               	goto	l4208
  3761                           	
  3762  02B6                     l4204:	
  3763  02B6  2AB8               	goto	l4208
  3764                           	
  3765  02B7                     l4202:	
  3766  02B7  2AB8               	goto	l4208
  3767                           	line	248
  3768                           	
  3769  02B8                     l4201:	
  3770                           	line	249
  3771                           	
  3772  02B8                     l4208:	
  3773  02B8  0008               	return
  3774                           	opt stack 0
  3775                           GLOBAL	__end_of_setLED_Main
  3776  02B9                     	__end_of_setLED_Main:
  3777 ;; =============== function _setLED_Main ends ============
  3778                           
  3779                           	signat	_setLED_Main,4216
  3780                           	global	_setCDSPoint
  3781                           psect	text1106,local,class=CODE,delta=2
  3782                           global __ptext1106
  3783  04D0                     __ptext1106:
  3784                           
  3785 ;; *************** function _setCDSPoint *****************
  3786 ;; Defined at:
  3787 ;;		line 8 in file "G:\Program\PIC\Source_File\CDS_B1.c"
  3788 ;; Parameters:    Size  Location     Type
  3789 ;;  cds             1    wreg     unsigned char 
  3790 ;; Auto vars:     Size  Location     Type
  3791 ;;  cds             1    1[BANK0 ] unsigned char 
  3792 ;; Return value:  Size  Location     Type
  3793 ;;		None               void
  3794 ;; Registers used:
  3795 ;;		wreg
  3796 ;; Tracked objects:
  3797 ;;		On entry : 0/0
  3798 ;;		On exit  : 0/0
  3799 ;;		Unchanged: 0/0
  3800 ;; Data sizes:     COMMON   BANK0   BANK1   BANK2
  3801 ;;      Params:         0       0       0       0
  3802 ;;      Locals:         0       1       0       0
  3803 ;;      Temps:          0       1       0       0
  3804 ;;      Totals:         0       2       0       0
  3805 ;;Total ram usage:        2 bytes
  3806 ;; Hardware stack levels used:    1
  3807 ;; Hardware stack levels required when called:    2
  3808 ;; This function calls:
  3809 ;;		Nothing
  3810 ;; This function is called by:
  3811 ;;		_setCDS_Initialization
  3812 ;;		_setCDS_Main
  3813 ;;		_getCDS_AD
  3814 ;; This function uses a non-reentrant model
  3815 ;;
  3816                           psect	text1106
  3817                           	file	"G:\Program\PIC\Source_File\CDS_B1.c"
  3818                           	line	8
  3819                           	global	__size_of_setCDSPoint
  3820  000F                     	__size_of_setCDSPoint	equ	__end_of_setCDSPoint-_setCDSPoint
  3821                           	
  3822  04D0                     _setCDSPoint:	
  3823                           	opt	stack 3
  3824                           ; Regs used in _setCDSPoint: [wreg]
  3825                           ;setCDSPoint@cds stored from wreg
  3826                           	line	10
  3827  04D0  1283               	bcf	status, 5	;RP0=0, select bank0
  3828  04D1  1303               	bcf	status, 6	;RP1=0, select bank0
  3829  04D2  00D7               	movwf	(setCDSPoint@cds)
  3830                           	
  3831  04D3                     l15639:	
  3832                           ;CDS_B1.c: 10: if(cds == 1)
  3833  04D3  0857               	movf	(setCDSPoint@cds),w
  3834  04D4  3A01               	xorlw	01h
  3835  04D5  1D03               	skipz
  3836  04D6  2CD8               	goto	u3481
  3837  04D7  2CD9               	goto	u3480
  3838  04D8                     u3481:
  3839  04D8  2CDE               	goto	l11859
  3840  04D9                     u3480:
  3841                           	line	12
  3842                           	
  3843  04D9                     l15641:	
  3844                           ;CDS_B1.c: 11: {
  3845                           ;CDS_B1.c: 12: CDS=&_CDS1;
  3846  04D9  3045               	movlw	(__CDS1)&0ffh
  3847  04DA  00D6               	movwf	(??_setCDSPoint+0)+0
  3848  04DB  0856               	movf	(??_setCDSPoint+0)+0,w
  3849  04DC  00A0               	movwf	(_CDS)
  3850  04DD  2CDE               	goto	l11859
  3851                           	line	13
  3852                           	
  3853  04DE                     l11858:	
  3854                           	line	15
  3855                           	
  3856  04DE                     l11859:	
  3857  04DE  0008               	return
  3858                           	opt stack 0
  3859                           GLOBAL	__end_of_setCDSPoint
  3860  04DF                     	__end_of_setCDSPoint:
  3861 ;; =============== function _setCDSPoint ends ============
  3862                           
  3863                           	signat	_setCDSPoint,4216
  3864                           	global	_LightsPointSelect
  3865                           psect	text1107,local,class=CODE,delta=2
  3866                           global __ptext1107
  3867  04DF                     __ptext1107:
  3868                           
  3869 ;; *************** function _LightsPointSelect *****************
  3870 ;; Defined at:
  3871 ;;		line 10 in file "G:\Program\PIC\Source_File\TriacRelay_B1.c"
  3872 ;; Parameters:    Size  Location     Type
  3873 ;;  lights          1    wreg     unsigned char 
  3874 ;; Auto vars:     Size  Location     Type
  3875 ;;  lights          1    1[BANK0 ] unsigned char 
  3876 ;; Return value:  Size  Location     Type
  3877 ;;		None               void
  3878 ;; Registers used:
  3879 ;;		wreg
  3880 ;; Tracked objects:
  3881 ;;		On entry : 0/0
  3882 ;;		On exit  : 0/0
  3883 ;;		Unchanged: 0/0
  3884 ;; Data sizes:     COMMON   BANK0   BANK1   BANK2
  3885 ;;      Params:         0       0       0       0
  3886 ;;      Locals:         0       1       0       0
  3887 ;;      Temps:          0       1       0       0
  3888 ;;      Totals:         0       2       0       0
  3889 ;;Total ram usage:        2 bytes
  3890 ;; Hardware stack levels used:    1
  3891 ;; Hardware stack levels required when called:    2
  3892 ;; This function calls:
  3893 ;;		Nothing
  3894 ;; This function is called by:
  3895 ;;		_setLights_Initialization
  3896 ;;		_setLights_Main
  3897 ;;		_setLights_Trigger
  3898 ;;		_setLights_Switch
  3899 ;;		_setLights
  3900 ;;		_Lights_Control
  3901 ;;		_setLights_Open
  3902 ;;		_getLights_Open
  3903 ;;		_setLights_Close
  3904 ;;		_getLights_Close
  3905 ;; This function uses a non-reentrant model
  3906 ;;
  3907                           psect	text1107
  3908                           	file	"G:\Program\PIC\Source_File\TriacRelay_B1.c"
  3909                           	line	10
  3910                           	global	__size_of_LightsPointSelect
  3911  000F                     	__size_of_LightsPointSelect	equ	__end_of_LightsPointSelect-_LightsPointSelect
  3912                           	
  3913  04DF                     _LightsPointSelect:	
  3914                           	opt	stack 2
  3915                           ; Regs used in _LightsPointSelect: [wreg]
  3916                           ;LightsPointSelect@lights stored from wreg
  3917                           	line	12
  3918  04DF  1283               	bcf	status, 5	;RP0=0, select bank0
  3919  04E0  1303               	bcf	status, 6	;RP1=0, select bank0
  3920  04E1  00D7               	movwf	(LightsPointSelect@lights)
  3921                           	
  3922  04E2                     l15619:	
  3923                           ;TriacRelay_B1.c: 12: if(lights == 1)
  3924  04E2  0857               	movf	(LightsPointSelect@lights),w
  3925  04E3  3A01               	xorlw	01h
  3926  04E4  1D03               	skipz
  3927  04E5  2CE7               	goto	u3471
  3928  04E6  2CE8               	goto	u3470
  3929  04E7                     u3471:
  3930  04E7  2CED               	goto	l10956
  3931  04E8                     u3470:
  3932                           	line	14
  3933                           	
  3934  04E8                     l15621:	
  3935                           ;TriacRelay_B1.c: 13: {
  3936                           ;TriacRelay_B1.c: 14: Lights=&Lights1;
  3937  04E8  3035               	movlw	(_Lights1)&0ffh
  3938  04E9  00D6               	movwf	(??_LightsPointSelect+0)+0
  3939  04EA  0856               	movf	(??_LightsPointSelect+0)+0,w
  3940  04EB  00A2               	movwf	(_Lights)
  3941  04EC  2CED               	goto	l10956
  3942                           	line	15
  3943                           	
  3944  04ED                     l10955:	
  3945                           	line	31
  3946                           	
  3947  04ED                     l10956:	
  3948  04ED  0008               	return
  3949                           	opt stack 0
  3950                           GLOBAL	__end_of_LightsPointSelect
  3951  04EE                     	__end_of_LightsPointSelect:
  3952 ;; =============== function _LightsPointSelect ends ============
  3953                           
  3954                           	signat	_LightsPointSelect,4216
  3955                           	global	_getAD
  3956                           psect	text1108,local,class=CODE,delta=2
  3957                           global __ptext1108
  3958  042E                     __ptext1108:
  3959                           
  3960 ;; *************** function _getAD *****************
  3961 ;; Defined at:
  3962 ;;		line 235 in file "G:\Program\PIC\Source_File\MCU_16f723a_B1.c"
  3963 ;; Parameters:    Size  Location     Type
  3964 ;;  adcon0          1    wreg     unsigned char 
  3965 ;;  adcon1          1    0[BANK0 ] unsigned char 
  3966 ;; Auto vars:     Size  Location     Type
  3967 ;;  adcon0          1    1[BANK0 ] unsigned char 
  3968 ;; Return value:  Size  Location     Type
  3969 ;;                  1    wreg      unsigned char 
  3970 ;; Registers used:
  3971 ;;		wreg
  3972 ;; Tracked objects:
  3973 ;;		On entry : 0/0
  3974 ;;		On exit  : 0/0
  3975 ;;		Unchanged: 0/0
  3976 ;; Data sizes:     COMMON   BANK0   BANK1   BANK2
  3977 ;;      Params:         0       1       0       0
  3978 ;;      Locals:         0       1       0       0
  3979 ;;      Temps:          0       0       0       0
  3980 ;;      Totals:         0       2       0       0
  3981 ;;Total ram usage:        2 bytes
  3982 ;; Hardware stack levels used:    1
  3983 ;; Hardware stack levels required when called:    2
  3984 ;; This function calls:
  3985 ;;		Nothing
  3986 ;; This function is called by:
  3987 ;;		_getCDS_AD
  3988 ;; This function uses a non-reentrant model
  3989 ;;
  3990                           psect	text1108
  3991                           	file	"G:\Program\PIC\Source_File\MCU_16f723a_B1.c"
  3992                           	line	235
  3993                           	global	__size_of_getAD
  3994  0015                     	__size_of_getAD	equ	__end_of_getAD-_getAD
  3995                           	
  3996  042E                     _getAD:	
  3997                           	opt	stack 4
  3998                           ; Regs used in _getAD: [wreg]
  3999                           ;getAD@adcon0 stored from wreg
  4000  042E  1283               	bcf	status, 5	;RP0=0, select bank0
  4001  042F  1303               	bcf	status, 6	;RP1=0, select bank0
  4002  0430  00D7               	movwf	(getAD@adcon0)
  4003                           	line	236
  4004                           	
  4005  0431                     l15611:	
  4006                           ;MCU_16f723a_B1.c: 236: ADCON0=adcon0;
  4007  0431  0857               	movf	(getAD@adcon0),w
  4008  0432  009F               	movwf	(31)	;volatile
  4009                           	line	237
  4010                           ;MCU_16f723a_B1.c: 237: ADCON1=adcon1;
  4011  0433  0856               	movf	(getAD@adcon1),w
  4012  0434  1683               	bsf	status, 5	;RP0=1, select bank1
  4013  0435  1303               	bcf	status, 6	;RP1=0, select bank1
  4014  0436  009F               	movwf	(159)^080h	;volatile
  4015                           	line	238
  4016                           	
  4017  0437                     l15613:	
  4018                           ;MCU_16f723a_B1.c: 238: GO_nDONE=1;
  4019  0437  1283               	bcf	status, 5	;RP0=0, select bank0
  4020  0438  1303               	bcf	status, 6	;RP1=0, select bank0
  4021  0439  149F               	bsf	(249/8),(249)&7
  4022                           	line	239
  4023                           ;MCU_16f723a_B1.c: 239: while(GO_nDONE);
  4024  043A  2C3B               	goto	l10105
  4025                           	
  4026  043B                     l10106:	
  4027                           	
  4028  043B                     l10105:	
  4029  043B  189F               	btfsc	(249/8),(249)&7
  4030  043C  2C3E               	goto	u3461
  4031  043D  2C3F               	goto	u3460
  4032  043E                     u3461:
  4033  043E  2C3B               	goto	l10105
  4034  043F                     u3460:
  4035  043F  2C40               	goto	l15615
  4036                           	
  4037  0440                     l10107:	
  4038                           	line	240
  4039                           	
  4040  0440                     l15615:	
  4041                           ;MCU_16f723a_B1.c: 240: return ADRES;
  4042  0440  081E               	movf	(30),w	;volatile
  4043  0441  2C42               	goto	l10108
  4044                           	
  4045  0442                     l15617:	
  4046                           	line	241
  4047                           	
  4048  0442                     l10108:	
  4049  0442  0008               	return
  4050                           	opt stack 0
  4051                           GLOBAL	__end_of_getAD
  4052  0443                     	__end_of_getAD:
  4053 ;; =============== function _getAD ends ============
  4054                           
  4055                           	signat	_getAD,8313
  4056                           	global	_ADC_Set
  4057                           psect	text1109,local,class=CODE,delta=2
  4058                           global __ptext1109
  4059  0527                     __ptext1109:
  4060                           
  4061 ;; *************** function _ADC_Set *****************
  4062 ;; Defined at:
  4063 ;;		line 229 in file "G:\Program\PIC\Source_File\MCU_16f723a_B1.c"
  4064 ;; Parameters:    Size  Location     Type
  4065 ;;		None
  4066 ;; Auto vars:     Size  Location     Type
  4067 ;;		None
  4068 ;; Return value:  Size  Location     Type
  4069 ;;		None               void
  4070 ;; Registers used:
  4071 ;;		wreg
  4072 ;; Tracked objects:
  4073 ;;		On entry : 0/0
  4074 ;;		On exit  : 0/0
  4075 ;;		Unchanged: 0/0
  4076 ;; Data sizes:     COMMON   BANK0   BANK1   BANK2
  4077 ;;      Params:         0       0       0       0
  4078 ;;      Locals:         0       0       0       0
  4079 ;;      Temps:          0       0       0       0
  4080 ;;      Totals:         0       0       0       0
  4081 ;;Total ram usage:        0 bytes
  4082 ;; Hardware stack levels used:    1
  4083 ;; Hardware stack levels required when called:    2
  4084 ;; This function calls:
  4085 ;;		Nothing
  4086 ;; This function is called by:
  4087 ;;		_Mcu_Initialization
  4088 ;; This function uses a non-reentrant model
  4089 ;;
  4090                           psect	text1109
  4091                           	file	"G:\Program\PIC\Source_File\MCU_16f723a_B1.c"
  4092                           	line	229
  4093                           	global	__size_of_ADC_Set
  4094  0007                     	__size_of_ADC_Set	equ	__end_of_ADC_Set-_ADC_Set
  4095                           	
  4096  0527                     _ADC_Set:	
  4097                           	opt	stack 4
  4098                           ; Regs used in _ADC_Set: [wreg]
  4099                           	line	230
  4100                           	
  4101  0527                     l15207:	
  4102                           ;MCU_16f723a_B1.c: 230: ADCON1=0x72;
  4103  0527  3072               	movlw	(072h)
  4104  0528  1683               	bsf	status, 5	;RP0=1, select bank1
  4105  0529  1303               	bcf	status, 6	;RP1=0, select bank1
  4106  052A  009F               	movwf	(159)^080h	;volatile
  4107                           	line	231
  4108                           ;MCU_16f723a_B1.c: 231: FVRCON=0xc1;
  4109  052B  30C1               	movlw	(0C1h)
  4110  052C  009D               	movwf	(157)^080h	;volatile
  4111                           	line	232
  4112                           	
  4113  052D                     l10102:	
  4114  052D  0008               	return
  4115                           	opt stack 0
  4116                           GLOBAL	__end_of_ADC_Set
  4117  052E                     	__end_of_ADC_Set:
  4118 ;; =============== function _ADC_Set ends ============
  4119                           
  4120                           	signat	_ADC_Set,88
  4121                           	global	_TMR0_Set
  4122                           psect	text1110,local,class=CODE,delta=2
  4123                           global __ptext1110
  4124  0415                     __ptext1110:
  4125                           
  4126 ;; *************** function _TMR0_Set *****************
  4127 ;; Defined at:
  4128 ;;		line 70 in file "G:\Program\PIC\Source_File\MCU_16f723a_B1.c"
  4129 ;; Parameters:    Size  Location     Type
  4130 ;;		None
  4131 ;; Auto vars:     Size  Location     Type
  4132 ;;		None
  4133 ;; Return value:  Size  Location     Type
  4134 ;;		None               void
  4135 ;; Registers used:
  4136 ;;		wreg, fsr0l, fsr0h, status,2
  4137 ;; Tracked objects:
  4138 ;;		On entry : 0/0
  4139 ;;		On exit  : 0/0
  4140 ;;		Unchanged: 0/0
  4141 ;; Data sizes:     COMMON   BANK0   BANK1   BANK2
  4142 ;;      Params:         0       0       0       0
  4143 ;;      Locals:         0       0       0       0
  4144 ;;      Temps:          0       1       0       0
  4145 ;;      Totals:         0       1       0       0
  4146 ;;Total ram usage:        1 bytes
  4147 ;; Hardware stack levels used:    1
  4148 ;; Hardware stack levels required when called:    2
  4149 ;; This function calls:
  4150 ;;		Nothing
  4151 ;; This function is called by:
  4152 ;;		_Mcu_Initialization
  4153 ;; This function uses a non-reentrant model
  4154 ;;
  4155                           psect	text1110
  4156                           	file	"G:\Program\PIC\Source_File\MCU_16f723a_B1.c"
  4157                           	line	70
  4158                           	global	__size_of_TMR0_Set
  4159  0019                     	__size_of_TMR0_Set	equ	__end_of_TMR0_Set-_TMR0_Set
  4160                           	
  4161  0415                     _TMR0_Set:	
  4162                           	opt	stack 4
  4163                           ; Regs used in _TMR0_Set: [wreg-fsr0h+status,2]
  4164                           	line	71
  4165                           	
  4166  0415                     l15599:	
  4167                           ;MCU_16f723a_B1.c: 71: Timer0=&VarTimer0;
  4168  0415  303E               	movlw	(_VarTimer0)&0ffh
  4169  0416  1283               	bcf	status, 5	;RP0=0, select bank0
  4170  0417  1303               	bcf	status, 6	;RP1=0, select bank0
  4171  0418  00D6               	movwf	(??_TMR0_Set+0)+0
  4172  0419  0856               	movf	(??_TMR0_Set+0)+0,w
  4173  041A  00F7               	movwf	(_Timer0)
  4174                           	line	72
  4175                           	
  4176  041B                     l15601:	
  4177                           ;MCU_16f723a_B1.c: 72: Timer0->DimmerCountValue=158;
  4178  041B  0877               	movf	(_Timer0),w
  4179  041C  3E05               	addlw	05h
  4180  041D  0084               	movwf	fsr0
  4181  041E  309E               	movlw	low(09Eh)
  4182  041F  1383               	bcf	status, 7	;select IRP bank0
  4183  0420  0080               	movwf	indf
  4184  0421  0A84               	incf	fsr0,f
  4185  0422  3000               	movlw	high(09Eh)
  4186  0423  0080               	movwf	indf
  4187                           	line	73
  4188                           	
  4189  0424                     l15603:	
  4190                           ;MCU_16f723a_B1.c: 73: OPTION_REG=0x00;
  4191  0424  1683               	bsf	status, 5	;RP0=1, select bank1
  4192  0425  1303               	bcf	status, 6	;RP1=0, select bank1
  4193  0426  0181               	clrf	(129)^080h	;volatile
  4194                           	line	74
  4195                           	
  4196  0427                     l15605:	
  4197                           ;MCU_16f723a_B1.c: 74: TMR0=(256-90);
  4198  0427  30A6               	movlw	(0A6h)
  4199  0428  1283               	bcf	status, 5	;RP0=0, select bank0
  4200  0429  1303               	bcf	status, 6	;RP1=0, select bank0
  4201  042A  0081               	movwf	(1)	;volatile
  4202                           	line	75
  4203                           	
  4204  042B                     l15607:	
  4205                           ;MCU_16f723a_B1.c: 75: TMR0IE=1;
  4206  042B  168B               	bsf	(93/8),(93)&7
  4207                           	line	76
  4208                           	
  4209  042C                     l15609:	
  4210                           ;MCU_16f723a_B1.c: 76: GIE=1;
  4211  042C  178B               	bsf	(95/8),(95)&7
  4212                           	line	77
  4213                           	
  4214  042D                     l10091:	
  4215  042D  0008               	return
  4216                           	opt stack 0
  4217                           GLOBAL	__end_of_TMR0_Set
  4218  042E                     	__end_of_TMR0_Set:
  4219 ;; =============== function _TMR0_Set ends ============
  4220                           
  4221                           	signat	_TMR0_Set,88
  4222                           	global	_IO_Set
  4223                           psect	text1111,local,class=CODE,delta=2
  4224                           global __ptext1111
  4225  0443                     __ptext1111:
  4226                           
  4227 ;; *************** function _IO_Set *****************
  4228 ;; Defined at:
  4229 ;;		line 38 in file "G:\Program\PIC\Source_File\MCU_16f723a_B1.c"
  4230 ;; Parameters:    Size  Location     Type
  4231 ;;		None
  4232 ;; Auto vars:     Size  Location     Type
  4233 ;;		None
  4234 ;; Return value:  Size  Location     Type
  4235 ;;		None               void
  4236 ;; Registers used:
  4237 ;;		wreg, status,2
  4238 ;; Tracked objects:
  4239 ;;		On entry : 0/0
  4240 ;;		On exit  : 0/0
  4241 ;;		Unchanged: 0/0
  4242 ;; Data sizes:     COMMON   BANK0   BANK1   BANK2
  4243 ;;      Params:         0       0       0       0
  4244 ;;      Locals:         0       0       0       0
  4245 ;;      Temps:          0       0       0       0
  4246 ;;      Totals:         0       0       0       0
  4247 ;;Total ram usage:        0 bytes
  4248 ;; Hardware stack levels used:    1
  4249 ;; Hardware stack levels required when called:    2
  4250 ;; This function calls:
  4251 ;;		Nothing
  4252 ;; This function is called by:
  4253 ;;		_Mcu_Initialization
  4254 ;; This function uses a non-reentrant model
  4255 ;;
  4256                           psect	text1111
  4257                           	file	"G:\Program\PIC\Source_File\MCU_16f723a_B1.c"
  4258                           	line	38
  4259                           	global	__size_of_IO_Set
  4260  0015                     	__size_of_IO_Set	equ	__end_of_IO_Set-_IO_Set
  4261                           	
  4262  0443                     _IO_Set:	
  4263                           	opt	stack 4
  4264                           ; Regs used in _IO_Set: [wreg+status,2]
  4265                           	line	39
  4266                           	
  4267  0443                     l15181:	
  4268                           ;MCU_16f723a_B1.c: 39: TRISA=0b00101111;;
  4269  0443  302F               	movlw	(02Fh)
  4270  0444  1683               	bsf	status, 5	;RP0=1, select bank1
  4271  0445  1303               	bcf	status, 6	;RP1=0, select bank1
  4272  0446  0085               	movwf	(133)^080h	;volatile
  4273                           	line	40
  4274                           ;MCU_16f723a_B1.c: 40: TRISB=0b00000001;;
  4275  0447  3001               	movlw	(01h)
  4276  0448  0086               	movwf	(134)^080h	;volatile
  4277                           	line	41
  4278                           	
  4279  0449                     l15183:	
  4280                           ;MCU_16f723a_B1.c: 41: TRISC=0b00000000;;
  4281  0449  0187               	clrf	(135)^080h	;volatile
  4282                           	line	42
  4283                           	
  4284  044A                     l15185:	
  4285                           ;MCU_16f723a_B1.c: 42: ANSELA=0b00000111;;
  4286  044A  3007               	movlw	(07h)
  4287  044B  1683               	bsf	status, 5	;RP0=1, select bank3
  4288  044C  1703               	bsf	status, 6	;RP1=1, select bank3
  4289  044D  0085               	movwf	(389)^0180h	;volatile
  4290                           	line	43
  4291                           	
  4292  044E                     l15187:	
  4293                           ;MCU_16f723a_B1.c: 43: ANSELB=0b00000001;;
  4294  044E  3001               	movlw	(01h)
  4295  044F  0086               	movwf	(390)^0180h	;volatile
  4296                           	line	44
  4297                           	
  4298  0450                     l15189:	
  4299                           ;MCU_16f723a_B1.c: 44: PORTA=0b10101111;;
  4300  0450  30AF               	movlw	(0AFh)
  4301  0451  1283               	bcf	status, 5	;RP0=0, select bank0
  4302  0452  1303               	bcf	status, 6	;RP1=0, select bank0
  4303  0453  0085               	movwf	(5)	;volatile
  4304                           	line	45
  4305                           	
  4306  0454                     l15191:	
  4307                           ;MCU_16f723a_B1.c: 45: PORTB=0b00000001;;
  4308  0454  3001               	movlw	(01h)
  4309  0455  0086               	movwf	(6)	;volatile
  4310                           	line	46
  4311                           	
  4312  0456                     l15193:	
  4313                           ;MCU_16f723a_B1.c: 46: PORTC=0b00000000;;
  4314  0456  0187               	clrf	(7)	;volatile
  4315                           	line	47
  4316                           	
  4317  0457                     l10085:	
  4318  0457  0008               	return
  4319                           	opt stack 0
  4320                           GLOBAL	__end_of_IO_Set
  4321  0458                     	__end_of_IO_Set:
  4322 ;; =============== function _IO_Set ends ============
  4323                           
  4324                           	signat	_IO_Set,88
  4325                           	global	_PIR_Main
  4326                           psect	text1112,local,class=CODE,delta=2
  4327                           global __ptext1112
  4328  053D                     __ptext1112:
  4329                           
  4330 ;; *************** function _PIR_Main *****************
  4331 ;; Defined at:
  4332 ;;		line 14 in file "G:\Program\PIC\Source_File\PIR_B1.c"
  4333 ;; Parameters:    Size  Location     Type
  4334 ;;		None
  4335 ;; Auto vars:     Size  Location     Type
  4336 ;;		None
  4337 ;; Return value:  Size  Location     Type
  4338 ;;		None               void
  4339 ;; Registers used:
  4340 ;;		None
  4341 ;; Tracked objects:
  4342 ;;		On entry : 0/0
  4343 ;;		On exit  : 0/0
  4344 ;;		Unchanged: 0/0
  4345 ;; Data sizes:     COMMON   BANK0   BANK1   BANK2
  4346 ;;      Params:         0       0       0       0
  4347 ;;      Locals:         0       0       0       0
  4348 ;;      Temps:          0       0       0       0
  4349 ;;      Totals:         0       0       0       0
  4350 ;;Total ram usage:        0 bytes
  4351 ;; Hardware stack levels used:    1
  4352 ;; Hardware stack levels required when called:    2
  4353 ;; This function calls:
  4354 ;;		Nothing
  4355 ;; This function is called by:
  4356 ;;		_main
  4357 ;; This function uses a non-reentrant model
  4358 ;;
  4359                           psect	text1112
  4360                           	file	"G:\Program\PIC\Source_File\PIR_B1.c"
  4361                           	line	14
  4362                           	global	__size_of_PIR_Main
  4363  0001                     	__size_of_PIR_Main	equ	__end_of_PIR_Main-_PIR_Main
  4364                           	
  4365  053D                     _PIR_Main:	
  4366                           	opt	stack 5
  4367                           ; Regs used in _PIR_Main: []
  4368                           	line	15
  4369                           	
  4370  053D                     l13581:	
  4371  053D  0008               	return
  4372                           	opt stack 0
  4373                           GLOBAL	__end_of_PIR_Main
  4374  053E                     	__end_of_PIR_Main:
  4375 ;; =============== function _PIR_Main ends ============
  4376                           
  4377                           	signat	_PIR_Main,88
  4378                           	global	_SYSC_Main
  4379                           psect	text1113,local,class=CODE,delta=2
  4380                           global __ptext1113
  4381  053E                     __ptext1113:
  4382                           
  4383 ;; *************** function _SYSC_Main *****************
  4384 ;; Defined at:
  4385 ;;		line 31 in file "G:\Program\PIC\Source_File\SYSC_B1.c"
  4386 ;; Parameters:    Size  Location     Type
  4387 ;;		None
  4388 ;; Auto vars:     Size  Location     Type
  4389 ;;		None
  4390 ;; Return value:  Size  Location     Type
  4391 ;;		None               void
  4392 ;; Registers used:
  4393 ;;		None
  4394 ;; Tracked objects:
  4395 ;;		On entry : 0/0
  4396 ;;		On exit  : 0/0
  4397 ;;		Unchanged: 0/0
  4398 ;; Data sizes:     COMMON   BANK0   BANK1   BANK2
  4399 ;;      Params:         0       0       0       0
  4400 ;;      Locals:         0       0       0       0
  4401 ;;      Temps:          0       0       0       0
  4402 ;;      Totals:         0       0       0       0
  4403 ;;Total ram usage:        0 bytes
  4404 ;; Hardware stack levels used:    1
  4405 ;; Hardware stack levels required when called:    2
  4406 ;; This function calls:
  4407 ;;		Nothing
  4408 ;; This function is called by:
  4409 ;;		_main
  4410 ;; This function uses a non-reentrant model
  4411 ;;
  4412                           psect	text1113
  4413                           	file	"G:\Program\PIC\Source_File\SYSC_B1.c"
  4414                           	line	31
  4415                           	global	__size_of_SYSC_Main
  4416  0001                     	__size_of_SYSC_Main	equ	__end_of_SYSC_Main-_SYSC_Main
  4417                           	
  4418  053E                     _SYSC_Main:	
  4419                           	opt	stack 5
  4420                           ; Regs used in _SYSC_Main: []
  4421                           	line	35
  4422                           	
  4423  053E                     l12728:	
  4424  053E  0008               	return
  4425                           	opt stack 0
  4426                           GLOBAL	__end_of_SYSC_Main
  4427  053F                     	__end_of_SYSC_Main:
  4428 ;; =============== function _SYSC_Main ends ============
  4429                           
  4430                           	signat	_SYSC_Main,88
  4431                           	global	_MainT
  4432                           psect	text1114,local,class=CODE,delta=2
  4433                           global __ptext1114
  4434  0207                     __ptext1114:
  4435                           
  4436 ;; *************** function _MainT *****************
  4437 ;; Defined at:
  4438 ;;		line 102 in file "G:\Program\PIC\Source_File\main.c"
  4439 ;; Parameters:    Size  Location     Type
  4440 ;;		None
  4441 ;; Auto vars:     Size  Location     Type
  4442 ;;		None
  4443 ;; Return value:  Size  Location     Type
  4444 ;;		None               void
  4445 ;; Registers used:
  4446 ;;		wreg, fsr0l, fsr0h, status,2, status,0
  4447 ;; Tracked objects:
  4448 ;;		On entry : 0/0
  4449 ;;		On exit  : 0/0
  4450 ;;		Unchanged: 0/0
  4451 ;; Data sizes:     COMMON   BANK0   BANK1   BANK2
  4452 ;;      Params:         0       0       0       0
  4453 ;;      Locals:         0       0       0       0
  4454 ;;      Temps:          0       2       0       0
  4455 ;;      Totals:         0       2       0       0
  4456 ;;Total ram usage:        2 bytes
  4457 ;; Hardware stack levels used:    1
  4458 ;; Hardware stack levels required when called:    2
  4459 ;; This function calls:
  4460 ;;		Nothing
  4461 ;; This function is called by:
  4462 ;;		_main
  4463 ;; This function uses a non-reentrant model
  4464 ;;
  4465                           psect	text1114
  4466                           	file	"G:\Program\PIC\Source_File\main.c"
  4467                           	line	102
  4468                           	global	__size_of_MainT
  4469  0061                     	__size_of_MainT	equ	__end_of_MainT-_MainT
  4470                           	
  4471  0207                     _MainT:	
  4472                           	opt	stack 5
  4473                           ; Regs used in _MainT: [wreg-fsr0h+status,2+status,0]
  4474                           	line	104
  4475                           	
  4476  0207                     l15581:	
  4477                           ;main.c: 104: if(!TMain->PowerON)
  4478  0207  1283               	bcf	status, 5	;RP0=0, select bank0
  4479  0208  1303               	bcf	status, 6	;RP1=0, select bank0
  4480  0209  0824               	movf	(_TMain),w
  4481  020A  0084               	movwf	fsr0
  4482  020B  1383               	bcf	status, 7	;select IRP bank0
  4483  020C  1800               	btfsc	indf,0
  4484  020D  2A0F               	goto	u3421
  4485  020E  2A10               	goto	u3420
  4486  020F                     u3421:
  4487  020F  2A38               	goto	l15589
  4488  0210                     u3420:
  4489                           	line	106
  4490                           	
  4491  0210                     l15583:	
  4492                           ;main.c: 105: {
  4493                           ;main.c: 106: TMain->PowerCount++;
  4494  0210  0824               	movf	(_TMain),w
  4495  0211  3E01               	addlw	01h
  4496  0212  0084               	movwf	fsr0
  4497  0213  3001               	movlw	01h
  4498  0214  0780               	addwf	indf,f
  4499  0215  0A84               	incf	fsr0,f
  4500  0216  1803               	skipnc
  4501  0217  0A80               	incf	indf,f
  4502                           	line	107
  4503                           	
  4504  0218                     l15585:	
  4505                           ;main.c: 107: if(TMain->PowerCount == 150)
  4506  0218  0824               	movf	(_TMain),w
  4507  0219  3E01               	addlw	01h
  4508  021A  0084               	movwf	fsr0
  4509  021B  0800               	movf	indf,w
  4510  021C  00D6               	movwf	(??_MainT+0)+0+0
  4511  021D  0A84               	incf	fsr0,f
  4512  021E  0800               	movf	indf,w
  4513  021F  00D7               	movwf	(??_MainT+0)+0+1
  4514  0220  3096               	movlw	096h
  4515  0221  0656               	xorwf	0+(??_MainT+0)+0,w
  4516  0222  0457               	iorwf	1+(??_MainT+0)+0,w
  4517  0223  1D03               	skipz
  4518  0224  2A26               	goto	u3431
  4519  0225  2A27               	goto	u3430
  4520  0226                     u3431:
  4521  0226  2A67               	goto	l5091
  4522  0227                     u3430:
  4523                           	line	109
  4524                           	
  4525  0227                     l15587:	
  4526                           ;main.c: 108: {
  4527                           ;main.c: 109: TMain->PowerCount=0;
  4528  0227  0824               	movf	(_TMain),w
  4529  0228  3E01               	addlw	01h
  4530  0229  0084               	movwf	fsr0
  4531  022A  3000               	movlw	low(0)
  4532  022B  0080               	movwf	indf
  4533  022C  0A84               	incf	fsr0,f
  4534  022D  3000               	movlw	high(0)
  4535  022E  0080               	movwf	indf
  4536                           	line	110
  4537                           ;main.c: 110: TMain->PowerON=1;
  4538  022F  0824               	movf	(_TMain),w
  4539  0230  0084               	movwf	fsr0
  4540  0231  1400               	bsf	indf,0
  4541                           	line	124
  4542                           ;main.c: 123: ;;
  4543                           ;main.c: 124: TMain->SelfTest=1;
  4544  0232  0824               	movf	(_TMain),w
  4545  0233  3E03               	addlw	03h
  4546  0234  0084               	movwf	fsr0
  4547  0235  1400               	bsf	indf,0
  4548  0236  2A67               	goto	l5091
  4549                           	line	143
  4550                           ;main.c: 127: ;;
  4551                           ;main.c: 139: ;;
  4552                           	
  4553  0237                     l5086:	
  4554                           	line	144
  4555                           ;main.c: 143: }
  4556                           ;main.c: 144: }
  4557  0237  2A67               	goto	l5091
  4558                           	line	145
  4559                           	
  4560  0238                     l5085:	
  4561                           	line	154
  4562                           	
  4563  0238                     l15589:	
  4564                           ;main.c: 145: else
  4565                           ;main.c: 146: {
  4566                           ;main.c: 154: TMain->Count1++;
  4567  0238  0824               	movf	(_TMain),w
  4568  0239  3E06               	addlw	06h
  4569  023A  0084               	movwf	fsr0
  4570  023B  3001               	movlw	01h
  4571  023C  0780               	addwf	indf,f
  4572  023D  0A84               	incf	fsr0,f
  4573  023E  1803               	skipnc
  4574  023F  0A80               	incf	indf,f
  4575                           	line	155
  4576                           	
  4577  0240                     l15591:	
  4578                           ;main.c: 155: if(TMain->Count1 == 100)
  4579  0240  0824               	movf	(_TMain),w
  4580  0241  3E06               	addlw	06h
  4581  0242  0084               	movwf	fsr0
  4582  0243  0800               	movf	indf,w
  4583  0244  00D6               	movwf	(??_MainT+0)+0+0
  4584  0245  0A84               	incf	fsr0,f
  4585  0246  0800               	movf	indf,w
  4586  0247  00D7               	movwf	(??_MainT+0)+0+1
  4587  0248  3064               	movlw	064h
  4588  0249  0656               	xorwf	0+(??_MainT+0)+0,w
  4589  024A  0457               	iorwf	1+(??_MainT+0)+0,w
  4590  024B  1D03               	skipz
  4591  024C  2A4E               	goto	u3441
  4592  024D  2A4F               	goto	u3440
  4593  024E                     u3441:
  4594  024E  2A67               	goto	l5091
  4595  024F                     u3440:
  4596                           	line	157
  4597                           	
  4598  024F                     l15593:	
  4599                           ;main.c: 156: {
  4600                           ;main.c: 157: TMain->Count1=0;
  4601  024F  0824               	movf	(_TMain),w
  4602  0250  3E06               	addlw	06h
  4603  0251  0084               	movwf	fsr0
  4604  0252  3000               	movlw	low(0)
  4605  0253  0080               	movwf	indf
  4606  0254  0A84               	incf	fsr0,f
  4607  0255  3000               	movlw	high(0)
  4608  0256  0080               	movwf	indf
  4609                           	line	168
  4610                           ;main.c: 168: if(TMain->Flag == 1)
  4611  0257  0824               	movf	(_TMain),w
  4612  0258  0084               	movwf	fsr0
  4613  0259  1D80               	btfss	indf,3
  4614  025A  2A5C               	goto	u3451
  4615  025B  2A5D               	goto	u3450
  4616  025C                     u3451:
  4617  025C  2A61               	goto	l15597
  4618  025D                     u3450:
  4619                           	line	170
  4620                           	
  4621  025D                     l15595:	
  4622                           ;main.c: 169: {
  4623                           ;main.c: 170: TMain->Flag=0;
  4624  025D  0824               	movf	(_TMain),w
  4625  025E  0084               	movwf	fsr0
  4626  025F  1180               	bcf	indf,3
  4627                           	line	177
  4628                           ;main.c: 177: }
  4629  0260  2A67               	goto	l5091
  4630                           	line	178
  4631                           	
  4632  0261                     l5089:	
  4633                           	line	180
  4634                           	
  4635  0261                     l15597:	
  4636                           ;main.c: 178: else
  4637                           ;main.c: 179: {
  4638                           ;main.c: 180: TMain->Flag=1;
  4639  0261  0824               	movf	(_TMain),w
  4640  0262  0084               	movwf	fsr0
  4641  0263  1580               	bsf	indf,3
  4642  0264  2A67               	goto	l5091
  4643                           	line	187
  4644                           	
  4645  0265                     l5090:	
  4646  0265  2A67               	goto	l5091
  4647                           	line	188
  4648                           	
  4649  0266                     l5088:	
  4650  0266  2A67               	goto	l5091
  4651                           	line	190
  4652                           	
  4653  0267                     l5087:	
  4654                           	line	191
  4655                           	
  4656  0267                     l5091:	
  4657  0267  0008               	return
  4658                           	opt stack 0
  4659                           GLOBAL	__end_of_MainT
  4660  0268                     	__end_of_MainT:
  4661 ;; =============== function _MainT ends ============
  4662                           
  4663                           	signat	_MainT,88
  4664                           	global	_getPIR_AD
  4665                           psect	text1115,local,class=CODE,delta=2
  4666                           global __ptext1115
  4667  053F                     __ptext1115:
  4668                           
  4669 ;; *************** function _getPIR_AD *****************
  4670 ;; Defined at:
  4671 ;;		line 23 in file "G:\Program\PIC\Source_File\PIR_B1.c"
  4672 ;; Parameters:    Size  Location     Type
  4673 ;;  pir             1    wreg     unsigned char 
  4674 ;;  channel1        1    0[BANK0 ] unsigned char 
  4675 ;;  charchannel2    1    1[BANK0 ] unsigned char 
  4676 ;; Auto vars:     Size  Location     Type
  4677 ;;		None
  4678 ;; Return value:  Size  Location     Type
  4679 ;;		None               void
  4680 ;; Registers used:
  4681 ;;		wreg
  4682 ;; Tracked objects:
  4683 ;;		On entry : 0/0
  4684 ;;		On exit  : 0/0
  4685 ;;		Unchanged: 0/0
  4686 ;; Data sizes:     COMMON   BANK0   BANK1   BANK2
  4687 ;;      Params:         0       2       0       0
  4688 ;;      Locals:         0       0       0       0
  4689 ;;      Temps:          0       0       0       0
  4690 ;;      Totals:         0       2       0       0
  4691 ;;Total ram usage:        2 bytes
  4692 ;; Hardware stack levels used:    1
  4693 ;; Hardware stack levels required when called:    2
  4694 ;; This function calls:
  4695 ;;		Nothing
  4696 ;; This function is called by:
  4697 ;;		_main
  4698 ;; This function uses a non-reentrant model
  4699 ;;
  4700                           psect	text1115
  4701                           	file	"G:\Program\PIC\Source_File\PIR_B1.c"
  4702                           	line	23
  4703                           	global	__size_of_getPIR_AD
  4704  0001                     	__size_of_getPIR_AD	equ	__end_of_getPIR_AD-_getPIR_AD
  4705                           	
  4706  053F                     _getPIR_AD:	
  4707                           	opt	stack 5
  4708                           ; Regs used in _getPIR_AD: [wreg]
  4709                           	line	24
  4710                           	
  4711  053F                     l13590:	
  4712  053F  0008               	return
  4713                           	opt stack 0
  4714                           GLOBAL	__end_of_getPIR_AD
  4715  0540                     	__end_of_getPIR_AD:
  4716 ;; =============== function _getPIR_AD ends ============
  4717                           
  4718                           	signat	_getPIR_AD,12408
  4719                           	global	_PIR_Initialization
  4720                           psect	text1116,local,class=CODE,delta=2
  4721                           global __ptext1116
  4722  0540                     __ptext1116:
  4723                           
  4724 ;; *************** function _PIR_Initialization *****************
  4725 ;; Defined at:
  4726 ;;		line 11 in file "G:\Program\PIC\Source_File\PIR_B1.c"
  4727 ;; Parameters:    Size  Location     Type
  4728 ;;		None
  4729 ;; Auto vars:     Size  Location     Type
  4730 ;;		None
  4731 ;; Return value:  Size  Location     Type
  4732 ;;		None               void
  4733 ;; Registers used:
  4734 ;;		None
  4735 ;; Tracked objects:
  4736 ;;		On entry : 0/0
  4737 ;;		On exit  : 0/0
  4738 ;;		Unchanged: 0/0
  4739 ;; Data sizes:     COMMON   BANK0   BANK1   BANK2
  4740 ;;      Params:         0       0       0       0
  4741 ;;      Locals:         0       0       0       0
  4742 ;;      Temps:          0       0       0       0
  4743 ;;      Totals:         0       0       0       0
  4744 ;;Total ram usage:        0 bytes
  4745 ;; Hardware stack levels used:    1
  4746 ;; Hardware stack levels required when called:    2
  4747 ;; This function calls:
  4748 ;;		Nothing
  4749 ;; This function is called by:
  4750 ;;		_main
  4751 ;; This function uses a non-reentrant model
  4752 ;;
  4753                           psect	text1116
  4754                           	file	"G:\Program\PIC\Source_File\PIR_B1.c"
  4755                           	line	11
  4756                           	global	__size_of_PIR_Initialization
  4757  0001                     	__size_of_PIR_Initialization	equ	__end_of_PIR_Initialization-_PIR_Initialization
  4758                           	
  4759  0540                     _PIR_Initialization:	
  4760                           	opt	stack 5
  4761                           ; Regs used in _PIR_Initialization: []
  4762                           	line	12
  4763                           	
  4764  0540                     l13578:	
  4765  0540  0008               	return
  4766                           	opt stack 0
  4767                           GLOBAL	__end_of_PIR_Initialization
  4768  0541                     	__end_of_PIR_Initialization:
  4769 ;; =============== function _PIR_Initialization ends ============
  4770                           
  4771                           	signat	_PIR_Initialization,88
  4772                           	global	_SYSC_Initialization
  4773                           psect	text1117,local,class=CODE,delta=2
  4774                           global __ptext1117
  4775  0541                     __ptext1117:
  4776                           
  4777 ;; *************** function _SYSC_Initialization *****************
  4778 ;; Defined at:
  4779 ;;		line 18 in file "G:\Program\PIC\Source_File\SYSC_B1.c"
  4780 ;; Parameters:    Size  Location     Type
  4781 ;;		None
  4782 ;; Auto vars:     Size  Location     Type
  4783 ;;		None
  4784 ;; Return value:  Size  Location     Type
  4785 ;;		None               void
  4786 ;; Registers used:
  4787 ;;		None
  4788 ;; Tracked objects:
  4789 ;;		On entry : 0/0
  4790 ;;		On exit  : 0/0
  4791 ;;		Unchanged: 0/0
  4792 ;; Data sizes:     COMMON   BANK0   BANK1   BANK2
  4793 ;;      Params:         0       0       0       0
  4794 ;;      Locals:         0       0       0       0
  4795 ;;      Temps:          0       0       0       0
  4796 ;;      Totals:         0       0       0       0
  4797 ;;Total ram usage:        0 bytes
  4798 ;; Hardware stack levels used:    1
  4799 ;; Hardware stack levels required when called:    2
  4800 ;; This function calls:
  4801 ;;		Nothing
  4802 ;; This function is called by:
  4803 ;;		_main
  4804 ;; This function uses a non-reentrant model
  4805 ;;
  4806                           psect	text1117
  4807                           	file	"G:\Program\PIC\Source_File\SYSC_B1.c"
  4808                           	line	18
  4809                           	global	__size_of_SYSC_Initialization
  4810  0001                     	__size_of_SYSC_Initialization	equ	__end_of_SYSC_Initialization-_SYSC_Initialization
  4811                           	
  4812  0541                     _SYSC_Initialization:	
  4813                           	opt	stack 5
  4814                           ; Regs used in _SYSC_Initialization: []
  4815                           	line	22
  4816                           	
  4817  0541                     l12722:	
  4818  0541  0008               	return
  4819                           	opt stack 0
  4820                           GLOBAL	__end_of_SYSC_Initialization
  4821  0542                     	__end_of_SYSC_Initialization:
  4822 ;; =============== function _SYSC_Initialization ends ============
  4823                           
  4824                           	signat	_SYSC_Initialization,88
  4825                           	global	_LedPointSelect
  4826                           psect	text1118,local,class=CODE,delta=2
  4827                           global __ptext1118
  4828  03D1                     __ptext1118:
  4829                           
  4830 ;; *************** function _LedPointSelect *****************
  4831 ;; Defined at:
  4832 ;;		line 8 in file "G:\Program\PIC\Source_File\LED_B1.c"
  4833 ;; Parameters:    Size  Location     Type
  4834 ;;  led             1    wreg     unsigned char 
  4835 ;; Auto vars:     Size  Location     Type
  4836 ;;  led             1    1[BANK0 ] unsigned char 
  4837 ;; Return value:  Size  Location     Type
  4838 ;;		None               void
  4839 ;; Registers used:
  4840 ;;		wreg
  4841 ;; Tracked objects:
  4842 ;;		On entry : 0/0
  4843 ;;		On exit  : 0/0
  4844 ;;		Unchanged: 0/0
  4845 ;; Data sizes:     COMMON   BANK0   BANK1   BANK2
  4846 ;;      Params:         0       0       0       0
  4847 ;;      Locals:         0       1       0       0
  4848 ;;      Temps:          0       1       0       0
  4849 ;;      Totals:         0       2       0       0
  4850 ;;Total ram usage:        2 bytes
  4851 ;; Hardware stack levels used:    1
  4852 ;; Hardware stack levels required when called:    2
  4853 ;; This function calls:
  4854 ;;		Nothing
  4855 ;; This function is called by:
  4856 ;;		_setLED_Initialization
  4857 ;;		_setLED
  4858 ;;		_setLED_Main
  4859 ;; This function uses a non-reentrant model
  4860 ;;
  4861                           psect	text1118
  4862                           	file	"G:\Program\PIC\Source_File\LED_B1.c"
  4863                           	line	8
  4864                           	global	__size_of_LedPointSelect
  4865  0027                     	__size_of_LedPointSelect	equ	__end_of_LedPointSelect-_LedPointSelect
  4866                           	
  4867  03D1                     _LedPointSelect:	
  4868                           	opt	stack 3
  4869                           ; Regs used in _LedPointSelect: [wreg]
  4870                           ;LedPointSelect@led stored from wreg
  4871                           	line	10
  4872  03D1  1283               	bcf	status, 5	;RP0=0, select bank0
  4873  03D2  1303               	bcf	status, 6	;RP1=0, select bank0
  4874  03D3  00D7               	movwf	(LedPointSelect@led)
  4875                           	
  4876  03D4                     l15569:	
  4877                           ;LED_B1.c: 10: if(led == 1)
  4878  03D4  0857               	movf	(LedPointSelect@led),w
  4879  03D5  3A01               	xorlw	01h
  4880  03D6  1D03               	skipz
  4881  03D7  2BD9               	goto	u3391
  4882  03D8  2BDA               	goto	u3390
  4883  03D9                     u3391:
  4884  03D9  2BDF               	goto	l15573
  4885  03DA                     u3390:
  4886                           	line	12
  4887                           	
  4888  03DA                     l15571:	
  4889                           ;LED_B1.c: 11: {
  4890                           ;LED_B1.c: 12: LED=&VarLED1;
  4891  03DA  304E               	movlw	(_VarLED1)&0ffh
  4892  03DB  00D6               	movwf	(??_LedPointSelect+0)+0
  4893  03DC  0856               	movf	(??_LedPointSelect+0)+0,w
  4894  03DD  00A1               	movwf	(_LED)
  4895                           	line	13
  4896                           ;LED_B1.c: 13: }
  4897  03DE  2BF7               	goto	l4164
  4898                           	line	16
  4899                           	
  4900  03DF                     l4159:	
  4901                           	
  4902  03DF                     l15573:	
  4903                           ;LED_B1.c: 16: else if(led == 2)
  4904  03DF  0857               	movf	(LedPointSelect@led),w
  4905  03E0  3A02               	xorlw	02h
  4906  03E1  1D03               	skipz
  4907  03E2  2BE4               	goto	u3401
  4908  03E3  2BE5               	goto	u3400
  4909  03E4                     u3401:
  4910  03E4  2BEA               	goto	l15577
  4911  03E5                     u3400:
  4912                           	line	18
  4913                           	
  4914  03E5                     l15575:	
  4915                           ;LED_B1.c: 17: {
  4916                           ;LED_B1.c: 18: LED=&VarLED2;
  4917  03E5  3052               	movlw	(_VarLED2)&0ffh
  4918  03E6  00D6               	movwf	(??_LedPointSelect+0)+0
  4919  03E7  0856               	movf	(??_LedPointSelect+0)+0,w
  4920  03E8  00A1               	movwf	(_LED)
  4921                           	line	19
  4922                           ;LED_B1.c: 19: }
  4923  03E9  2BF7               	goto	l4164
  4924                           	line	28
  4925                           	
  4926  03EA                     l4161:	
  4927                           	
  4928  03EA                     l15577:	
  4929                           ;LED_B1.c: 28: else if(led == 99)
  4930  03EA  0857               	movf	(LedPointSelect@led),w
  4931  03EB  3A63               	xorlw	063h
  4932  03EC  1D03               	skipz
  4933  03ED  2BEF               	goto	u3411
  4934  03EE  2BF0               	goto	u3410
  4935  03EF                     u3411:
  4936  03EF  2BF7               	goto	l4164
  4937  03F0                     u3410:
  4938                           	line	30
  4939                           	
  4940  03F0                     l15579:	
  4941                           ;LED_B1.c: 29: {
  4942                           ;LED_B1.c: 30: LED=&VarErrLED;
  4943  03F0  304A               	movlw	(_VarErrLED)&0ffh
  4944  03F1  00D6               	movwf	(??_LedPointSelect+0)+0
  4945  03F2  0856               	movf	(??_LedPointSelect+0)+0,w
  4946  03F3  00A1               	movwf	(_LED)
  4947  03F4  2BF7               	goto	l4164
  4948                           	line	31
  4949                           	
  4950  03F5                     l4163:	
  4951  03F5  2BF7               	goto	l4164
  4952                           	line	33
  4953                           	
  4954  03F6                     l4162:	
  4955  03F6  2BF7               	goto	l4164
  4956                           	
  4957  03F7                     l4160:	
  4958                           	
  4959  03F7                     l4164:	
  4960  03F7  0008               	return
  4961                           	opt stack 0
  4962                           GLOBAL	__end_of_LedPointSelect
  4963  03F8                     	__end_of_LedPointSelect:
  4964 ;; =============== function _LedPointSelect ends ============
  4965                           
  4966                           	signat	_LedPointSelect,4216
  4967                           	global	_ISR
  4968                           psect	text1119,local,class=CODE,delta=2
  4969                           global __ptext1119
  4970  04C0                     __ptext1119:
  4971                           
  4972 ;; *************** function _ISR *****************
  4973 ;; Defined at:
  4974 ;;		line 53 in file "G:\Program\PIC\Source_File\MCU_16f723a_B1.c"
  4975 ;; Parameters:    Size  Location     Type
  4976 ;;		None
  4977 ;; Auto vars:     Size  Location     Type
  4978 ;;		None
  4979 ;; Return value:  Size  Location     Type
  4980 ;;		None               void
  4981 ;; Registers used:
  4982 ;;		wreg, fsr0l, fsr0h, status,2, status,0, pclath, cstack
  4983 ;; Tracked objects:
  4984 ;;		On entry : 0/0
  4985 ;;		On exit  : 0/0
  4986 ;;		Unchanged: 0/0
  4987 ;; Data sizes:     COMMON   BANK0   BANK1   BANK2
  4988 ;;      Params:         0       0       0       0
  4989 ;;      Locals:         0       0       0       0
  4990 ;;      Temps:          4       0       0       0
  4991 ;;      Totals:         4       0       0       0
  4992 ;;Total ram usage:        4 bytes
  4993 ;; Hardware stack levels used:    1
  4994 ;; Hardware stack levels required when called:    1
  4995 ;; This function calls:
  4996 ;;		_TMR0_ISR
  4997 ;; This function is called by:
  4998 ;;		Interrupt level 1
  4999 ;; This function uses a non-reentrant model
  5000 ;;
  5001                           psect	text1119
  5002                           	file	"G:\Program\PIC\Source_File\MCU_16f723a_B1.c"
  5003                           	line	53
  5004                           	global	__size_of_ISR
  5005  0010                     	__size_of_ISR	equ	__end_of_ISR-_ISR
  5006                           	
  5007  04C0                     _ISR:	
  5008                           	opt	stack 2
  5009                           ; Regs used in _ISR: [wreg-fsr0h+status,2+status,0+pclath+cstack]
  5010                           psect	intentry,class=CODE,delta=2
  5011                           global __pintentry
  5012  0004                     __pintentry:
  5013                           global interrupt_function
  5014  0004                     interrupt_function:
  5015                           	global saved_w
  5016  007E                     	saved_w	set	btemp+0
  5017  0004  00FE               	movwf	saved_w
  5018  0005  0E03               	swapf	status,w
  5019  0006  00F2               	movwf	(??_ISR+0)
  5020  0007  0804               	movf	fsr0,w
  5021  0008  00F3               	movwf	(??_ISR+1)
  5022  0009  080A               	movf	pclath,w
  5023  000A  00F4               	movwf	(??_ISR+2)
  5024  000B  1283               	bcf	status, 5	;RP0=0, select bank0
  5025  000C  1303               	bcf	status, 6	;RP1=0, select bank0
  5026  000D  087F               	movf	btemp+1,w
  5027  000E  00F5               	movwf	(??_ISR+3)
  5028  000F  118A  2CC0         	ljmp	_ISR
  5029                           psect	text1119
  5030                           	line	56
  5031                           	
  5032  04C0                     i1l15209:	
  5033                           ;MCU_16f723a_B1.c: 54: ;;
  5034                           ;MCU_16f723a_B1.c: 56: TMR0_ISR();
  5035  04C0  118A  239E  118A   	fcall	_TMR0_ISR
  5036                           	line	65
  5037                           	
  5038  04C3                     i1l10088:	
  5039  04C3  0875               	movf	(??_ISR+3),w
  5040  04C4  1283               	bcf	status, 5	;RP0=0, select bank0
  5041  04C5  1303               	bcf	status, 6	;RP1=0, select bank0
  5042  04C6  00FF               	movwf	btemp+1
  5043  04C7  0874               	movf	(??_ISR+2),w
  5044  04C8  008A               	movwf	pclath
  5045  04C9  0873               	movf	(??_ISR+1),w
  5046  04CA  0084               	movwf	fsr0
  5047  04CB  0E72               	swapf	(??_ISR+0)^0FFFFFF80h,w
  5048  04CC  0083               	movwf	status
  5049  04CD  0EFE               	swapf	saved_w,f
  5050  04CE  0E7E               	swapf	saved_w,w
  5051  04CF  0009               	retfie
  5052                           	opt stack 0
  5053                           GLOBAL	__end_of_ISR
  5054  04D0                     	__end_of_ISR:
  5055 ;; =============== function _ISR ends ============
  5056                           
  5057                           	signat	_ISR,88
  5058                           	global	_TMR0_ISR
  5059                           psect	text1120,local,class=CODE,delta=2
  5060                           global __ptext1120
  5061  039E                     __ptext1120:
  5062                           
  5063 ;; *************** function _TMR0_ISR *****************
  5064 ;; Defined at:
  5065 ;;		line 80 in file "G:\Program\PIC\Source_File\MCU_16f723a_B1.c"
  5066 ;; Parameters:    Size  Location     Type
  5067 ;;		None
  5068 ;; Auto vars:     Size  Location     Type
  5069 ;;		None
  5070 ;; Return value:  Size  Location     Type
  5071 ;;		None               void
  5072 ;; Registers used:
  5073 ;;		wreg, fsr0l, fsr0h, status,2, status,0
  5074 ;; Tracked objects:
  5075 ;;		On entry : 0/0
  5076 ;;		On exit  : 0/0
  5077 ;;		Unchanged: 0/0
  5078 ;; Data sizes:     COMMON   BANK0   BANK1   BANK2
  5079 ;;      Params:         0       0       0       0
  5080 ;;      Locals:         0       0       0       0
  5081 ;;      Temps:          2       0       0       0
  5082 ;;      Totals:         2       0       0       0
  5083 ;;Total ram usage:        2 bytes
  5084 ;; Hardware stack levels used:    1
  5085 ;; This function calls:
  5086 ;;		Nothing
  5087 ;; This function is called by:
  5088 ;;		_ISR
  5089 ;; This function uses a non-reentrant model
  5090 ;;
  5091                           psect	text1120
  5092                           	file	"G:\Program\PIC\Source_File\MCU_16f723a_B1.c"
  5093                           	line	80
  5094                           	global	__size_of_TMR0_ISR
  5095  0033                     	__size_of_TMR0_ISR	equ	__end_of_TMR0_ISR-_TMR0_ISR
  5096                           	
  5097  039E                     _TMR0_ISR:	
  5098                           	opt	stack 2
  5099                           ; Regs used in _TMR0_ISR: [wreg-fsr0h+status,2+status,0]
  5100                           	line	81
  5101                           	
  5102  039E                     i1l15211:	
  5103                           ;MCU_16f723a_B1.c: 81: if(TMR0IE && TMR0IF)
  5104  039E  1E8B               	btfss	(93/8),(93)&7
  5105  039F  2BA1               	goto	u284_21
  5106  03A0  2BA2               	goto	u284_20
  5107  03A1                     u284_21:
  5108  03A1  2BD0               	goto	i1l10096
  5109  03A2                     u284_20:
  5110                           	
  5111  03A2                     i1l15213:	
  5112  03A2  1D0B               	btfss	(90/8),(90)&7
  5113  03A3  2BA5               	goto	u285_21
  5114  03A4  2BA6               	goto	u285_20
  5115  03A5                     u285_21:
  5116  03A5  2BD0               	goto	i1l10096
  5117  03A6                     u285_20:
  5118                           	line	83
  5119                           	
  5120  03A6                     i1l15215:	
  5121                           ;MCU_16f723a_B1.c: 82: {
  5122                           ;MCU_16f723a_B1.c: 83: TMR0=(256-90);
  5123  03A6  30A6               	movlw	(0A6h)
  5124  03A7  1283               	bcf	status, 5	;RP0=0, select bank0
  5125  03A8  1303               	bcf	status, 6	;RP1=0, select bank0
  5126  03A9  0081               	movwf	(1)	;volatile
  5127                           	line	84
  5128                           	
  5129  03AA                     i1l15217:	
  5130                           ;MCU_16f723a_B1.c: 84: TMR0IF=0;
  5131  03AA  110B               	bcf	(90/8),(90)&7
  5132                           	line	102
  5133                           	
  5134  03AB                     i1l15219:	
  5135                           ;MCU_16f723a_B1.c: 102: Timer0->Count++;
  5136  03AB  0877               	movf	(_Timer0),w
  5137  03AC  3E01               	addlw	01h
  5138  03AD  0084               	movwf	fsr0
  5139  03AE  3001               	movlw	01h
  5140  03AF  1383               	bcf	status, 7	;select IRP bank0
  5141  03B0  0780               	addwf	indf,f
  5142  03B1  0A84               	incf	fsr0,f
  5143  03B2  1803               	skipnc
  5144  03B3  0A80               	incf	indf,f
  5145                           	line	103
  5146                           	
  5147  03B4                     i1l15221:	
  5148                           ;MCU_16f723a_B1.c: 103: if(Timer0->Count == 200)
  5149  03B4  0877               	movf	(_Timer0),w
  5150  03B5  3E01               	addlw	01h
  5151  03B6  0084               	movwf	fsr0
  5152  03B7  0800               	movf	indf,w
  5153  03B8  00F0               	movwf	(??_TMR0_ISR+0)+0+0
  5154  03B9  0A84               	incf	fsr0,f
  5155  03BA  0800               	movf	indf,w
  5156  03BB  00F1               	movwf	(??_TMR0_ISR+0)+0+1
  5157  03BC  30C8               	movlw	0C8h
  5158  03BD  0670               	xorwf	0+(??_TMR0_ISR+0)+0,w
  5159  03BE  0471               	iorwf	1+(??_TMR0_ISR+0)+0,w
  5160  03BF  1D03               	skipz
  5161  03C0  2BC2               	goto	u286_21
  5162  03C1  2BC3               	goto	u286_20
  5163  03C2                     u286_21:
  5164  03C2  2BD0               	goto	i1l10096
  5165  03C3                     u286_20:
  5166                           	line	105
  5167                           	
  5168  03C3                     i1l15223:	
  5169                           ;MCU_16f723a_B1.c: 104: {
  5170                           ;MCU_16f723a_B1.c: 105: Timer0->Count=0;
  5171  03C3  0877               	movf	(_Timer0),w
  5172  03C4  3E01               	addlw	01h
  5173  03C5  0084               	movwf	fsr0
  5174  03C6  3000               	movlw	low(0)
  5175  03C7  0080               	movwf	indf
  5176  03C8  0A84               	incf	fsr0,f
  5177  03C9  3000               	movlw	high(0)
  5178  03CA  0080               	movwf	indf
  5179                           	line	106
  5180                           ;MCU_16f723a_B1.c: 106: TMain->T0_Timerout=1;
  5181  03CB  0824               	movf	(_TMain),w
  5182  03CC  0084               	movwf	fsr0
  5183  03CD  1480               	bsf	indf,1
  5184  03CE  2BD0               	goto	i1l10096
  5185                           	line	107
  5186                           	
  5187  03CF                     i1l10095:	
  5188  03CF  2BD0               	goto	i1l10096
  5189                           	line	108
  5190                           	
  5191  03D0                     i1l10094:	
  5192                           	line	109
  5193                           	
  5194  03D0                     i1l10096:	
  5195  03D0  0008               	return
  5196                           	opt stack 0
  5197                           GLOBAL	__end_of_TMR0_ISR
  5198  03D1                     	__end_of_TMR0_ISR:
  5199 ;; =============== function _TMR0_ISR ends ============
  5200                           
  5201                           	signat	_TMR0_ISR,88
  5202                           psect	text1121,local,class=CODE,delta=2
  5203                           global __ptext1121
  5204  0000                     __ptext1121:
  5205                           	global	btemp
  5206  007E                     	btemp set 07Eh
  5207                           
  5208                           	DABS	1,126,2	;btemp
  5209                           	global	wtemp0
  5210  007E                     	wtemp0 set btemp


HI-TECH Software PICC Macro Assembler V9.83 build 10920 
Symbol Table                                                                                   Thu Aug 28 08:30:51 2014

                               fsr 0004                                _CDS 0020  
                              _GIE 005F                                _RB2 0032  
                              _RA4 002C                                _LED 0021  
                              _RB3 0033                                _RA5 002D  
                              _RB4 0034                                _RB5 0035  
                              _ISR 04C0                                _PIR 0076  
                              fsr0 0004                                indf 0000  
                  __end_of_ADC_Set 052E          __end_of_LightsPointSelect 04EE  
          __size_of_Lights_Control 006A                               ?_ISR 0070  
                             l4201 02B8                               l4202 02B7  
                             l4203 02A2                               l4204 02B6  
                             l4205 02AB                               l4206 02B5  
                             l4207 02B4                               l4160 03F7  
                             l4208 02B8                               l4161 03EA  
                             l4162 03F6                               l4170 0515  
                             l4163 03F5                               l4164 03F7  
                             l4180 00D6                               l4181 00D5  
                             l4173 046A                               l4182 0134  
                             l4190 0126                               l4159 03DF  
                             l4191 0113                               l4183 00F9  
                             l4167 0508                               l4192 0125  
                             l4184 00E6                               l4176 00D8  
                             l4193 011B                               l4185 00F8  
                             l4177 00C5                               l5073 01B6  
                             l5090 0265                               l4194 0124  
                             l4186 00EE                               l4178 00D7  
                             l5082 04BF                               l5074 01DA  
                             l5091 0267                               l4195 0123  
                             l4187 00F7                               l4179 00CD  
                             l5075 0203                               l4196 0132  
                             l4188 00F6                               l5076 0202  
                             l5085 0238                               l4189 0133  
                             l4197 0131                               l5077 0204  
                             l5086 0237                               l4198 0134  
                             l5078 0205                               l5087 0267  
                             l5079 0205                               l5088 0266  
                             l5089 0261                  ?_setLights_Switch 0058  
                             u3400 03E5                               u3401 03E4  
                             u3410 03F0                               u3411 03EF  
                             u3420 0210                               u3421 020F  
                             u3430 0227                               u3431 0226  
                             u3440 024F                               u3600 00CB  
                             u3441 024E                               u3601 00CA  
                             u3450 025D                               u3530 0278  
                             u3610 00D3                               u3451 025C  
                             u3531 0277                               u3611 00D2  
                             u3460 043F                               u3540 0291  
                             u3700 012C                               u3620 00DE  
                             u3461 043E                               u3541 0290  
                             u3701 012B                               u3621 00DD  
                             u3390 03DA                               u3470 04E8  
                             u3550 029F                               u3630 00E4  
                             u3710 02CB                               u3391 03D9  
                             u3471 04E7                               u3551 029E  
                             u3631 00E3                               u3711 02CA  
                             u3480 04D9                               u3560 02A8  
                             u3640 00EC                               u3720 0145  
                             u3800 0369                               u3481 04D8  
                             u3561 02A7                               u3641 00EB  
                             u3721 0144                               u3570 02B1  
                             u3650 00F4                               u3730 015C  
                             u3810 0380                               u3571 02B0  
                             u3651 00F3                               u3731 015B  
                             u3811 037F                               u3660 00FF  
                             u3580 00BD                               u3740 0163  
                             u3820 039A                               u3900 003F  
                             u3661 00FE                               u3581 00BC  
                             u3741 0162                               u3821 0399  
                             u3901 003E                               u3670 0111  
                             u3590 00C3                               u3750 016D  
                             u3830 031F                               u3910 0052  
                             u3671 0110                               u3591 00C2  
                             u3751 016C                               u3831 031E  
                             u3911 0051                               u3680 0119  
                             u3760 0176                               u3840 0323  
                             u3920 0062                               u3681 0118  
                             u3761 0172                               u3921 0061  
                             u3690 0121                               u3850 0329  
                             u3930 0095                               u3691 0120  
                             u3851 0328                               u3931 0094  
                             u3780 018C                               u3860 032D  
                             u3940 01BF                               u3781 018B  
                             u3941 01BE                               u3790 0199  
                             u3774 0179                               u3870 0023  
                             u3950 01E3                               u3791 0198  
                             u3935 0091                               u3871 0022  
                             u3951 01E2                               u3880 0029  
                             u3960 01F2                               u3881 0028  
                             u3961 01F1                               u3890 002F  
                             u3891 002E                               _TMR0 0001  
                             _SYSC 0023                 ??_setLights_Switch 0076  
                             _main 019F                               btemp 007E  
                             start 0011                   __end_of_CDS_Main 0533  
                            ??_ISR 0072                  _setLights_Trigger 048E  
                    ??_Lights_Main 0076                       ?_setCDS_Main 0070  
                 __end_of_LED_Main 0516                       ?_setCDSPoint 0070  
                            l10102 052D                              l10105 043B  
                            l11001 019E                              l10106 043B  
                            l11002 017B                              l10107 0440  
                            l11003 017A                              l10108 0442  
                            l11004 019D                              l11005 019C  
                            l11006 019B                              l11007 019E  
                            l10082 04FB                              l10091 042D  
                            l10085 0457                              l12722 0541  
                            l10962 04AF                              l10970 033F  
                            l10955 04ED                              l10971 033E  
                            l10956 04ED                              l10972 0351  
                            l10973 0353                              l10965 051E  
                            l11862 0537                              l15207 0527  
                            l10959 053C                              l11871 00AE  
                            l12728 053E                              l10976 049E  
                            l10968 0353                              l11872 0049  
                            l11880 00AE                              l10969 0352  
                            l11865 0414                              l11873 0048  
                            l11858 04DE                              l10994 0383  
                            l11874 0047                              l11859 04DE  
                            l11883 0308                              l10995 0382  
                            l10979 048D                              l11875 00AD  
                            l11884 0308                              l10996 039D  
                            l11876 0078                              l11868 0532  
                            l13581 053D                              l15181 0443  
                            l10997 039C                              l11877 0077  
                            l13590 053F                              l10998 039D  
                            l11878 00AC                 ?_setLights_Trigger 0058  
                            l15191 0454                              l15183 0449  
                            l11879 00AB                              l15193 0456  
                            l15185 044A                              l15601 041B  
                            l13578 0540                              l15187 044E  
                            l15603 0424                              l15611 0431  
                            l15189 0450                              l15605 0427  
                            l15613 0437                              l15621 04E8  
                            l15701 00D8                              l15607 042B  
                            l15615 0440                              l15711 00EE  
                            l15703 00DE                              l15609 042C  
                            l15617 0442                              l15641 04D9  
                            l15721 0111                              l15713 00F4  
                            l15705 00E4                              l15801 0365  
                            l15571 03DA                              l15619 04E2  
                            l15723 0113                              l15731 0126  
                            l15707 00E6                              l15715 00F9  
                            l15811 0394                              l15803 0369  
                            l15573 03DF                              l15581 0207  
                            l15733 012C                              l15725 0119  
                            l15717 00FF                              l15709 00EC  
                            l15741 04BB                              l15813 039A  
                            l15805 037A                              l15821 0484  
                            l15901 0516                              l15575 03E5  
                            l15591 0240                              l15583 0210  
                            l15639 04D3                              l15671 0291  
                            l15663 026B                              l15727 011B  
                            l15719 010B                              l15735 04B0  
                            l15743 04EE                              l15751 02BC  
                            l15807 0380                              l15815 0491  
                            l15823 045B                              l15831 0538  
                            l15903 052E                              l15911 01AE  
                            l15577 03EA                              l15569 03D4  
                            l15593 024F                              l15585 0218  
                            l15681 02AB                              l15673 0299  
                            l15665 026F                              l15729 0121  
                            l15737 04B1                              l15745 04F2  
                            l15761 02E2                              l15753 02BE  
                            l15809 0383                              l15817 0495  
                            l15825 045F                              l15841 0323  
                            l15833 030C                              l15921 01CB  
                            l15913 01B1                              l15905 019F  
                            l15579 03F0                              l15595 025D  
                            l15587 0227                              l15683 02B1  
                            l15675 029F                              l15667 0278  
                            l15691 00C3                              l15739 04B7  
                            l15747 04F5                              l15763 02FD  
                            l15755 02C2                              l15771 0138  
                            l15819 0480                              l15827 0465  
                            l15851 034B                              l15843 0329  
                            l15835 0312                              l15931 01F2  
                            l15923 01DA                              l15915 01B4  
                            l15907 01A8                              l15597 0261  
                            l15589 0238                              l15677 02A2  
                            l15669 0280                              l15693 00C5  
                            l15685 00B2                              l15749 04F8  
                            l15757 02CB                              l15765 04A2  
                            l15781 0163                              l15773 013C  
                            l15829 0509                              l15845 032D  
                            l15837 0316                              l15853 03FB  
                            l15861 0016                              l15933 01F5  
                            l15925 01E3                              l15917 01B6  
                            l15909 01AB                              l15599 0415  
                            l15679 02A8                              l15695 00CB  
                            l15687 00B6                              l15759 02D1  
                            l15767 04A6                              l15791 0193  
                            l15783 0167                              l15775 0145  
                            l15847 0336                              l15839 031F  
                            l15855 03FF                              l15871 0036  
                            l15863 001A                              l15935 01F8  
                            l15927 01E6                              l15919 01BF  
                            l15697 00CD                              l15689 00BD  
                            l15769 04AC                              l15793 0199  
                            l15785 016D                              l15777 014C  
                            l15849 033F                              l15857 0405  
                            l15881 0065                              l15873 003F  
                            l15865 0023                              l15937 01FB  
                            l15929 01E9                              l15699 00D3  
                            l15779 015C                              l15787 017B  
                            l15795 0357                              l15859 040C  
                            l15891 009B                              l15883 0066  
                            l15867 0029                              l15875 0049  
                            l15939 01FE                              l15789 018C  
                            l15797 035B                              l15893 009C  
                            l15885 006D                              l15877 0052  
                            l15869 002F                              l15799 0361  
                            l15895 00A3                              l15879 0062  
                            l15887 0078                              l15889 0095  
                            l15897 04FC                              l15899 0533  
                            ?_main 0070                              _ADRES 001E  
                            _PORTA 0005                              _PORTB 0006  
                            _PORTC 0007                       ?_setLED_Main 0070  
                            _TRISA 0085                              _TRISB 0086  
                            _TRISC 0087                              __CDS1 0045  
                            __PIR1 00A0                              _TMain 0024  
                            _MainT 0207                ??_setLights_Trigger 0076  
                 __end_of_TMR0_ISR 03D1                   __end_of_PIR_Main 053E  
                 __end_of_TMR0_Set 042E                              _getAD 042E  
                            pclath 000A     __size_of_setLED_Initialization 0013  
    __end_of_setLED_Initialization 046B                              status 0003  
                            wtemp0 007E                  getPIR_AD@channel1 0056  
           ??_MainT_Initialization 0056             ?_setCDS_Initialization 0070  
                   _setLights_Main 0309                 __size_of_SYSC_Main 0001  
        __end_of_setLights_Trigger 049F                       __end_of_main 0207  
         setCDS_Initialization@cds 005A                          ??_ADC_Set 0076  
                           ??_main 005F                __end_of_Lights_Main 051F  
       __size_of_LightsPointSelect 000F                             ?_MainT 0070  
                           ?_getAD 0056                             _ADCON0 001F  
                           _ADCON1 009F                             _ANSELA 0185  
                           _ANSELB 0186                             _FVRCON 009D  
                           u284_20 03A2                             u284_21 03A1  
                           u285_20 03A6                             u285_21 03A5  
                           u286_20 03C3                             u286_21 03C2  
                           _OSCCON 0090                             _TMR0IE 005D  
                           _TMR0IF 005A                             _IO_Set 0443  
                 setLights@command 0058             __end_of_setLights_Main 0354  
     __size_of_SYSC_Initialization 0001         __end_of_Mcu_Initialization 04FC  
                           _Lights 0022                             _Timer0 0077  
      __size_of_CDS_Initialization 0005            ??_Lights_Initialization 0076  
                           _setLED 00AF                             clrloop 0520  
                           saved_w 007E                  __end_of_SYSC_Main 053F  
                   _Lights_Control 0135            __size_of_LedPointSelect 0027  
                        ?_CDS_Main 0070        __size_of_PIR_Initialization 0001  
                        ?_LED_Main 0070                    ?_setLights_Main 0070  
                    __end_of_MainT 0268         __size_of_setLights_Trigger 0011  
                   __pcstackCOMMON 0070                 __size_of_getCDS_AD 0050  
                    __end_of_getAD 0443                          ?_TMR0_ISR 0070  
                        ?_PIR_Main 0070                          ?_TMR0_Set 0070  
               _LED_Initialization 04FC                 __size_of_getPIR_AD 0001  
                      _Lights_Main 0516           _setLights_Initialization 049F  
             __size_of_setCDS_Main 009C               __size_of_setCDSPoint 000F  
              ?_LED_Initialization 0070             __end_of_Lights_Control 019F  
                          ??_MainT 0056               __size_of_setLED_Main 0051  
                          ??_getAD 0076                         ??_CDS_Main 0076  
                       __pbssBANK0 0020                         __pbssBANK1 00A0  
                          ?_IO_Set 0070                         ??_LED_Main 0076  
             ??_LED_Initialization 0076                  LedPointSelect@led 0057  
                       __pmaintext 019F                         ??_TMR0_ISR 0070  
                       ??_PIR_Main 0076          __size_of_setLights_Switch 0011  
               __size_of_setLights 004A                         ??_TMR0_Set 0056  
                       __pintentry 0004             setLights_Switch@lights 0059  
                       __ptext1100 049F                         __ptext1101 02B9  
                       __ptext1110 0415                         __ptext1102 04EE  
                       __ptext1111 0443                         __ptext1103 04B0  
                       __ptext1120 039E                         __ptext1112 053D  
                       __ptext1104 00AF                         __ptext1121 0000  
                       __ptext1113 053E                         __ptext1105 0268  
                       __ptext1114 0207                         __ptext1106 04D0  
                       __ptext1115 053F                         __ptext1107 04DF  
                       __ptext1116 0540                         __ptext1108 042E  
                       __ptext1117 0541                         __ptext1109 0527  
                       __ptext1118 03D1                         __ptext1119 04C0  
                       __ptext1090 0013                         __ptext1091 03F8  
                       __ptext1092 0309                         __ptext1093 0538  
                       __ptext1085 0000                         __ptext1094 0509  
                       __ptext1086 052E                         __ptext1095 0458  
                       __ptext1087 0516                         __ptext1096 047D  
                       __ptext1088 0533                         __ptext1097 048E  
                       __ptext1089 04FC                         __ptext1098 0354  
                       __ptext1099 0135                            ?_setLED 0058  
          setLights_Trigger@lights 0059                            _ADC_Set 0527  
                          i1l10094 03D0                            i1l10095 03CF  
                          i1l10096 03D0                            i1l10088 04C3  
                          i1l15211 039E                            i1l15221 03B4  
                          i1l15213 03A2                            i1l15223 03C3  
                          i1l15215 03A6                            i1l15217 03AA  
                          i1l15209 04C0                            i1l15219 03AB  
                  ?_Lights_Control 0070                  __end_of_getCDS_AD 0309  
                __end_of_getPIR_AD 0540            ??_setCDS_Initialization 0076  
                  __size_of_IO_Set 0015                         getCDS_AD@i 005C  
                       getCDS_AD@j 005D                            _Lights1 0035  
                          _VarLED1 004E                            _VarLED2 0052  
                  __size_of_setLED 0086                       __size_of_ISR 0010  
              _SYSC_Initialization 0541                     _LedPointSelect 03D1  
                __end_of_setLights 039E               end_of_initialization 047A  
             ?_SYSC_Initialization 0070              _setLED_Initialization 0458  
    __size_of_MainT_Initialization 0010     __size_of_Lights_Initialization 0005  
    __end_of_Lights_Initialization 053D           setLED_Initialization@led 005A  
               _Mcu_Initialization 04EE             __end_of_LedPointSelect 03F8  
              ?_Mcu_Initialization 0070                   ??_setLights_Main 0076  
             setLights_Main@lights 005D                          _SYSC_Main 053E  
                __size_of_CDS_Main 0005              ??_SYSC_Initialization 0076  
                   __end_of_IO_Set 0458         __end_of_CDS_Initialization 0538  
       ??_setLights_Initialization 0076                  __size_of_LED_Main 000D  
             ??_Mcu_Initialization 0076                   _setLights_Switch 047D  
                     ?_Lights_Main 0070                  __size_of_TMR0_ISR 0033  
                __size_of_PIR_Main 0001                  __size_of_TMR0_Set 0019  
                   __end_of_setLED 0135                       getCDS_AD@cds 005E  
              start_initialization 046B                    ?_LedPointSelect 0070  
                      __end_of_ISR 04D0         __end_of_PIR_Initialization 0541  
                   setCDS_Main@cds 005D                         ?_SYSC_Main 0070  
                         ??_IO_Set 0076                          _VarErrLED 004A  
           ?_setLED_Initialization 0070                          _VarTimer0 003E  
                   setCDSPoint@cds 0057                    setLights@lights 005A  
                    ??_setCDS_Main 005A                           ??_setLED 0076  
                    ??_setCDSPoint 0056                           ?_ADC_Set 0070  
                 ??_Lights_Control 0058                      ??_setLED_Main 0058  
                      __pbssCOMMON 0076                      __pcstackBANK0 0056  
                        _getCDS_AD 02B9     __size_of_setCDS_Initialization 001D  
    __end_of_setCDS_Initialization 0415                          _getPIR_AD 053F  
      __size_of_LED_Initialization 000D            setLights_Switch@command 0058  
         setLights_Trigger@command 0058                __end_of_setCDS_Main 00AF  
                   __size_of_MainT 0061                __end_of_setCDSPoint 04DF  
                   __size_of_getAD 0015                           _CDS_Main 052E  
              __end_of_setLED_Main 02B9                        ??_SYSC_Main 0076  
                interrupt_function 0004                         ?_getCDS_AD 0058  
                         _LED_Main 0509                          _setLights 0354  
 __end_of_setLights_Initialization 04B0                         ?_getPIR_AD 0056  
                         _GO_nDONE 00F9                           _TMR0_ISR 039E  
                         _PIR_Main 053D                           _TMR0_Set 0415  
                 __size_of_ADC_Set 0007                setLights_Main@close 005C  
             __size_of_Lights_Main 0009       __end_of_MainT_Initialization 04C0  
                      getAD@adcon0 0057                        getAD@adcon1 0056  
                   setLED_Main@led 005A           __end_of_setLights_Switch 048E  
                       ?_setLights 0058                           _VarTMain 0025  
                        setLED@led 0059                        _setCDS_Main 0013  
                 ??_LedPointSelect 0056                        _setCDSPoint 04D0  
               _CDS_Initialization 0533              _Lights_Initialization 0538  
                      _setLED_Main 0268                ?_CDS_Initialization 0070  
      __end_of_SYSC_Initialization 0542            ??_setLED_Initialization 0076  
                      ??_getCDS_AD 005A                      setLED@command 0058  
                    __size_of_main 0068                        ??_getPIR_AD 0076  
               _PIR_Initialization 0540                           clear_ram 051F  
             ??_CDS_Initialization 0076        __size_of_Mcu_Initialization 000E  
              ?_PIR_Initialization 0070                 setLights_Main@open 005B  
__size_of_setLights_Initialization 0011          ?_setLights_Initialization 0070  
             Lights_Control@lights 005A               ??_PIR_Initialization 0076  
                         intlevel1 0000                        ??_setLights 0059  
          LightsPointSelect@lights 0057               _MainT_Initialization 04B0  
          __size_of_setLights_Main 004B             ?_Lights_Initialization 0070  
                       _OPTION_REG 0081     setLights_Initialization@lights 0058  
                _LightsPointSelect 04DF                 ?_LightsPointSelect 0070  
       __end_of_LED_Initialization 0509              getPIR_AD@charchannel2 0057  
                getCDS_AD@channel1 0058                  getCDS_AD@channel2 0059  
              ??_LightsPointSelect 0056              ?_MainT_Initialization 0070  
            _setCDS_Initialization 03F8  
