

HI-TECH Software PIC LITE Macro Assembler V9.83 build 10920 
                                                                                               Fri May 23 17:28:16 2014

HI-TECH Software Omniscient Code Generator (Lite mode) build 10920
     1  0000                     opt subtitle "HI-TECH Software Omniscient Code Generator (Lite mode) build 10920"
     2                           
     3                           opt pagewidth 120
     4                           
     5                           	opt lm
     6                           
     7                           	processor	16F723A
     8                           clrc	macro
     9                           	bcf	3,0
    10  0000                     	endm
    11                           clrz	macro
    12                           	bcf	3,2
    13  0000                     	endm
    14                           setc	macro
    15                           	bsf	3,0
    16  0000                     	endm
    17                           setz	macro
    18                           	bsf	3,2
    19  0000                     	endm
    20                           skipc	macro
    21                           	btfss	3,0
    22  0000                     	endm
    23                           skipz	macro
    24                           	btfss	3,2
    25  0000                     	endm
    26                           skipnc	macro
    27                           	btfsc	3,0
    28  0000                     	endm
    29                           skipnz	macro
    30                           	btfsc	3,2
    31  0000                     	endm
    32  0000                     indf	equ	0
    33  0000                     indf0	equ	0
    34  0002                     pc	equ	2
    35  0002                     pcl	equ	2
    36  0003                     status	equ	3
    37  0004                     fsr	equ	4
    38  0004                     fsr0	equ	4
    39  0001                     c	equ	1
    40  0000                     z	equ	0
    41  000A                     pclath	equ	10
    42                           # 95 "G:\Program\PIC\5.PIR_Ceiling_Embed\Release\PIR_Ceiling_Embed_V1.c"
    43                           	psect config,class=CONFIG,delta=2 ;#
    44                           # 95 "G:\Program\PIC\5.PIR_Ceiling_Embed\Release\PIR_Ceiling_Embed_V1.c"
    45  2007  FFF4               	dw 0xFFFC & 0xFFF7 & 0xFFFF ;#
    46                           # 96 "G:\Program\PIC\5.PIR_Ceiling_Embed\Release\PIR_Ceiling_Embed_V1.c"
    47                           	psect config,class=CONFIG,delta=2 ;#
    48                           # 96 "G:\Program\PIC\5.PIR_Ceiling_Embed\Release\PIR_Ceiling_Embed_V1.c"
    49  2008  FFFF               	dw 0xFFFF ;#
    50                           	FNCALL	_main,_MainT_Initial
    51                           	FNCALL	_main,_MainT
    52                           	FNCALL	_main,___awdiv
    53                           	FNCALL	_main,___lwdiv
    54                           	FNROOT	_main
    55                           	FNCALL	intlevel1,_ISR
    56                           	global	intlevel1
    57                           	FNROOT	intlevel1
    58                           	global	_Buzzer
    59                           	global	_CDS
    60                           	global	_LED
    61                           	global	_Lights2
    62                           	global	_PIR
    63                           	global	_Timer1
    64                           	global	_VarTemp
    65                           	global	_Temp
    66                           	global	_VarTMain
    67                           	global	_VarCDS
    68                           	global	__Lights2
    69                           	global	_VarBuzzer
    70                           	global	_VarLED
    71                           	global	_VarTimer1
    72                           	global	_VarPIR
    73                           	global	_TMain
    74                           psect	nvBANK0,class=BANK0,space=1
    75                           global __pnvBANK0
    76  0057                     __pnvBANK0:
    77  0057                     _TMain:
    78  0057                            ds      1
    79                           
    80                           	global	_ADCON0
    81  001F                     _ADCON0	set	31
    82                           	global	_ADRES
    83  001E                     _ADRES	set	30
    84                           	global	_PORTA
    85  0005                     _PORTA	set	5
    86                           	global	_PORTB
    87  0006                     _PORTB	set	6
    88                           	global	_PORTC
    89  0007                     _PORTC	set	7
    90                           	global	_T1CON
    91  0010                     _T1CON	set	16
    92                           	global	_TMR1H
    93  000F                     _TMR1H	set	15
    94                           	global	_TMR1L
    95  000E                     _TMR1L	set	14
    96                           	global	_GIE
    97  005F                     _GIE	set	95
    98                           	global	_GO_nDONE
    99  00F9                     _GO_nDONE	set	249
   100                           	global	_PEIE
   101  005E                     _PEIE	set	94
   102                           	global	_RA4
   103  002C                     _RA4	set	44
   104                           	global	_RB1
   105  0031                     _RB1	set	49
   106                           	global	_RB2
   107  0032                     _RB2	set	50
   108                           	global	_RB3
   109  0033                     _RB3	set	51
   110                           	global	_RB4
   111  0034                     _RB4	set	52
   112                           	global	_RB5
   113  0035                     _RB5	set	53
   114                           	global	_TMR1IF
   115  0060                     _TMR1IF	set	96
   116                           	global	_ADCON1
   117  009F                     _ADCON1	set	159
   118                           	global	_OSCCON
   119  0090                     _OSCCON	set	144
   120                           	global	_TRISA
   121  0085                     _TRISA	set	133
   122                           	global	_TRISB
   123  0086                     _TRISB	set	134
   124                           	global	_TRISC
   125  0087                     _TRISC	set	135
   126                           	global	_TMR1IE
   127  0460                     _TMR1IE	set	1120
   128                           	global	_ANSELA
   129  0185                     _ANSELA	set	389
   130                           	global	_ANSELB
   131  0186                     _ANSELB	set	390
   132                           	file	"PIR_Ceiling_Embed.as"
   133                           	line	#
   134                           psect cinit,class=CODE,delta=2
   135                           global start_initialization
   136  07E0                     start_initialization:
   137                           
   138                           psect	bssCOMMON,class=COMMON,space=1
   139                           global __pbssCOMMON
   140  0070                     __pbssCOMMON:
   141  0070                     _VarTemp:
   142  0070                            ds      5
   143                           
   144  0075                     _Temp:
   145  0075                            ds      1
   146                           
   147                           psect	bssBANK0,class=BANK0,space=1
   148                           global __pbssBANK0
   149  0020                     __pbssBANK0:
   150  0020                     _Buzzer:
   151  0020                            ds      1
   152                           
   153  0021                     _CDS:
   154  0021                            ds      1
   155                           
   156  0022                     _LED:
   157  0022                            ds      1
   158                           
   159  0023                     _Lights2:
   160  0023                            ds      1
   161                           
   162  0024                     _PIR:
   163  0024                            ds      1
   164                           
   165  0025                     _Timer1:
   166  0025                            ds      1
   167                           
   168  0026                     _VarTMain:
   169  0026                            ds      9
   170                           
   171  002F                     _VarCDS:
   172  002F                            ds      6
   173                           
   174  0035                     __Lights2:
   175  0035                            ds      6
   176                           
   177  003B                     _VarBuzzer:
   178  003B                            ds      5
   179                           
   180  0040                     _VarLED:
   181  0040                            ds      4
   182                           
   183  0044                     _VarTimer1:
   184  0044                            ds      3
   185                           
   186                           psect	bssBANK1,class=BANK1,space=1
   187                           global __pbssBANK1
   188  00A0                     __pbssBANK1:
   189  00A0                     _VarPIR:
   190  00A0                            ds      47
   191                           
   192                           psect clrtext,class=CODE,delta=2
   193                           global clear_ram
   194                           ;	Called with FSR containing the base address, and
   195                           ;	W with the last address+1
   196  07F6                     clear_ram:
   197  07F6  0064               	clrwdt			;clear the watchdog before getting into this loop
   198  07F7                     clrloop:
   199  07F7  0180               	clrf	indf		;clear RAM location pointed to by FSR
   200  07F8  0A84               	incf	fsr,f		;increment pointer
   201  07F9  0604               	xorwf	fsr,w		;XOR with final address
   202  07FA  1903               	btfsc	status,2	;have we reached the end yet?
   203  07FB  3400               	retlw	0		;all done for this memory range, return
   204  07FC  0604               	xorwf	fsr,w		;XOR again to restore value
   205  07FD  2FF7               	goto	clrloop		;do the next byte
   206                           
   207                           ; Clear objects allocated to COMMON
   208                           psect cinit,class=CODE,delta=2
   209  07E0  3070               	movlw	low(__pbssCOMMON)
   210  07E1  0084               	movwf	fsr
   211  07E2  3076               	movlw	low((__pbssCOMMON)+06h)
   212  07E3  118A  27F6  118A   	fcall	clear_ram
   213                           ; Clear objects allocated to BANK0
   214                           psect cinit,class=CODE,delta=2
   215  07E6  1383               	bcf	status, 7	;select IRP bank0
   216  07E7  3020               	movlw	low(__pbssBANK0)
   217  07E8  0084               	movwf	fsr
   218  07E9  3047               	movlw	low((__pbssBANK0)+027h)
   219  07EA  118A  27F6  118A   	fcall	clear_ram
   220                           ; Clear objects allocated to BANK1
   221                           psect cinit,class=CODE,delta=2
   222  07ED  30A0               	movlw	low(__pbssBANK1)
   223  07EE  0084               	movwf	fsr
   224  07EF  30CF               	movlw	low((__pbssBANK1)+02Fh)
   225  07F0  118A  27F6  118A   	fcall	clear_ram
   226                           psect cinit,class=CODE,delta=2
   227                           global end_of_initialization
   228                           
   229                           ;End of C runtime variable initialization code
   230                           
   231  07F3                     end_of_initialization:
   232  07F3  0183               clrf status
   233  07F4  118A  2813         ljmp _main	;jump to C main() function
   234                           psect	cstackCOMMON,class=COMMON,space=1
   235                           global __pcstackCOMMON
   236  0076                     __pcstackCOMMON:
   237                           	global	?_MainT_Initial
   238  0076                     ?_MainT_Initial:	; 0 bytes @ 0x0
   239                           	global	?_MainT
   240  0076                     ?_MainT:	; 0 bytes @ 0x0
   241                           	global	?_main
   242  0076                     ?_main:	; 0 bytes @ 0x0
   243                           	global	?_ISR
   244  0076                     ?_ISR:	; 0 bytes @ 0x0
   245                           	global	??_ISR
   246  0076                     ??_ISR:	; 0 bytes @ 0x0
   247  0076                     	ds	6
   248                           psect	cstackBANK0,class=BANK0,space=1
   249                           global __pcstackBANK0
   250  0047                     __pcstackBANK0:
   251                           	global	??_MainT_Initial
   252  0047                     ??_MainT_Initial:	; 0 bytes @ 0x0
   253                           	global	??_MainT
   254  0047                     ??_MainT:	; 0 bytes @ 0x0
   255                           	global	?___lwdiv
   256  0047                     ?___lwdiv:	; 2 bytes @ 0x0
   257                           	global	?___awdiv
   258  0047                     ?___awdiv:	; 2 bytes @ 0x0
   259                           	global	___lwdiv@divisor
   260  0047                     ___lwdiv@divisor:	; 2 bytes @ 0x0
   261                           	global	___awdiv@divisor
   262  0047                     ___awdiv@divisor:	; 2 bytes @ 0x0
   263  0047                     	ds	2
   264                           	global	___lwdiv@dividend
   265  0049                     ___lwdiv@dividend:	; 2 bytes @ 0x2
   266                           	global	___awdiv@dividend
   267  0049                     ___awdiv@dividend:	; 2 bytes @ 0x2
   268  0049                     	ds	2
   269                           	global	??___lwdiv
   270  004B                     ??___lwdiv:	; 0 bytes @ 0x4
   271                           	global	??___awdiv
   272  004B                     ??___awdiv:	; 0 bytes @ 0x4
   273  004B                     	ds	1
   274                           	global	___lwdiv@counter
   275  004C                     ___lwdiv@counter:	; 1 bytes @ 0x5
   276                           	global	___awdiv@counter
   277  004C                     ___awdiv@counter:	; 1 bytes @ 0x5
   278  004C                     	ds	1
   279                           	global	___awdiv@sign
   280  004D                     ___awdiv@sign:	; 1 bytes @ 0x6
   281                           	global	___lwdiv@quotient
   282  004D                     ___lwdiv@quotient:	; 2 bytes @ 0x6
   283  004D                     	ds	1
   284                           	global	___awdiv@quotient
   285  004E                     ___awdiv@quotient:	; 2 bytes @ 0x7
   286  004E                     	ds	2
   287                           	global	??_main
   288  0050                     ??_main:	; 0 bytes @ 0x9
   289  0050                     	ds	6
   290                           	global	main@i
   291  0056                     main@i:	; 1 bytes @ 0xF
   292  0056                     	ds	1
   293 ;;Data sizes: Strings 0, constant 0, data 0, bss 92, persistent 1 stack 0
   294 ;;Auto spaces:   Size  Autos    Used
   295 ;; COMMON          14      6      12
   296 ;; BANK0           80     16      56
   297 ;; BANK1           80      0      47
   298 ;; BANK2           16      0       0
   299                           
   300 ;;
   301 ;; Pointer list with targets:
   302                           
   303 ;; ?___lwdiv	unsigned int  size(1) Largest target is 0
   304 ;;
   305 ;; ?___awdiv	int  size(1) Largest target is 0
   306 ;;
   307 ;; Temp	PTR struct Temp size(1) Largest target is 0
   308 ;;		 -> NULL(NULL[0]), 
   309 ;;
   310 ;; TMain	PTR struct TMain size(1) Largest target is 9
   311 ;;		 -> NULL(NULL[0]), VarTMain(BANK0[9]), 
   312 ;;
   313 ;; Lights2	PTR struct Lights size(1) Largest target is 6
   314 ;;		 -> NULL(NULL[0]), _Lights2(BANK0[6]), 
   315 ;;
   316 ;; PIR	PTR struct PIR size(1) Largest target is 47
   317 ;;		 -> NULL(NULL[0]), VarPIR(BANK1[47]), 
   318 ;;
   319 ;; CDS	PTR struct CDS size(1) Largest target is 6
   320 ;;		 -> NULL(NULL[0]), VarCDS(BANK0[6]), 
   321 ;;
   322 ;; Buzzer	PTR struct Buzzer size(1) Largest target is 5
   323 ;;		 -> NULL(NULL[0]), VarBuzzer(BANK0[5]), 
   324 ;;
   325 ;; LED	PTR struct LED size(1) Largest target is 4
   326 ;;		 -> NULL(NULL[0]), VarLED(BANK0[4]), 
   327 ;;
   328 ;; Timer1	PTR struct Timer1 size(1) Largest target is 3
   329 ;;		 -> NULL(NULL[0]), VarTimer1(BANK0[3]), 
   330 ;;
   331                           
   332                           
   333 ;;
   334 ;; Critical Paths under _main in COMMON
   335 ;;
   336 ;;   None.
   337 ;;
   338 ;; Critical Paths under _ISR in COMMON
   339 ;;
   340 ;;   None.
   341 ;;
   342 ;; Critical Paths under _main in BANK0
   343 ;;
   344 ;;   _main->___awdiv
   345 ;;
   346 ;; Critical Paths under _ISR in BANK0
   347 ;;
   348 ;;   None.
   349 ;;
   350 ;; Critical Paths under _main in BANK1
   351 ;;
   352 ;;   None.
   353 ;;
   354 ;; Critical Paths under _ISR in BANK1
   355 ;;
   356 ;;   None.
   357 ;;
   358 ;; Critical Paths under _main in BANK2
   359 ;;
   360 ;;   None.
   361 ;;
   362 ;; Critical Paths under _ISR in BANK2
   363 ;;
   364 ;;   None.
   365                           
   366 ;;
   367 ;;Main: autosize = 0, tempsize = 6, incstack = 0, save=0
   368 ;;
   369                           
   370 ;;
   371 ;;Call Graph Tables:
   372 ;;
   373 ;; ---------------------------------------------------------------------------------
   374 ;; (Depth) Function   	        Calls       Base Space   Used Autos Params    Refs
   375 ;; ---------------------------------------------------------------------------------
   376 ;; (0) _main                                                 7     7      0     884
   377 ;;                                              9 BANK0      7     7      0
   378 ;;                      _MainT_Initial
   379 ;;                              _MainT
   380 ;;                            ___awdiv
   381 ;;                            ___lwdiv
   382 ;; ---------------------------------------------------------------------------------
   383 ;; (1) ___awdiv                                              9     5      4     445
   384 ;;                                              0 BANK0      9     5      4
   385 ;; ---------------------------------------------------------------------------------
   386 ;; (1) ___lwdiv                                              8     4      4     241
   387 ;;                                              0 BANK0      8     4      4
   388 ;; ---------------------------------------------------------------------------------
   389 ;; (1) _MainT                                                2     2      0       0
   390 ;;                                              0 BANK0      2     2      0
   391 ;; ---------------------------------------------------------------------------------
   392 ;; (1) _MainT_Initial                                        1     1      0       0
   393 ;;                                              0 BANK0      1     1      0
   394 ;; ---------------------------------------------------------------------------------
   395 ;; Estimated maximum stack depth 1
   396 ;; ---------------------------------------------------------------------------------
   397 ;; (Depth) Function   	        Calls       Base Space   Used Autos Params    Refs
   398 ;; ---------------------------------------------------------------------------------
   399 ;; (2) _ISR                                                  6     6      0       0
   400 ;;                                              0 COMMON     6     6      0
   401 ;; ---------------------------------------------------------------------------------
   402 ;; Estimated maximum stack depth 2
   403 ;; ---------------------------------------------------------------------------------
   404                           
   405 ;; Call Graph Graphs:
   406                           
   407 ;; _main (ROOT)
   408 ;;   _MainT_Initial
   409 ;;   _MainT
   410 ;;   ___awdiv
   411 ;;   ___lwdiv
   412 ;;
   413 ;; _ISR (ROOT)
   414 ;;
   415                           
   416 ;; Address spaces:
   417                           
   418 ;;Name               Size   Autos  Total    Cost      Usage
   419 ;;BITCOMMON            E      0       0       0        0.0%
   420 ;;NULL                 0      0       0       0        0.0%
   421 ;;CODE                 0      0       0       0        0.0%
   422 ;;COMMON               E      6       C       1       85.7%
   423 ;;BITSFR0              0      0       0       1        0.0%
   424 ;;SFR0                 0      0       0       1        0.0%
   425 ;;BITSFR1              0      0       0       2        0.0%
   426 ;;SFR1                 0      0       0       2        0.0%
   427 ;;STACK                0      0       1       2        0.0%
   428 ;;ABS                  0      0      73       3        0.0%
   429 ;;BITBANK0            50      0       0       4        0.0%
   430 ;;BITSFR3              0      0       0       4        0.0%
   431 ;;SFR3                 0      0       0       4        0.0%
   432 ;;BANK0               50     10      38       5       70.0%
   433 ;;BITSFR2              0      0       0       5        0.0%
   434 ;;SFR2                 0      0       0       5        0.0%
   435 ;;BITBANK1            50      0       0       6        0.0%
   436 ;;BANK1               50      0      2F       7       58.8%
   437 ;;BITBANK2            10      0       0       8        0.0%
   438 ;;BANK2               10      0       0       9        0.0%
   439 ;;DATA                 0      0      74      10        0.0%
   440                           
   441                           	global	_main
   442                           psect	maintext,global,class=CODE,delta=2
   443                           global __pmaintext
   444  0013                     __pmaintext:
   445                           
   446 ;; *************** function _main *****************
   447 ;; Defined at:
   448 ;;		line 119 in file "G:\Program\PIC\5.PIR_Ceiling_Embed\Release\PIR_Ceiling_Embed_V1.c"
   449 ;; Parameters:    Size  Location     Type
   450 ;;		None
   451 ;; Auto vars:     Size  Location     Type
   452 ;;  i               1   15[BANK0 ] unsigned char 
   453 ;; Return value:  Size  Location     Type
   454 ;;		None               void
   455 ;; Registers used:
   456 ;;		wreg, fsr0l, fsr0h, status,2, status,0, btemp+1, pclath, cstack
   457 ;; Tracked objects:
   458 ;;		On entry : 17F/0
   459 ;;		On exit  : 0/0
   460 ;;		Unchanged: 0/0
   461 ;; Data sizes:     COMMON   BANK0   BANK1   BANK2
   462 ;;      Params:         0       0       0       0
   463 ;;      Locals:         0       1       0       0
   464 ;;      Temps:          0       6       0       0
   465 ;;      Totals:         0       7       0       0
   466 ;;Total ram usage:        7 bytes
   467 ;; Hardware stack levels required when called:    2
   468 ;; This function calls:
   469 ;;		_MainT_Initial
   470 ;;		_MainT
   471 ;;		___awdiv
   472 ;;		___lwdiv
   473 ;; This function is called by:
   474 ;;		Startup code after reset
   475 ;; This function uses a non-reentrant model
   476 ;;
   477                           psect	maintext
   478                           	file	"G:\Program\PIC\5.PIR_Ceiling_Embed\Release\PIR_Ceiling_Embed_V1.c"
   479                           	line	119
   480                           	global	__size_of_main
   481  06E8                     	__size_of_main	equ	__end_of_main-_main
   482                           	
   483  0013                     _main:	
   484                           	opt	stack 6
   485                           ; Regs used in _main: [wreg-fsr0h+status,2+status,0+btemp+1+pclath+cstack]
   486                           	line	121
   487                           	
   488  0013                     l3212:	
   489                           ;PIR_Ceiling_Embed_V1.c: 120: char i;
   490                           ;PIR_Ceiling_Embed_V1.c: 121: MainT_Initial();
   491  0013  158A  2761  118A   	fcall	_MainT_Initial
   492                           	line	122
   493                           	
   494  0016                     l3214:	
   495                           ;PIR_Ceiling_Embed_V1.c: 122: ; OSCCON=0x3c; ; ; TRISA=0b00101111;; TRISB=0b00000001;; T
                                 RISC=0b00000000;; ANSELA=0b00000111;; ANSELB=0b00000001;; PORTA=0b10101111;; PORTB=0b000
                                 00001;; PORTC=0b00000000; ; ; _nop(); ; ; Timer1=&VarTimer1; T1CON=(0x40 | 0x00 | 0x01);
                                  TMR1H=((65536-5
   496  0016  303C               	movlw	(03Ch)
   497  0017  1683               	bsf	status, 5	;RP0=1, select bank1
   498  0018  1303               	bcf	status, 6	;RP1=0, select bank1
   499  0019  0090               	movwf	(144)^080h	;volatile
   500                           	
   501  001A                     l3216:	
   502  001A  302F               	movlw	(02Fh)
   503  001B  0085               	movwf	(133)^080h	;volatile
   504                           	
   505  001C                     l3218:	
   506  001C  3001               	movlw	(01h)
   507  001D  0086               	movwf	(134)^080h	;volatile
   508                           	
   509  001E                     l3220:	
   510  001E  0187               	clrf	(135)^080h	;volatile
   511                           	
   512  001F                     l3222:	
   513  001F  3007               	movlw	(07h)
   514  0020  1683               	bsf	status, 5	;RP0=1, select bank3
   515  0021  1703               	bsf	status, 6	;RP1=1, select bank3
   516  0022  0085               	movwf	(389)^0180h	;volatile
   517                           	
   518  0023                     l3224:	
   519  0023  3001               	movlw	(01h)
   520  0024  0086               	movwf	(390)^0180h	;volatile
   521                           	
   522  0025                     l3226:	
   523  0025  30AF               	movlw	(0AFh)
   524  0026  1283               	bcf	status, 5	;RP0=0, select bank0
   525  0027  1303               	bcf	status, 6	;RP1=0, select bank0
   526  0028  0085               	movwf	(5)	;volatile
   527                           	
   528  0029                     l3228:	
   529  0029  3001               	movlw	(01h)
   530  002A  0086               	movwf	(6)	;volatile
   531                           	
   532  002B                     l3230:	
   533  002B  0187               	clrf	(7)	;volatile
   534                           	
   535  002C                     l3232:	
   536  002C  0000               	nop
   537                           	
   538  002D                     l3234:	
   539  002D  3044               	movlw	(_VarTimer1)&0ffh
   540  002E  1283               	bcf	status, 5	;RP0=0, select bank0
   541  002F  1303               	bcf	status, 6	;RP1=0, select bank0
   542  0030  00D0               	movwf	(??_main+0)+0
   543  0031  0850               	movf	(??_main+0)+0,w
   544  0032  00A5               	movwf	(_Timer1)
   545                           	
   546  0033                     l3236:	
   547  0033  3041               	movlw	(041h)
   548  0034  0090               	movwf	(16)	;volatile
   549                           	
   550  0035                     l3238:	
   551  0035  30FD               	movlw	(0FDh)
   552  0036  008F               	movwf	(15)	;volatile
   553                           	
   554  0037                     l3240:	
   555  0037  30DA               	movlw	(0DAh)
   556  0038  008E               	movwf	(14)	;volatile
   557                           	
   558  0039                     l3242:	
   559  0039  1683               	bsf	status, 5	;RP0=1, select bank1
   560  003A  1303               	bcf	status, 6	;RP1=0, select bank1
   561  003B  140C               	bsf	(1120/8)^080h,(1120)&7
   562                           	
   563  003C                     l3244:	
   564  003C  170B               	bsf	(94/8),(94)&7
   565                           	
   566  003D                     l3246:	
   567  003D  178B               	bsf	(95/8),(95)&7
   568                           	
   569  003E                     l3248:	
   570  003E  0000               	nop
   571                           	
   572  003F                     l3250:	
   573  003F  3070               	movlw	(070h)
   574  0040  1683               	bsf	status, 5	;RP0=1, select bank1
   575  0041  1303               	bcf	status, 6	;RP1=0, select bank1
   576  0042  009F               	movwf	(159)^080h	;volatile
   577                           	
   578  0043                     l3252:	
   579  0043  0000               	nop
   580                           	line	124
   581                           	
   582  0044                     l3254:	
   583                           ;PIR_Ceiling_Embed_V1.c: 124: LED=&VarLED; LED->Enable=1; while(RB5==0) RB5 = 1; while(R
                                 B4==0) RB4 = 1; while(RB3==0) RB3 = 1;
   584  0044  3040               	movlw	(_VarLED)&0ffh
   585  0045  1283               	bcf	status, 5	;RP0=0, select bank0
   586  0046  1303               	bcf	status, 6	;RP1=0, select bank0
   587  0047  00D0               	movwf	(??_main+0)+0
   588  0048  0850               	movf	(??_main+0)+0,w
   589  0049  00A2               	movwf	(_LED)
   590                           	
   591  004A                     l3256:	
   592  004A  0822               	movf	(_LED),w
   593  004B  0084               	movwf	fsr0
   594  004C  1383               	bcf	status, 7	;select IRP bank0
   595  004D  1400               	bsf	indf,0
   596  004E  2850               	goto	l841
   597                           	
   598  004F                     l842:	
   599  004F  1686               	bsf	(53/8),(53)&7
   600                           	
   601  0050                     l841:	
   602  0050  1E86               	btfss	(53/8),(53)&7
   603  0051  2853               	goto	u4301
   604  0052  2854               	goto	u4300
   605  0053                     u4301:
   606  0053  284F               	goto	l842
   607  0054                     u4300:
   608  0054  2857               	goto	l844
   609                           	
   610  0055                     l843:	
   611  0055  2857               	goto	l844
   612                           	
   613  0056                     l845:	
   614  0056  1606               	bsf	(52/8),(52)&7
   615                           	
   616  0057                     l844:	
   617  0057  1E06               	btfss	(52/8),(52)&7
   618  0058  285A               	goto	u4311
   619  0059  285B               	goto	u4310
   620  005A                     u4311:
   621  005A  2856               	goto	l845
   622  005B                     u4310:
   623  005B  285E               	goto	l847
   624                           	
   625  005C                     l846:	
   626  005C  285E               	goto	l847
   627                           	
   628  005D                     l848:	
   629  005D  1586               	bsf	(51/8),(51)&7
   630                           	
   631  005E                     l847:	
   632  005E  1D86               	btfss	(51/8),(51)&7
   633  005F  2861               	goto	u4321
   634  0060  2862               	goto	u4320
   635  0061                     u4321:
   636  0061  285D               	goto	l848
   637  0062                     u4320:
   638  0062  2863               	goto	l3258
   639                           	
   640  0063                     l849:	
   641                           	line	125
   642                           	
   643  0063                     l3258:	
   644                           ;PIR_Ceiling_Embed_V1.c: 125: Buzzer=&VarBuzzer; Buzzer->Enable=1;
   645  0063  303B               	movlw	(_VarBuzzer)&0ffh
   646  0064  00D0               	movwf	(??_main+0)+0
   647  0065  0850               	movf	(??_main+0)+0,w
   648  0066  00A0               	movwf	(_Buzzer)
   649                           	
   650  0067                     l3260:	
   651  0067  0820               	movf	(_Buzzer),w
   652  0068  0084               	movwf	fsr0
   653  0069  1383               	bcf	status, 7	;select IRP bank0
   654  006A  1400               	bsf	indf,0
   655                           	line	127
   656                           	
   657  006B                     l3262:	
   658                           ;PIR_Ceiling_Embed_V1.c: 127: CDS = &VarCDS; CDS->Enable=1;
   659  006B  302F               	movlw	(_VarCDS)&0ffh
   660  006C  00D0               	movwf	(??_main+0)+0
   661  006D  0850               	movf	(??_main+0)+0,w
   662  006E  00A1               	movwf	(_CDS)
   663  006F  0821               	movf	(_CDS),w
   664  0070  0084               	movwf	fsr0
   665  0071  1400               	bsf	indf,0
   666                           	line	128
   667                           	
   668  0072                     l3264:	
   669                           ;PIR_Ceiling_Embed_V1.c: 128: PIR=&VarPIR; PIR->Enable=1; PIR->Switch=1; PIR->RangeValue
                                 =25; PIR->Trigger=2; PIR->CloseTimeValue=100; while(RB4==0) RB4 = 1; RB5 = 0;
   670  0072  30A0               	movlw	(_VarPIR)&0ffh
   671  0073  00D0               	movwf	(??_main+0)+0
   672  0074  0850               	movf	(??_main+0)+0,w
   673  0075  00A4               	movwf	(_PIR)
   674                           	
   675  0076                     l3266:	
   676  0076  0824               	movf	(_PIR),w
   677  0077  0084               	movwf	fsr0
   678  0078  1400               	bsf	indf,0
   679                           	
   680  0079                     l3268:	
   681  0079  0824               	movf	(_PIR),w
   682  007A  3E20               	addlw	020h
   683  007B  0084               	movwf	fsr0
   684  007C  1500               	bsf	indf,2
   685                           	
   686  007D                     l3270:	
   687  007D  3019               	movlw	(019h)
   688  007E  00D0               	movwf	(??_main+0)+0
   689  007F  0824               	movf	(_PIR),w
   690  0080  3E2C               	addlw	02Ch
   691  0081  0084               	movwf	fsr0
   692  0082  0850               	movf	(??_main+0)+0,w
   693  0083  0080               	movwf	indf
   694                           	
   695  0084                     l3272:	
   696  0084  3002               	movlw	(02h)
   697  0085  00D0               	movwf	(??_main+0)+0
   698  0086  0824               	movf	(_PIR),w
   699  0087  3E23               	addlw	023h
   700  0088  0084               	movwf	fsr0
   701  0089  0850               	movf	(??_main+0)+0,w
   702  008A  0080               	movwf	indf
   703                           	
   704  008B                     l3274:	
   705  008B  0824               	movf	(_PIR),w
   706  008C  3E26               	addlw	026h
   707  008D  0084               	movwf	fsr0
   708  008E  3064               	movlw	low(064h)
   709  008F  0080               	movwf	indf
   710  0090  0A84               	incf	fsr0,f
   711  0091  3000               	movlw	high(064h)
   712  0092  0080               	movwf	indf
   713  0093  2895               	goto	l850
   714                           	
   715  0094                     l851:	
   716  0094  1606               	bsf	(52/8),(52)&7
   717                           	
   718  0095                     l850:	
   719  0095  1E06               	btfss	(52/8),(52)&7
   720  0096  2898               	goto	u4331
   721  0097  2899               	goto	u4330
   722  0098                     u4331:
   723  0098  2894               	goto	l851
   724  0099                     u4330:
   725                           	
   726  0099                     l852:	
   727  0099  1286               	bcf	(53/8),(53)&7
   728                           	line	129
   729                           	
   730  009A                     l3276:	
   731                           ;PIR_Ceiling_Embed_V1.c: 129: Lights2=&_Lights2; Lights2->Enable=1;
   732  009A  3035               	movlw	(__Lights2)&0ffh
   733  009B  00D0               	movwf	(??_main+0)+0
   734  009C  0850               	movf	(??_main+0)+0,w
   735  009D  00A3               	movwf	(_Lights2)
   736                           	
   737  009E                     l3278:	
   738  009E  0823               	movf	(_Lights2),w
   739  009F  0084               	movwf	fsr0
   740  00A0  1383               	bcf	status, 7	;select IRP bank0
   741  00A1  1400               	bsf	indf,0
   742  00A2  28A3               	goto	l3280
   743                           	line	130
   744                           ;PIR_Ceiling_Embed_V1.c: 130: while(1)
   745                           	
   746  00A3                     l853:	
   747                           	line	137
   748                           	
   749  00A3                     l3280:	
   750                           ;PIR_Ceiling_Embed_V1.c: 131: {
   751                           ;PIR_Ceiling_Embed_V1.c: 137: if(TMain->T1_Timerout==1)
   752  00A3  0857               	movf	(_TMain),w
   753  00A4  0084               	movwf	fsr0
   754  00A5  1D00               	btfss	indf,2
   755  00A6  28A8               	goto	u4341
   756  00A7  28A9               	goto	u4340
   757  00A8                     u4341:
   758  00A8  28A3               	goto	l3280
   759  00A9                     u4340:
   760                           	line	139
   761                           	
   762  00A9                     l3282:	
   763                           ;PIR_Ceiling_Embed_V1.c: 138: {
   764                           ;PIR_Ceiling_Embed_V1.c: 139: TMain->T1_Timerout=0;
   765  00A9  0857               	movf	(_TMain),w
   766  00AA  0084               	movwf	fsr0
   767  00AB  1100               	bcf	indf,2
   768                           	line	141
   769                           	
   770  00AC                     l3284:	
   771                           ;PIR_Ceiling_Embed_V1.c: 141: MainT();
   772  00AC  118A  2771  118A   	fcall	_MainT
   773                           	line	142
   774                           	
   775  00AF                     l3286:	
   776                           ;PIR_Ceiling_Embed_V1.c: 142: if(LED->GO1==1) { LED->Time1++; if(LED->Time1 == 150) { LE
                                 D->Time1=0; RB5=~RB5; } } if(LED->GO2==1) { LED->Time2++; if(LED->Time2 == 150) { LED->T
                                 ime2=0; RB4=~RB4; } } if(LED->GO3==1) { LED->Time3++; if(LED->Time3 == 150) { LED->Time3
                                 =0; RB3=~RB3; } 
   777  00AF  1283               	bcf	status, 5	;RP0=0, select bank0
   778  00B0  1303               	bcf	status, 6	;RP1=0, select bank0
   779  00B1  0822               	movf	(_LED),w
   780  00B2  0084               	movwf	fsr0
   781  00B3  1383               	bcf	status, 7	;select IRP bank0
   782  00B4  1C80               	btfss	indf,1
   783  00B5  28B7               	goto	u4351
   784  00B6  28B8               	goto	u4350
   785  00B7                     u4351:
   786  00B7  28D0               	goto	l3296
   787  00B8                     u4350:
   788                           	
   789  00B8                     l3288:	
   790  00B8  3001               	movlw	(01h)
   791  00B9  00D0               	movwf	(??_main+0)+0
   792  00BA  0822               	movf	(_LED),w
   793  00BB  3E01               	addlw	01h
   794  00BC  0084               	movwf	fsr0
   795  00BD  0850               	movf	(??_main+0)+0,w
   796  00BE  0780               	addwf	indf,f
   797                           	
   798  00BF                     l3290:	
   799  00BF  0822               	movf	(_LED),w
   800  00C0  3E01               	addlw	01h
   801  00C1  0084               	movwf	fsr0
   802  00C2  0800               	movf	indf,w
   803  00C3  3A96               	xorlw	096h
   804  00C4  1D03               	skipz
   805  00C5  28C7               	goto	u4361
   806  00C6  28C8               	goto	u4360
   807  00C7                     u4361:
   808  00C7  28D0               	goto	l3296
   809  00C8                     u4360:
   810                           	
   811  00C8                     l3292:	
   812  00C8  0822               	movf	(_LED),w
   813  00C9  3E01               	addlw	01h
   814  00CA  0084               	movwf	fsr0
   815  00CB  0180               	clrf	indf
   816                           	
   817  00CC                     l3294:	
   818  00CC  3020               	movlw	1<<((53)&7)
   819  00CD  0686               	xorwf	((53)/8),f
   820  00CE  28D0               	goto	l3296
   821                           	
   822  00CF                     l856:	
   823  00CF  28D0               	goto	l3296
   824                           	
   825  00D0                     l855:	
   826                           	
   827  00D0                     l3296:	
   828  00D0  0822               	movf	(_LED),w
   829  00D1  0084               	movwf	fsr0
   830  00D2  1D00               	btfss	indf,2
   831  00D3  28D5               	goto	u4371
   832  00D4  28D6               	goto	u4370
   833  00D5                     u4371:
   834  00D5  28EE               	goto	l3306
   835  00D6                     u4370:
   836                           	
   837  00D6                     l3298:	
   838  00D6  3001               	movlw	(01h)
   839  00D7  00D0               	movwf	(??_main+0)+0
   840  00D8  0822               	movf	(_LED),w
   841  00D9  3E02               	addlw	02h
   842  00DA  0084               	movwf	fsr0
   843  00DB  0850               	movf	(??_main+0)+0,w
   844  00DC  0780               	addwf	indf,f
   845                           	
   846  00DD                     l3300:	
   847  00DD  0822               	movf	(_LED),w
   848  00DE  3E02               	addlw	02h
   849  00DF  0084               	movwf	fsr0
   850  00E0  0800               	movf	indf,w
   851  00E1  3A96               	xorlw	096h
   852  00E2  1D03               	skipz
   853  00E3  28E5               	goto	u4381
   854  00E4  28E6               	goto	u4380
   855  00E5                     u4381:
   856  00E5  28EE               	goto	l3306
   857  00E6                     u4380:
   858                           	
   859  00E6                     l3302:	
   860  00E6  0822               	movf	(_LED),w
   861  00E7  3E02               	addlw	02h
   862  00E8  0084               	movwf	fsr0
   863  00E9  0180               	clrf	indf
   864                           	
   865  00EA                     l3304:	
   866  00EA  3010               	movlw	1<<((52)&7)
   867  00EB  0686               	xorwf	((52)/8),f
   868  00EC  28EE               	goto	l3306
   869                           	
   870  00ED                     l858:	
   871  00ED  28EE               	goto	l3306
   872                           	
   873  00EE                     l857:	
   874                           	
   875  00EE                     l3306:	
   876  00EE  0822               	movf	(_LED),w
   877  00EF  0084               	movwf	fsr0
   878  00F0  1D80               	btfss	indf,3
   879  00F1  28F3               	goto	u4391
   880  00F2  28F4               	goto	u4390
   881  00F3                     u4391:
   882  00F3  290C               	goto	l3316
   883  00F4                     u4390:
   884                           	
   885  00F4                     l3308:	
   886  00F4  3001               	movlw	(01h)
   887  00F5  00D0               	movwf	(??_main+0)+0
   888  00F6  0822               	movf	(_LED),w
   889  00F7  3E03               	addlw	03h
   890  00F8  0084               	movwf	fsr0
   891  00F9  0850               	movf	(??_main+0)+0,w
   892  00FA  0780               	addwf	indf,f
   893                           	
   894  00FB                     l3310:	
   895  00FB  0822               	movf	(_LED),w
   896  00FC  3E03               	addlw	03h
   897  00FD  0084               	movwf	fsr0
   898  00FE  0800               	movf	indf,w
   899  00FF  3A96               	xorlw	096h
   900  0100  1D03               	skipz
   901  0101  2903               	goto	u4401
   902  0102  2904               	goto	u4400
   903  0103                     u4401:
   904  0103  290C               	goto	l3316
   905  0104                     u4400:
   906                           	
   907  0104                     l3312:	
   908  0104  0822               	movf	(_LED),w
   909  0105  3E03               	addlw	03h
   910  0106  0084               	movwf	fsr0
   911  0107  0180               	clrf	indf
   912                           	
   913  0108                     l3314:	
   914  0108  3008               	movlw	1<<((51)&7)
   915  0109  0686               	xorwf	((51)/8),f
   916  010A  290C               	goto	l3316
   917                           	
   918  010B                     l860:	
   919  010B  290C               	goto	l3316
   920                           	
   921  010C                     l859:	
   922                           	line	143
   923                           	
   924  010C                     l3316:	
   925                           ;PIR_Ceiling_Embed_V1.c: 143: if(Buzzer->Enable == 1) { if(Buzzer->GO == 0) { if(Buzzer-
                                 >Beeps > 0) { Buzzer->Count=Buzzer->Beeps; Buzzer->Beeps=0; Buzzer->GO=1; RB1=1; } } els
                                 e { Buzzer->Time++; if(Buzzer->Time==80) { Buzzer->Time=0; if(RB1==0) RB1=1; else { RB1=
                                 0; if(Buzzer->Co
   926  010C  0820               	movf	(_Buzzer),w
   927  010D  0084               	movwf	fsr0
   928  010E  1C00               	btfss	indf,0
   929  010F  2911               	goto	u4411
   930  0110  2912               	goto	u4410
   931  0111                     u4411:
   932  0111  2994               	goto	l861
   933  0112                     u4410:
   934                           	
   935  0112                     l3318:	
   936  0112  0820               	movf	(_Buzzer),w
   937  0113  0084               	movwf	fsr0
   938  0114  1880               	btfsc	indf,1
   939  0115  2917               	goto	u4421
   940  0116  2918               	goto	u4420
   941  0117                     u4421:
   942  0117  2934               	goto	l3326
   943  0118                     u4420:
   944                           	
   945  0118                     l3320:	
   946  0118  0820               	movf	(_Buzzer),w
   947  0119  3E02               	addlw	02h
   948  011A  0084               	movwf	fsr0
   949  011B  0880               	movf	indf
   950  011C  1903               	skipnz
   951  011D  291F               	goto	u4431
   952  011E  2920               	goto	u4430
   953  011F                     u4431:
   954  011F  2994               	goto	l861
   955  0120                     u4430:
   956                           	
   957  0120                     l3322:	
   958  0120  0820               	movf	(_Buzzer),w
   959  0121  3E02               	addlw	02h
   960  0122  0084               	movwf	fsr0
   961  0123  0800               	movf	indf,w
   962  0124  00D0               	movwf	(??_main+0)+0
   963  0125  0820               	movf	(_Buzzer),w
   964  0126  3E01               	addlw	01h
   965  0127  0084               	movwf	fsr0
   966  0128  0850               	movf	(??_main+0)+0,w
   967  0129  0080               	movwf	indf
   968  012A  0820               	movf	(_Buzzer),w
   969  012B  3E02               	addlw	02h
   970  012C  0084               	movwf	fsr0
   971  012D  0180               	clrf	indf
   972  012E  0820               	movf	(_Buzzer),w
   973  012F  0084               	movwf	fsr0
   974  0130  1480               	bsf	indf,1
   975                           	
   976  0131                     l3324:	
   977  0131  1486               	bsf	(49/8),(49)&7
   978  0132  2994               	goto	l861
   979                           	
   980  0133                     l863:	
   981  0133  2994               	goto	l861
   982                           	
   983  0134                     l862:	
   984                           	
   985  0134                     l3326:	
   986  0134  3001               	movlw	(01h)
   987  0135  00D0               	movwf	(??_main+0)+0
   988  0136  0820               	movf	(_Buzzer),w
   989  0137  3E04               	addlw	04h
   990  0138  0084               	movwf	fsr0
   991  0139  0850               	movf	(??_main+0)+0,w
   992  013A  0780               	addwf	indf,f
   993                           	
   994  013B                     l3328:	
   995  013B  0820               	movf	(_Buzzer),w
   996  013C  3E04               	addlw	04h
   997  013D  0084               	movwf	fsr0
   998  013E  0800               	movf	indf,w
   999  013F  3A50               	xorlw	050h
  1000  0140  1D03               	skipz
  1001  0141  2943               	goto	u4441
  1002  0142  2944               	goto	u4440
  1003  0143                     u4441:
  1004  0143  297C               	goto	l3348
  1005  0144                     u4440:
  1006                           	
  1007  0144                     l3330:	
  1008  0144  0820               	movf	(_Buzzer),w
  1009  0145  3E04               	addlw	04h
  1010  0146  0084               	movwf	fsr0
  1011  0147  0180               	clrf	indf
  1012                           	
  1013  0148                     l3332:	
  1014  0148  1886               	btfsc	(49/8),(49)&7
  1015  0149  294B               	goto	u4451
  1016  014A  294C               	goto	u4450
  1017  014B                     u4451:
  1018  014B  294E               	goto	l866
  1019  014C                     u4450:
  1020                           	
  1021  014C                     l3334:	
  1022  014C  1486               	bsf	(49/8),(49)&7
  1023  014D  297C               	goto	l3348
  1024                           	
  1025  014E                     l866:	
  1026  014E  1086               	bcf	(49/8),(49)&7
  1027                           	
  1028  014F                     l3336:	
  1029  014F  0820               	movf	(_Buzzer),w
  1030  0150  3E01               	addlw	01h
  1031  0151  0084               	movwf	fsr0
  1032  0152  3002               	movlw	(02h)
  1033  0153  0200               	subwf	indf,w
  1034  0154  1C03               	skipc
  1035  0155  2957               	goto	u4461
  1036  0156  2958               	goto	u4460
  1037  0157                     u4461:
  1038  0157  295E               	goto	l3340
  1039  0158                     u4460:
  1040                           	
  1041  0158                     l3338:	
  1042  0158  0820               	movf	(_Buzzer),w
  1043  0159  3E01               	addlw	01h
  1044  015A  0084               	movwf	fsr0
  1045  015B  3001               	movlw	low(01h)
  1046  015C  0280               	subwf	indf,f
  1047  015D  297C               	goto	l3348
  1048                           	
  1049  015E                     l868:	
  1050                           	
  1051  015E                     l3340:	
  1052  015E  0820               	movf	(_Buzzer),w
  1053  015F  3E03               	addlw	03h
  1054  0160  0084               	movwf	fsr0
  1055  0161  0880               	movf	indf,f
  1056  0162  1D03               	skipz
  1057  0163  2965               	goto	u4471
  1058  0164  2966               	goto	u4470
  1059  0165                     u4471:
  1060  0165  296A               	goto	l3344
  1061  0166                     u4470:
  1062                           	
  1063  0166                     l3342:	
  1064  0166  0820               	movf	(_Buzzer),w
  1065  0167  0084               	movwf	fsr0
  1066  0168  1080               	bcf	indf,1
  1067  0169  297C               	goto	l3348
  1068                           	
  1069  016A                     l870:	
  1070                           	
  1071  016A                     l3344:	
  1072  016A  0820               	movf	(_Buzzer),w
  1073  016B  3E03               	addlw	03h
  1074  016C  0084               	movwf	fsr0
  1075  016D  0800               	movf	indf,w
  1076  016E  00D0               	movwf	(??_main+0)+0
  1077  016F  0820               	movf	(_Buzzer),w
  1078  0170  3E01               	addlw	01h
  1079  0171  0084               	movwf	fsr0
  1080  0172  0850               	movf	(??_main+0)+0,w
  1081  0173  0780               	addwf	indf,f
  1082                           	
  1083  0174                     l3346:	
  1084  0174  0820               	movf	(_Buzzer),w
  1085  0175  3E03               	addlw	03h
  1086  0176  0084               	movwf	fsr0
  1087  0177  0180               	clrf	indf
  1088  0178  297C               	goto	l3348
  1089                           	
  1090  0179                     l871:	
  1091  0179  297C               	goto	l3348
  1092                           	
  1093  017A                     l869:	
  1094  017A  297C               	goto	l3348
  1095                           	
  1096  017B                     l867:	
  1097  017B  297C               	goto	l3348
  1098                           	
  1099  017C                     l865:	
  1100                           	
  1101  017C                     l3348:	
  1102  017C  0820               	movf	(_Buzzer),w
  1103  017D  3E02               	addlw	02h
  1104  017E  0084               	movwf	fsr0
  1105  017F  0880               	movf	indf
  1106  0180  1903               	skipnz
  1107  0181  2983               	goto	u4481
  1108  0182  2984               	goto	u4480
  1109  0183                     u4481:
  1110  0183  2994               	goto	l861
  1111  0184                     u4480:
  1112                           	
  1113  0184                     l3350:	
  1114  0184  0820               	movf	(_Buzzer),w
  1115  0185  3E02               	addlw	02h
  1116  0186  0084               	movwf	fsr0
  1117  0187  0800               	movf	indf,w
  1118  0188  00D0               	movwf	(??_main+0)+0
  1119  0189  0820               	movf	(_Buzzer),w
  1120  018A  3E03               	addlw	03h
  1121  018B  0084               	movwf	fsr0
  1122  018C  0850               	movf	(??_main+0)+0,w
  1123  018D  0080               	movwf	indf
  1124  018E  0820               	movf	(_Buzzer),w
  1125  018F  3E02               	addlw	02h
  1126  0190  0084               	movwf	fsr0
  1127  0191  0180               	clrf	indf
  1128  0192  2994               	goto	l861
  1129                           	
  1130  0193                     l872:	
  1131  0193  2994               	goto	l861
  1132                           	
  1133  0194                     l864:	
  1134                           	
  1135  0194                     l861:	
  1136                           	line	145
  1137                           ;PIR_Ceiling_Embed_V1.c: 145: if(CDS->Enable==1) { CDS->Time++; if(CDS->Time == 100) { C
                                 DS->Time=0; CDS->ADCGO=1; ADCON1=0x70; ; ; ADCON0=0x31; ; GO_nDONE=1; while(GO_nDONE); C
                                 DS->SignalAD=ADRES; ; ; ADCON0=0x09; ; GO_nDONE=1; while(GO_nDONE); CDS->VRAD=ADRES; ; C
                                 DS->ADCGO=0; CDS
  1138  0194  0821               	movf	(_CDS),w
  1139  0195  0084               	movwf	fsr0
  1140  0196  1C00               	btfss	indf,0
  1141  0197  2999               	goto	u4491
  1142  0198  299A               	goto	u4490
  1143  0199                     u4491:
  1144  0199  2A2C               	goto	l873
  1145  019A                     u4490:
  1146                           	
  1147  019A                     l3352:	
  1148  019A  3001               	movlw	(01h)
  1149  019B  00D0               	movwf	(??_main+0)+0
  1150  019C  0821               	movf	(_CDS),w
  1151  019D  3E01               	addlw	01h
  1152  019E  0084               	movwf	fsr0
  1153  019F  0850               	movf	(??_main+0)+0,w
  1154  01A0  0780               	addwf	indf,f
  1155                           	
  1156  01A1                     l3354:	
  1157  01A1  0821               	movf	(_CDS),w
  1158  01A2  3E01               	addlw	01h
  1159  01A3  0084               	movwf	fsr0
  1160  01A4  0800               	movf	indf,w
  1161  01A5  3A64               	xorlw	064h
  1162  01A6  1D03               	skipz
  1163  01A7  29A9               	goto	u4501
  1164  01A8  29AA               	goto	u4500
  1165  01A9                     u4501:
  1166  01A9  2A2C               	goto	l873
  1167  01AA                     u4500:
  1168                           	
  1169  01AA                     l3356:	
  1170  01AA  0821               	movf	(_CDS),w
  1171  01AB  3E01               	addlw	01h
  1172  01AC  0084               	movwf	fsr0
  1173  01AD  0180               	clrf	indf
  1174  01AE  0821               	movf	(_CDS),w
  1175  01AF  3E05               	addlw	05h
  1176  01B0  0084               	movwf	fsr0
  1177  01B1  1400               	bsf	indf,0
  1178                           	
  1179  01B2                     l3358:	
  1180  01B2  3070               	movlw	(070h)
  1181  01B3  1683               	bsf	status, 5	;RP0=1, select bank1
  1182  01B4  1303               	bcf	status, 6	;RP1=0, select bank1
  1183  01B5  009F               	movwf	(159)^080h	;volatile
  1184                           	
  1185  01B6                     l3360:	
  1186  01B6  3031               	movlw	(031h)
  1187  01B7  1283               	bcf	status, 5	;RP0=0, select bank0
  1188  01B8  1303               	bcf	status, 6	;RP1=0, select bank0
  1189  01B9  009F               	movwf	(31)	;volatile
  1190                           	
  1191  01BA                     l3362:	
  1192  01BA  149F               	bsf	(249/8),(249)&7
  1193  01BB  29BC               	goto	l875
  1194                           	
  1195  01BC                     l876:	
  1196                           	
  1197  01BC                     l875:	
  1198  01BC  189F               	btfsc	(249/8),(249)&7
  1199  01BD  29BF               	goto	u4511
  1200  01BE  29C0               	goto	u4510
  1201  01BF                     u4511:
  1202  01BF  29BC               	goto	l875
  1203  01C0                     u4510:
  1204  01C0  29C1               	goto	l3364
  1205                           	
  1206  01C1                     l877:	
  1207                           	
  1208  01C1                     l3364:	
  1209  01C1  081E               	movf	(30),w	;volatile
  1210  01C2  00D0               	movwf	(??_main+0)+0
  1211  01C3  0821               	movf	(_CDS),w
  1212  01C4  3E04               	addlw	04h
  1213  01C5  0084               	movwf	fsr0
  1214  01C6  0850               	movf	(??_main+0)+0,w
  1215  01C7  1383               	bcf	status, 7	;select IRP bank0
  1216  01C8  0080               	movwf	indf
  1217                           	
  1218  01C9                     l3366:	
  1219  01C9  3009               	movlw	(09h)
  1220  01CA  009F               	movwf	(31)	;volatile
  1221                           	
  1222  01CB                     l3368:	
  1223  01CB  149F               	bsf	(249/8),(249)&7
  1224  01CC  29CD               	goto	l878
  1225                           	
  1226  01CD                     l879:	
  1227                           	
  1228  01CD                     l878:	
  1229  01CD  189F               	btfsc	(249/8),(249)&7
  1230  01CE  29D0               	goto	u4521
  1231  01CF  29D1               	goto	u4520
  1232  01D0                     u4521:
  1233  01D0  29CD               	goto	l878
  1234  01D1                     u4520:
  1235  01D1  29D2               	goto	l3370
  1236                           	
  1237  01D2                     l880:	
  1238                           	
  1239  01D2                     l3370:	
  1240  01D2  081E               	movf	(30),w	;volatile
  1241  01D3  00D0               	movwf	(??_main+0)+0
  1242  01D4  0821               	movf	(_CDS),w
  1243  01D5  3E03               	addlw	03h
  1244  01D6  0084               	movwf	fsr0
  1245  01D7  0850               	movf	(??_main+0)+0,w
  1246  01D8  1383               	bcf	status, 7	;select IRP bank0
  1247  01D9  0080               	movwf	indf
  1248  01DA  0821               	movf	(_CDS),w
  1249  01DB  3E05               	addlw	05h
  1250  01DC  0084               	movwf	fsr0
  1251  01DD  1000               	bcf	indf,0
  1252  01DE  0821               	movf	(_CDS),w
  1253  01DF  0084               	movwf	fsr0
  1254  01E0  1480               	bsf	indf,1
  1255  01E1  0821               	movf	(_CDS),w
  1256  01E2  0084               	movwf	fsr0
  1257  01E3  1C80               	btfss	indf,1
  1258  01E4  29E6               	goto	u4531
  1259  01E5  29E7               	goto	u4530
  1260  01E6                     u4531:
  1261  01E6  2A2C               	goto	l873
  1262  01E7                     u4530:
  1263                           	
  1264  01E7                     l3372:	
  1265  01E7  0821               	movf	(_CDS),w
  1266  01E8  0084               	movwf	fsr0
  1267  01E9  1080               	bcf	indf,1
  1268  01EA  0821               	movf	(_CDS),w
  1269  01EB  3E02               	addlw	02h
  1270  01EC  0084               	movwf	fsr0
  1271  01ED  1800               	btfsc	indf,0
  1272  01EE  29F0               	goto	u4541
  1273  01EF  29F1               	goto	u4540
  1274  01F0                     u4541:
  1275  01F0  2A07               	goto	l3378
  1276  01F1                     u4540:
  1277                           	
  1278  01F1                     l3374:	
  1279  01F1  0821               	movf	(_CDS),w
  1280  01F2  3E03               	addlw	03h
  1281  01F3  0084               	movwf	fsr
  1282  01F4  0800               	movf	indf,w
  1283  01F5  00D0               	movwf	(??_main+0)+0
  1284  01F6  0821               	movf	(_CDS),w
  1285  01F7  3E04               	addlw	04h
  1286  01F8  0084               	movwf	fsr0
  1287  01F9  0800               	movf	indf,w
  1288  01FA  00D1               	movwf	(??_main+1)+0
  1289  01FB  0850               	movf	(??_main+0)+0,w
  1290  01FC  0251               	subwf	(??_main+1)+0,w
  1291  01FD  1C03               	skipc
  1292  01FE  2A00               	goto	u4551
  1293  01FF  2A01               	goto	u4550
  1294  0200                     u4551:
  1295  0200  2A2C               	goto	l873
  1296  0201                     u4550:
  1297                           	
  1298  0201                     l3376:	
  1299  0201  0821               	movf	(_CDS),w
  1300  0202  3E02               	addlw	02h
  1301  0203  0084               	movwf	fsr0
  1302  0204  1400               	bsf	indf,0
  1303  0205  2A2C               	goto	l873
  1304                           	
  1305  0206                     l883:	
  1306  0206  2A2C               	goto	l873
  1307                           	
  1308  0207                     l882:	
  1309                           	
  1310  0207                     l3378:	
  1311  0207  0821               	movf	(_CDS),w
  1312  0208  3E03               	addlw	03h
  1313  0209  0084               	movwf	fsr0
  1314  020A  0800               	movf	indf,w
  1315  020B  3E9C               	addlw	low(-100)
  1316  020C  00D0               	movwf	(??_main+0)+0
  1317  020D  30FF               	movlw	high(-100)
  1318  020E  1803               	skipnc
  1319  020F  3000               	movlw	(high(-100)+1)&0ffh
  1320  0210  00D1               	movwf	((??_main+0)+0)+1
  1321  0211  0821               	movf	(_CDS),w
  1322  0212  3E04               	addlw	04h
  1323  0213  0084               	movwf	fsr0
  1324  0214  0851               	movf	1+(??_main+0)+0,w
  1325  0215  3A80               	xorlw	80h
  1326  0216  00D2               	movwf	(??_main+2)+0
  1327  0217  3080               	movlw	80h
  1328  0218  0252               	subwf	(??_main+2)+0,w
  1329  0219  1D03               	skipz
  1330  021A  2A1D               	goto	u4565
  1331  021B  0800               	movf	indf,w
  1332  021C  0250               	subwf	0+(??_main+0)+0,w
  1333  021D                     u4565:
  1334                           
  1335  021D  1C03               	skipc
  1336  021E  2A20               	goto	u4561
  1337  021F  2A21               	goto	u4560
  1338  0220                     u4561:
  1339  0220  2A2C               	goto	l873
  1340  0221                     u4560:
  1341                           	
  1342  0221                     l3380:	
  1343  0221  1283               	bcf	status, 5	;RP0=0, select bank0
  1344  0222  1303               	bcf	status, 6	;RP1=0, select bank0
  1345  0223  0821               	movf	(_CDS),w
  1346  0224  3E02               	addlw	02h
  1347  0225  0084               	movwf	fsr0
  1348  0226  1383               	bcf	status, 7	;select IRP bank0
  1349  0227  1000               	bcf	indf,0
  1350  0228  2A2C               	goto	l873
  1351                           	
  1352  0229                     l885:	
  1353  0229  2A2C               	goto	l873
  1354                           	
  1355  022A                     l884:	
  1356  022A  2A2C               	goto	l873
  1357                           	
  1358  022B                     l881:	
  1359  022B  2A2C               	goto	l873
  1360                           	
  1361  022C                     l874:	
  1362                           	
  1363  022C                     l873:	
  1364                           	line	146
  1365                           ;PIR_Ceiling_Embed_V1.c: 146: if(PIR->Enable == 1) { PIR->Time++; if(PIR->Time == 100) {
                                  PIR->Time=0; PIR->ADCGO=1; ADCON1=0x70; ; ; ADCON0=0x05; ; GO_nDONE=1; while(GO_nDONE);
                                  PIR->VRAD=ADRES/51; ; ; ADCON0=0x0d; ; GO_nDONE=1; while(GO_nDONE); PIR->SignalAD=ADRES
                                 ; ; PIR->ADCGO=0
  1366  022C  1283               	bcf	status, 5	;RP0=0, select bank0
  1367  022D  1303               	bcf	status, 6	;RP1=0, select bank0
  1368  022E  0824               	movf	(_PIR),w
  1369  022F  0084               	movwf	fsr0
  1370  0230  1383               	bcf	status, 7	;select IRP bank0
  1371  0231  1C00               	btfss	indf,0
  1372  0232  2A34               	goto	u4571
  1373  0233  2A35               	goto	u4570
  1374  0234                     u4571:
  1375  0234  2E41               	goto	l3556
  1376  0235                     u4570:
  1377                           	
  1378  0235                     l3382:	
  1379  0235  3001               	movlw	(01h)
  1380  0236  00D0               	movwf	(??_main+0)+0
  1381  0237  0824               	movf	(_PIR),w
  1382  0238  3E04               	addlw	04h
  1383  0239  0084               	movwf	fsr0
  1384  023A  0850               	movf	(??_main+0)+0,w
  1385  023B  0780               	addwf	indf,f
  1386                           	
  1387  023C                     l3384:	
  1388  023C  0824               	movf	(_PIR),w
  1389  023D  3E04               	addlw	04h
  1390  023E  0084               	movwf	fsr0
  1391  023F  0800               	movf	indf,w
  1392  0240  3A64               	xorlw	064h
  1393  0241  1D03               	skipz
  1394  0242  2A44               	goto	u4581
  1395  0243  2A45               	goto	u4580
  1396  0244                     u4581:
  1397  0244  2E41               	goto	l3556
  1398  0245                     u4580:
  1399                           	
  1400  0245                     l3386:	
  1401  0245  0824               	movf	(_PIR),w
  1402  0246  3E04               	addlw	04h
  1403  0247  0084               	movwf	fsr0
  1404  0248  0180               	clrf	indf
  1405  0249  0824               	movf	(_PIR),w
  1406  024A  0084               	movwf	fsr0
  1407  024B  1480               	bsf	indf,1
  1408                           	
  1409  024C                     l3388:	
  1410  024C  3070               	movlw	(070h)
  1411  024D  1683               	bsf	status, 5	;RP0=1, select bank1
  1412  024E  1303               	bcf	status, 6	;RP1=0, select bank1
  1413  024F  009F               	movwf	(159)^080h	;volatile
  1414                           	
  1415  0250                     l3390:	
  1416  0250  3005               	movlw	(05h)
  1417  0251  1283               	bcf	status, 5	;RP0=0, select bank0
  1418  0252  1303               	bcf	status, 6	;RP1=0, select bank0
  1419  0253  009F               	movwf	(31)	;volatile
  1420                           	
  1421  0254                     l3392:	
  1422  0254  149F               	bsf	(249/8),(249)&7
  1423  0255  2A56               	goto	l888
  1424                           	
  1425  0256                     l889:	
  1426                           	
  1427  0256                     l888:	
  1428  0256  189F               	btfsc	(249/8),(249)&7
  1429  0257  2A59               	goto	u4591
  1430  0258  2A5A               	goto	u4590
  1431  0259                     u4591:
  1432  0259  2A56               	goto	l888
  1433  025A                     u4590:
  1434  025A  2A5B               	goto	l3394
  1435                           	
  1436  025B                     l890:	
  1437                           	
  1438  025B                     l3394:	
  1439  025B  3033               	movlw	low(033h)
  1440  025C  00C7               	movwf	(?___awdiv)
  1441  025D  3000               	movlw	high(033h)
  1442  025E  00C8               	movwf	((?___awdiv))+1
  1443  025F  081E               	movf	(30),w	;volatile
  1444  0260  00D0               	movwf	(??_main+0)+0
  1445  0261  01D1               	clrf	(??_main+0)+0+1
  1446  0262  0850               	movf	0+(??_main+0)+0,w
  1447  0263  00C9               	movwf	0+(?___awdiv)+02h
  1448  0264  0851               	movf	1+(??_main+0)+0,w
  1449  0265  00CA               	movwf	1+(?___awdiv)+02h
  1450  0266  118A  26FB  118A   	fcall	___awdiv
  1451  0269  1283               	bcf	status, 5	;RP0=0, select bank0
  1452  026A  1303               	bcf	status, 6	;RP1=0, select bank0
  1453  026B  0847               	movf	(0+(?___awdiv)),w
  1454  026C  00D2               	movwf	(??_main+2)+0
  1455  026D  0824               	movf	(_PIR),w
  1456  026E  3E01               	addlw	01h
  1457  026F  0084               	movwf	fsr0
  1458  0270  0852               	movf	(??_main+2)+0,w
  1459  0271  1383               	bcf	status, 7	;select IRP bank0
  1460  0272  0080               	movwf	indf
  1461                           	
  1462  0273                     l3396:	
  1463  0273  300D               	movlw	(0Dh)
  1464  0274  009F               	movwf	(31)	;volatile
  1465                           	
  1466  0275                     l3398:	
  1467  0275  149F               	bsf	(249/8),(249)&7
  1468  0276  2A77               	goto	l891
  1469                           	
  1470  0277                     l892:	
  1471                           	
  1472  0277                     l891:	
  1473  0277  189F               	btfsc	(249/8),(249)&7
  1474  0278  2A7A               	goto	u4601
  1475  0279  2A7B               	goto	u4600
  1476  027A                     u4601:
  1477  027A  2A77               	goto	l891
  1478  027B                     u4600:
  1479  027B  2A7C               	goto	l3400
  1480                           	
  1481  027C                     l893:	
  1482                           	
  1483  027C                     l3400:	
  1484  027C  081E               	movf	(30),w	;volatile
  1485  027D  00D0               	movwf	(??_main+0)+0
  1486  027E  0824               	movf	(_PIR),w
  1487  027F  3E03               	addlw	03h
  1488  0280  0084               	movwf	fsr0
  1489  0281  0850               	movf	(??_main+0)+0,w
  1490  0282  1383               	bcf	status, 7	;select IRP bank0
  1491  0283  0080               	movwf	indf
  1492  0284  0824               	movf	(_PIR),w
  1493  0285  0084               	movwf	fsr0
  1494  0286  1080               	bcf	indf,1
  1495  0287  0824               	movf	(_PIR),w
  1496  0288  3E20               	addlw	020h
  1497  0289  0084               	movwf	fsr0
  1498  028A  1400               	bsf	indf,0
  1499                           	
  1500  028B                     l3402:	
  1501  028B  0824               	movf	(_PIR),w
  1502  028C  3E01               	addlw	01h
  1503  028D  0084               	movwf	fsr0
  1504  028E  0880               	movf	indf,f
  1505  028F  1D03               	skipz
  1506  0290  2A92               	goto	u4611
  1507  0291  2A93               	goto	u4610
  1508  0292                     u4611:
  1509  0292  2A9C               	goto	l3406
  1510  0293                     u4610:
  1511                           	
  1512  0293                     l3404:	
  1513  0293  0824               	movf	(_PIR),w
  1514  0294  3E26               	addlw	026h
  1515  0295  0084               	movwf	fsr0
  1516  0296  3064               	movlw	low(064h)
  1517  0297  0080               	movwf	indf
  1518  0298  0A84               	incf	fsr0,f
  1519  0299  3000               	movlw	high(064h)
  1520  029A  0080               	movwf	indf
  1521  029B  2AE8               	goto	l3422
  1522                           	
  1523  029C                     l894:	
  1524                           	
  1525  029C                     l3406:	
  1526  029C  0824               	movf	(_PIR),w
  1527  029D  3E01               	addlw	01h
  1528  029E  0084               	movwf	fsr0
  1529  029F  0800               	movf	indf,w
  1530  02A0  3A01               	xorlw	01h
  1531  02A1  1D03               	skipz
  1532  02A2  2AA4               	goto	u4621
  1533  02A3  2AA5               	goto	u4620
  1534  02A4                     u4621:
  1535  02A4  2AAE               	goto	l3410
  1536  02A5                     u4620:
  1537                           	
  1538  02A5                     l3408:	
  1539  02A5  0824               	movf	(_PIR),w
  1540  02A6  3E26               	addlw	026h
  1541  02A7  0084               	movwf	fsr0
  1542  02A8  30B8               	movlw	low(0BB8h)
  1543  02A9  0080               	movwf	indf
  1544  02AA  0A84               	incf	fsr0,f
  1545  02AB  300B               	movlw	high(0BB8h)
  1546  02AC  0080               	movwf	indf
  1547  02AD  2AE8               	goto	l3422
  1548                           	
  1549  02AE                     l896:	
  1550                           	
  1551  02AE                     l3410:	
  1552  02AE  0824               	movf	(_PIR),w
  1553  02AF  3E01               	addlw	01h
  1554  02B0  0084               	movwf	fsr0
  1555  02B1  0800               	movf	indf,w
  1556  02B2  3A02               	xorlw	02h
  1557  02B3  1D03               	skipz
  1558  02B4  2AB6               	goto	u4631
  1559  02B5  2AB7               	goto	u4630
  1560  02B6                     u4631:
  1561  02B6  2AC0               	goto	l3414
  1562  02B7                     u4630:
  1563                           	
  1564  02B7                     l3412:	
  1565  02B7  0824               	movf	(_PIR),w
  1566  02B8  3E26               	addlw	026h
  1567  02B9  0084               	movwf	fsr0
  1568  02BA  3070               	movlw	low(01770h)
  1569  02BB  0080               	movwf	indf
  1570  02BC  0A84               	incf	fsr0,f
  1571  02BD  3017               	movlw	high(01770h)
  1572  02BE  0080               	movwf	indf
  1573  02BF  2AE8               	goto	l3422
  1574                           	
  1575  02C0                     l898:	
  1576                           	
  1577  02C0                     l3414:	
  1578  02C0  0824               	movf	(_PIR),w
  1579  02C1  3E01               	addlw	01h
  1580  02C2  0084               	movwf	fsr0
  1581  02C3  0800               	movf	indf,w
  1582  02C4  3A03               	xorlw	03h
  1583  02C5  1D03               	skipz
  1584  02C6  2AC8               	goto	u4641
  1585  02C7  2AC9               	goto	u4640
  1586  02C8                     u4641:
  1587  02C8  2AD2               	goto	l3418
  1588  02C9                     u4640:
  1589                           	
  1590  02C9                     l3416:	
  1591  02C9  0824               	movf	(_PIR),w
  1592  02CA  3E26               	addlw	026h
  1593  02CB  0084               	movwf	fsr0
  1594  02CC  3028               	movlw	low(02328h)
  1595  02CD  0080               	movwf	indf
  1596  02CE  0A84               	incf	fsr0,f
  1597  02CF  3023               	movlw	high(02328h)
  1598  02D0  0080               	movwf	indf
  1599  02D1  2AE8               	goto	l3422
  1600                           	
  1601  02D2                     l900:	
  1602                           	
  1603  02D2                     l3418:	
  1604  02D2  0824               	movf	(_PIR),w
  1605  02D3  3E01               	addlw	01h
  1606  02D4  0084               	movwf	fsr0
  1607  02D5  3004               	movlw	(04h)
  1608  02D6  0200               	subwf	indf,w
  1609  02D7  1C03               	skipc
  1610  02D8  2ADA               	goto	u4651
  1611  02D9  2ADB               	goto	u4650
  1612  02DA                     u4651:
  1613  02DA  2AE8               	goto	l3422
  1614  02DB                     u4650:
  1615                           	
  1616  02DB                     l3420:	
  1617  02DB  0824               	movf	(_PIR),w
  1618  02DC  3E26               	addlw	026h
  1619  02DD  0084               	movwf	fsr0
  1620  02DE  30E0               	movlw	low(02EE0h)
  1621  02DF  0080               	movwf	indf
  1622  02E0  0A84               	incf	fsr0,f
  1623  02E1  302E               	movlw	high(02EE0h)
  1624  02E2  0080               	movwf	indf
  1625  02E3  2AE8               	goto	l3422
  1626                           	
  1627  02E4                     l902:	
  1628  02E4  2AE8               	goto	l3422
  1629                           	
  1630  02E5                     l901:	
  1631  02E5  2AE8               	goto	l3422
  1632                           	
  1633  02E6                     l899:	
  1634  02E6  2AE8               	goto	l3422
  1635                           	
  1636  02E7                     l897:	
  1637  02E7  2AE8               	goto	l3422
  1638                           	
  1639  02E8                     l895:	
  1640                           	
  1641  02E8                     l3422:	
  1642  02E8  0824               	movf	(_PIR),w
  1643  02E9  3E03               	addlw	03h
  1644  02EA  0084               	movwf	fsr0
  1645  02EB  0800               	movf	indf,w
  1646  02EC  00D0               	movwf	(??_main+0)+0
  1647  02ED  0824               	movf	(_PIR),w
  1648  02EE  3E05               	addlw	05h
  1649  02EF  0084               	movwf	fsr0
  1650  02F0  0800               	movf	indf,w
  1651  02F1  3E08               	addlw	08h
  1652  02F2  0724               	addwf	(_PIR),w
  1653  02F3  00D1               	movwf	(??_main+1)+0
  1654  02F4  0851               	movf	0+(??_main+1)+0,w
  1655  02F5  0084               	movwf	fsr0
  1656  02F6  0850               	movf	(??_main+0)+0,w
  1657  02F7  0080               	movwf	indf
  1658                           	
  1659  02F8                     l3424:	
  1660  02F8  01D6               	clrf	(main@i)
  1661                           	
  1662  02F9                     l3426:	
  1663  02F9  300A               	movlw	(0Ah)
  1664  02FA  0256               	subwf	(main@i),w
  1665  02FB  1C03               	skipc
  1666  02FC  2AFE               	goto	u4661
  1667  02FD  2AFF               	goto	u4660
  1668  02FE                     u4661:
  1669  02FE  2B01               	goto	l3430
  1670  02FF                     u4660:
  1671  02FF  2B23               	goto	l3436
  1672                           	
  1673  0300                     l3428:	
  1674  0300  2B23               	goto	l3436
  1675                           	
  1676  0301                     l903:	
  1677                           	
  1678  0301                     l3430:	
  1679  0301  0856               	movf	(main@i),w
  1680  0302  3E08               	addlw	08h
  1681  0303  0724               	addwf	(_PIR),w
  1682  0304  00D0               	movwf	(??_main+0)+0
  1683  0305  0850               	movf	0+(??_main+0)+0,w
  1684  0306  0084               	movwf	fsr0
  1685  0307  0800               	movf	indf,w
  1686  0308  00D1               	movwf	(??_main+1)+0
  1687  0309  01D2               	clrf	(??_main+1)+0+1
  1688  030A  0824               	movf	(_PIR),w
  1689  030B  3E12               	addlw	012h
  1690  030C  0084               	movwf	fsr0
  1691  030D  0851               	movf	0+(??_main+1)+0,w
  1692  030E  0780               	addwf	indf,f
  1693  030F  0F84               	incfsz	fsr0,f
  1694  0310  0800               	movf	indf,w
  1695  0311  1803               	skipnc
  1696  0312  0A00               	incf	indf,w
  1697  0313  00FF               	movwf	btemp+1
  1698  0314  0852               	movf	1+(??_main+1)+0,w
  1699  0315  077F               	addwf	btemp+1,w
  1700  0316  0080               	movwf	indf
  1701  0317  0384               	decf	fsr0,f
  1702                           	
  1703  0318                     l3432:	
  1704  0318  3001               	movlw	(01h)
  1705  0319  00D0               	movwf	(??_main+0)+0
  1706  031A  0850               	movf	(??_main+0)+0,w
  1707  031B  07D6               	addwf	(main@i),f
  1708                           	
  1709  031C                     l3434:	
  1710  031C  300A               	movlw	(0Ah)
  1711  031D  0256               	subwf	(main@i),w
  1712  031E  1C03               	skipc
  1713  031F  2B21               	goto	u4671
  1714  0320  2B22               	goto	u4670
  1715  0321                     u4671:
  1716  0321  2B01               	goto	l3430
  1717  0322                     u4670:
  1718  0322  2B23               	goto	l3436
  1719                           	
  1720  0323                     l904:	
  1721                           	
  1722  0323                     l3436:	
  1723  0323  300A               	movlw	low(0Ah)
  1724  0324  00C7               	movwf	(?___lwdiv)
  1725  0325  3000               	movlw	high(0Ah)
  1726  0326  00C8               	movwf	((?___lwdiv))+1
  1727  0327  0824               	movf	(_PIR),w
  1728  0328  3E12               	addlw	012h
  1729  0329  0084               	movwf	fsr0
  1730  032A  0800               	movf	indf,w
  1731  032B  00C9               	movwf	0+(?___lwdiv)+02h
  1732  032C  0A84               	incf	fsr0,f
  1733  032D  0800               	movf	indf,w
  1734  032E  00CA               	movwf	1+(?___lwdiv)+02h
  1735  032F  158A  27B0  118A   	fcall	___lwdiv
  1736  0332  1283               	bcf	status, 5	;RP0=0, select bank0
  1737  0333  1303               	bcf	status, 6	;RP1=0, select bank0
  1738  0334  0847               	movf	(0+(?___lwdiv)),w
  1739  0335  00D0               	movwf	(??_main+0)+0
  1740  0336  0824               	movf	(_PIR),w
  1741  0337  3E06               	addlw	06h
  1742  0338  0084               	movwf	fsr0
  1743  0339  1383               	bcf	status, 7	;select IRP bank0
  1744  033A  0800               	movf	indf,w
  1745  033B  3E14               	addlw	014h
  1746  033C  0724               	addwf	(_PIR),w
  1747  033D  00D1               	movwf	(??_main+1)+0
  1748  033E  0851               	movf	0+(??_main+1)+0,w
  1749  033F  0084               	movwf	fsr0
  1750  0340  0850               	movf	(??_main+0)+0,w
  1751  0341  0080               	movwf	indf
  1752                           	
  1753  0342                     l3438:	
  1754  0342  0824               	movf	(_PIR),w
  1755  0343  3E12               	addlw	012h
  1756  0344  0084               	movwf	fsr0
  1757  0345  3000               	movlw	low(0)
  1758  0346  0080               	movwf	indf
  1759  0347  0A84               	incf	fsr0,f
  1760  0348  3000               	movlw	high(0)
  1761  0349  0080               	movwf	indf
  1762                           	
  1763  034A                     l3440:	
  1764  034A  01D6               	clrf	(main@i)
  1765                           	
  1766  034B                     l3442:	
  1767  034B  300A               	movlw	(0Ah)
  1768  034C  0256               	subwf	(main@i),w
  1769  034D  1C03               	skipc
  1770  034E  2B50               	goto	u4681
  1771  034F  2B51               	goto	u4680
  1772  0350                     u4681:
  1773  0350  2B53               	goto	l3446
  1774  0351                     u4680:
  1775  0351  2B75               	goto	l3452
  1776                           	
  1777  0352                     l3444:	
  1778  0352  2B75               	goto	l3452
  1779                           	
  1780  0353                     l905:	
  1781                           	
  1782  0353                     l3446:	
  1783  0353  0856               	movf	(main@i),w
  1784  0354  3E14               	addlw	014h
  1785  0355  0724               	addwf	(_PIR),w
  1786  0356  00D0               	movwf	(??_main+0)+0
  1787  0357  0850               	movf	0+(??_main+0)+0,w
  1788  0358  0084               	movwf	fsr0
  1789  0359  0800               	movf	indf,w
  1790  035A  00D1               	movwf	(??_main+1)+0
  1791  035B  01D2               	clrf	(??_main+1)+0+1
  1792  035C  0824               	movf	(_PIR),w
  1793  035D  3E1E               	addlw	01Eh
  1794  035E  0084               	movwf	fsr0
  1795  035F  0851               	movf	0+(??_main+1)+0,w
  1796  0360  0780               	addwf	indf,f
  1797  0361  0F84               	incfsz	fsr0,f
  1798  0362  0800               	movf	indf,w
  1799  0363  1803               	skipnc
  1800  0364  0A00               	incf	indf,w
  1801  0365  00FF               	movwf	btemp+1
  1802  0366  0852               	movf	1+(??_main+1)+0,w
  1803  0367  077F               	addwf	btemp+1,w
  1804  0368  0080               	movwf	indf
  1805  0369  0384               	decf	fsr0,f
  1806                           	
  1807  036A                     l3448:	
  1808  036A  3001               	movlw	(01h)
  1809  036B  00D0               	movwf	(??_main+0)+0
  1810  036C  0850               	movf	(??_main+0)+0,w
  1811  036D  07D6               	addwf	(main@i),f
  1812                           	
  1813  036E                     l3450:	
  1814  036E  300A               	movlw	(0Ah)
  1815  036F  0256               	subwf	(main@i),w
  1816  0370  1C03               	skipc
  1817  0371  2B73               	goto	u4691
  1818  0372  2B74               	goto	u4690
  1819  0373                     u4691:
  1820  0373  2B53               	goto	l3446
  1821  0374                     u4690:
  1822  0374  2B75               	goto	l3452
  1823                           	
  1824  0375                     l906:	
  1825                           	
  1826  0375                     l3452:	
  1827  0375  300A               	movlw	low(0Ah)
  1828  0376  00C7               	movwf	(?___lwdiv)
  1829  0377  3000               	movlw	high(0Ah)
  1830  0378  00C8               	movwf	((?___lwdiv))+1
  1831  0379  0824               	movf	(_PIR),w
  1832  037A  3E1E               	addlw	01Eh
  1833  037B  0084               	movwf	fsr0
  1834  037C  0800               	movf	indf,w
  1835  037D  00C9               	movwf	0+(?___lwdiv)+02h
  1836  037E  0A84               	incf	fsr0,f
  1837  037F  0800               	movf	indf,w
  1838  0380  00CA               	movwf	1+(?___lwdiv)+02h
  1839  0381  158A  27B0  118A   	fcall	___lwdiv
  1840  0384  1283               	bcf	status, 5	;RP0=0, select bank0
  1841  0385  1303               	bcf	status, 6	;RP1=0, select bank0
  1842  0386  0847               	movf	(0+(?___lwdiv)),w
  1843  0387  00D0               	movwf	(??_main+0)+0
  1844  0388  0824               	movf	(_PIR),w
  1845  0389  3E07               	addlw	07h
  1846  038A  0084               	movwf	fsr0
  1847  038B  0850               	movf	(??_main+0)+0,w
  1848  038C  1383               	bcf	status, 7	;select IRP bank0
  1849  038D  0080               	movwf	indf
  1850                           	
  1851  038E                     l3454:	
  1852  038E  0824               	movf	(_PIR),w
  1853  038F  3E1E               	addlw	01Eh
  1854  0390  0084               	movwf	fsr0
  1855  0391  3000               	movlw	low(0)
  1856  0392  0080               	movwf	indf
  1857  0393  0A84               	incf	fsr0,f
  1858  0394  3000               	movlw	high(0)
  1859  0395  0080               	movwf	indf
  1860                           	
  1861  0396                     l3456:	
  1862  0396  0824               	movf	(_PIR),w
  1863  0397  3E05               	addlw	05h
  1864  0398  0084               	movwf	fsr0
  1865  0399  300A               	movlw	(0Ah)
  1866  039A  0200               	subwf	indf,w
  1867  039B  1803               	skipnc
  1868  039C  2B9E               	goto	u4701
  1869  039D  2B9F               	goto	u4700
  1870  039E                     u4701:
  1871  039E  2BA7               	goto	l3460
  1872  039F                     u4700:
  1873                           	
  1874  039F                     l3458:	
  1875  039F  3001               	movlw	(01h)
  1876  03A0  00D0               	movwf	(??_main+0)+0
  1877  03A1  0824               	movf	(_PIR),w
  1878  03A2  3E05               	addlw	05h
  1879  03A3  0084               	movwf	fsr0
  1880  03A4  0850               	movf	(??_main+0)+0,w
  1881  03A5  0780               	addwf	indf,f
  1882  03A6  2BC1               	goto	l908
  1883                           	
  1884  03A7                     l907:	
  1885                           	
  1886  03A7                     l3460:	
  1887  03A7  0824               	movf	(_PIR),w
  1888  03A8  3E05               	addlw	05h
  1889  03A9  0084               	movwf	fsr0
  1890  03AA  0180               	clrf	indf
  1891  03AB  0824               	movf	(_PIR),w
  1892  03AC  3E06               	addlw	06h
  1893  03AD  0084               	movwf	fsr0
  1894  03AE  300A               	movlw	(0Ah)
  1895  03AF  0200               	subwf	indf,w
  1896  03B0  1803               	skipnc
  1897  03B1  2BB3               	goto	u4711
  1898  03B2  2BB4               	goto	u4710
  1899  03B3                     u4711:
  1900  03B3  2BBC               	goto	l3464
  1901  03B4                     u4710:
  1902                           	
  1903  03B4                     l3462:	
  1904  03B4  3001               	movlw	(01h)
  1905  03B5  00D0               	movwf	(??_main+0)+0
  1906  03B6  0824               	movf	(_PIR),w
  1907  03B7  3E06               	addlw	06h
  1908  03B8  0084               	movwf	fsr0
  1909  03B9  0850               	movf	(??_main+0)+0,w
  1910  03BA  0780               	addwf	indf,f
  1911  03BB  2BC1               	goto	l908
  1912                           	
  1913  03BC                     l909:	
  1914                           	
  1915  03BC                     l3464:	
  1916  03BC  0824               	movf	(_PIR),w
  1917  03BD  3E06               	addlw	06h
  1918  03BE  0084               	movwf	fsr0
  1919  03BF  0180               	clrf	indf
  1920  03C0  2BC1               	goto	l908
  1921                           	
  1922  03C1                     l910:	
  1923                           	
  1924  03C1                     l908:	
  1925  03C1  0824               	movf	(_PIR),w
  1926  03C2  3E20               	addlw	020h
  1927  03C3  0084               	movwf	fsr0
  1928  03C4  1900               	btfsc	indf,2
  1929  03C5  2BC7               	goto	u4721
  1930  03C6  2BC8               	goto	u4720
  1931  03C7                     u4721:
  1932  03C7  2BDC               	goto	l3470
  1933  03C8                     u4720:
  1934                           	
  1935  03C8                     l3466:	
  1936  03C8  0821               	movf	(_CDS),w
  1937  03C9  3E02               	addlw	02h
  1938  03CA  0084               	movwf	fsr0
  1939  03CB  1C00               	btfss	indf,0
  1940  03CC  2BCE               	goto	u4731
  1941  03CD  2BCF               	goto	u4730
  1942  03CE                     u4731:
  1943  03CE  2C07               	goto	l3478
  1944  03CF                     u4730:
  1945                           	
  1946  03CF                     l3468:	
  1947  03CF  0824               	movf	(_PIR),w
  1948  03D0  3E20               	addlw	020h
  1949  03D1  0084               	movwf	fsr0
  1950  03D2  1500               	bsf	indf,2
  1951  03D3  3019               	movlw	(019h)
  1952  03D4  00D0               	movwf	(??_main+0)+0
  1953  03D5  0824               	movf	(_PIR),w
  1954  03D6  3E2C               	addlw	02Ch
  1955  03D7  0084               	movwf	fsr0
  1956  03D8  0850               	movf	(??_main+0)+0,w
  1957  03D9  0080               	movwf	indf
  1958  03DA  2C07               	goto	l3478
  1959                           	
  1960  03DB                     l912:	
  1961  03DB  2C07               	goto	l3478
  1962                           	
  1963  03DC                     l911:	
  1964                           	
  1965  03DC                     l3470:	
  1966  03DC  0821               	movf	(_CDS),w
  1967  03DD  3E02               	addlw	02h
  1968  03DE  0084               	movwf	fsr0
  1969  03DF  1800               	btfsc	indf,0
  1970  03E0  2BE2               	goto	u4741
  1971  03E1  2BE3               	goto	u4740
  1972  03E2                     u4741:
  1973  03E2  2C07               	goto	l3478
  1974  03E3                     u4740:
  1975                           	
  1976  03E3                     l3472:	
  1977  03E3  0824               	movf	(_PIR),w
  1978  03E4  3E20               	addlw	020h
  1979  03E5  0084               	movwf	fsr0
  1980  03E6  1100               	bcf	indf,2
  1981  03E7  0824               	movf	(_PIR),w
  1982  03E8  3E20               	addlw	020h
  1983  03E9  0084               	movwf	fsr0
  1984  03EA  1C80               	btfss	indf,1
  1985  03EB  2BED               	goto	u4751
  1986  03EC  2BEE               	goto	u4750
  1987  03ED                     u4751:
  1988  03ED  2C07               	goto	l3478
  1989  03EE                     u4750:
  1990  03EE  2BF1               	goto	l916
  1991                           	
  1992  03EF                     l3474:	
  1993  03EF  2BF1               	goto	l916
  1994                           	
  1995  03F0                     l917:	
  1996  03F0  1686               	bsf	(53/8),(53)&7
  1997                           	
  1998  03F1                     l916:	
  1999  03F1  1E86               	btfss	(53/8),(53)&7
  2000  03F2  2BF4               	goto	u4761
  2001  03F3  2BF5               	goto	u4760
  2002  03F4                     u4761:
  2003  03F4  2BF0               	goto	l917
  2004  03F5                     u4760:
  2005  03F5  2BF8               	goto	l919
  2006                           	
  2007  03F6                     l918:	
  2008  03F6  2BF8               	goto	l919
  2009                           	
  2010  03F7                     l920:	
  2011  03F7  1606               	bsf	(52/8),(52)&7
  2012                           	
  2013  03F8                     l919:	
  2014  03F8  1E06               	btfss	(52/8),(52)&7
  2015  03F9  2BFB               	goto	u4771
  2016  03FA  2BFC               	goto	u4770
  2017  03FB                     u4771:
  2018  03FB  2BF7               	goto	l920
  2019  03FC                     u4770:
  2020  03FC  2BFD               	goto	l3476
  2021                           	
  2022  03FD                     l921:	
  2023                           	
  2024  03FD                     l3476:	
  2025  03FD  0820               	movf	(_Buzzer),w
  2026  03FE  3E02               	addlw	02h
  2027  03FF  0084               	movwf	fsr0
  2028  0400  1383               	bcf	status, 7	;select IRP bank0
  2029  0401  0180               	clrf	indf
  2030  0402  1403               	bsf	status,0
  2031  0403  0D80               	rlf	indf,f
  2032  0404  2C07               	goto	l3478
  2033                           	
  2034  0405                     l915:	
  2035  0405  2C07               	goto	l3478
  2036                           	
  2037  0406                     l914:	
  2038  0406  2C07               	goto	l3478
  2039                           	
  2040  0407                     l913:	
  2041                           	
  2042  0407                     l3478:	
  2043  0407  0824               	movf	(_PIR),w
  2044  0408  3E20               	addlw	020h
  2045  0409  0084               	movwf	fsr0
  2046  040A  1C80               	btfss	indf,1
  2047  040B  2C0D               	goto	u4781
  2048  040C  2C0E               	goto	u4780
  2049  040D                     u4781:
  2050  040D  2E0F               	goto	l3550
  2051  040E                     u4780:
  2052                           	
  2053  040E                     l3480:	
  2054  040E  0824               	movf	(_PIR),w
  2055  040F  3E20               	addlw	020h
  2056  0410  0084               	movwf	fsr0
  2057  0411  1C00               	btfss	indf,0
  2058  0412  2C14               	goto	u4791
  2059  0413  2C15               	goto	u4790
  2060  0414                     u4791:
  2061  0414  2E41               	goto	l3556
  2062  0415                     u4790:
  2063                           	
  2064  0415                     l3482:	
  2065  0415  0824               	movf	(_PIR),w
  2066  0416  3E20               	addlw	020h
  2067  0417  0084               	movwf	fsr0
  2068  0418  1000               	bcf	indf,0
  2069  0419  0824               	movf	(_PIR),w
  2070  041A  3E20               	addlw	020h
  2071  041B  0084               	movwf	fsr0
  2072  041C  1D00               	btfss	indf,2
  2073  041D  2C1F               	goto	u4801
  2074  041E  2C20               	goto	u4800
  2075  041F                     u4801:
  2076  041F  2E41               	goto	l3556
  2077  0420                     u4800:
  2078                           	
  2079  0420                     l3484:	
  2080  0420  0824               	movf	(_PIR),w
  2081  0421  3E29               	addlw	029h
  2082  0422  0084               	movwf	fsr0
  2083  0423  3064               	movlw	(064h)
  2084  0424  0200               	subwf	indf,w
  2085  0425  1803               	skipnc
  2086  0426  2C28               	goto	u4811
  2087  0427  2C29               	goto	u4810
  2088  0428                     u4811:
  2089  0428  2C31               	goto	l3488
  2090  0429                     u4810:
  2091                           	
  2092  0429                     l3486:	
  2093  0429  3001               	movlw	(01h)
  2094  042A  00D0               	movwf	(??_main+0)+0
  2095  042B  0824               	movf	(_PIR),w
  2096  042C  3E29               	addlw	029h
  2097  042D  0084               	movwf	fsr0
  2098  042E  0850               	movf	(??_main+0)+0,w
  2099  042F  0780               	addwf	indf,f
  2100  0430  2CC4               	goto	l3516
  2101                           	
  2102  0431                     l925:	
  2103                           	
  2104  0431                     l3488:	
  2105  0431  0824               	movf	(_PIR),w
  2106  0432  3E29               	addlw	029h
  2107  0433  0084               	movwf	fsr0
  2108  0434  0180               	clrf	indf
  2109  0435  0824               	movf	(_PIR),w
  2110  0436  3E2B               	addlw	02Bh
  2111  0437  0084               	movwf	fsr0
  2112  0438  305A               	movlw	(05Ah)
  2113  0439  0200               	subwf	indf,w
  2114  043A  1C03               	skipc
  2115  043B  2C3D               	goto	u4821
  2116  043C  2C3E               	goto	u4820
  2117  043D                     u4821:
  2118  043D  2C6E               	goto	l3498
  2119  043E                     u4820:
  2120                           	
  2121  043E                     l3490:	
  2122  043E  0824               	movf	(_PIR),w
  2123  043F  3E2B               	addlw	02Bh
  2124  0440  0084               	movwf	fsr0
  2125  0441  0180               	clrf	indf
  2126  0442  0824               	movf	(_PIR),w
  2127  0443  3E2A               	addlw	02Ah
  2128  0444  0084               	movwf	fsr0
  2129  0445  0180               	clrf	indf
  2130  0446  0824               	movf	(_PIR),w
  2131  0447  3E2D               	addlw	02Dh
  2132  0448  0084               	movwf	fsr0
  2133  0449  0180               	clrf	indf
  2134  044A  0824               	movf	(_PIR),w
  2135  044B  3E2C               	addlw	02Ch
  2136  044C  0084               	movwf	fsr0
  2137  044D  0800               	movf	indf,w
  2138  044E  3A19               	xorlw	019h
  2139  044F  1D03               	skipz
  2140  0450  2C52               	goto	u4831
  2141  0451  2C53               	goto	u4830
  2142  0452                     u4831:
  2143  0452  2C5B               	goto	l3494
  2144  0453                     u4830:
  2145                           	
  2146  0453                     l3492:	
  2147  0453  3023               	movlw	(023h)
  2148  0454  00D0               	movwf	(??_main+0)+0
  2149  0455  0824               	movf	(_PIR),w
  2150  0456  3E2C               	addlw	02Ch
  2151  0457  0084               	movwf	fsr0
  2152  0458  0850               	movf	(??_main+0)+0,w
  2153  0459  0080               	movwf	indf
  2154  045A  2CC4               	goto	l3516
  2155                           	
  2156  045B                     l928:	
  2157                           	
  2158  045B                     l3494:	
  2159  045B  0824               	movf	(_PIR),w
  2160  045C  3E2C               	addlw	02Ch
  2161  045D  0084               	movwf	fsr0
  2162  045E  0800               	movf	indf,w
  2163  045F  3A23               	xorlw	023h
  2164  0460  1D03               	skipz
  2165  0461  2C63               	goto	u4841
  2166  0462  2C64               	goto	u4840
  2167  0463                     u4841:
  2168  0463  2CC4               	goto	l3516
  2169  0464                     u4840:
  2170                           	
  2171  0464                     l3496:	
  2172  0464  302D               	movlw	(02Dh)
  2173  0465  00D0               	movwf	(??_main+0)+0
  2174  0466  0824               	movf	(_PIR),w
  2175  0467  3E2C               	addlw	02Ch
  2176  0468  0084               	movwf	fsr0
  2177  0469  0850               	movf	(??_main+0)+0,w
  2178  046A  0080               	movwf	indf
  2179  046B  2CC4               	goto	l3516
  2180                           	
  2181  046C                     l930:	
  2182  046C  2CC4               	goto	l3516
  2183                           	
  2184  046D                     l929:	
  2185  046D  2CC4               	goto	l3516
  2186                           	
  2187  046E                     l927:	
  2188                           	
  2189  046E                     l3498:	
  2190  046E  0824               	movf	(_PIR),w
  2191  046F  3E2B               	addlw	02Bh
  2192  0470  0084               	movwf	fsr0
  2193  0471  0800               	movf	indf,w
  2194  0472  00D0               	movwf	(??_main+0)+0
  2195  0473  0824               	movf	(_PIR),w
  2196  0474  3E2D               	addlw	02Dh
  2197  0475  0084               	movwf	fsr0
  2198  0476  0850               	movf	(??_main+0)+0,w
  2199  0477  0780               	addwf	indf,f
  2200                           	
  2201  0478                     l3500:	
  2202  0478  0824               	movf	(_PIR),w
  2203  0479  3E2B               	addlw	02Bh
  2204  047A  0084               	movwf	fsr0
  2205  047B  0180               	clrf	indf
  2206                           	
  2207  047C                     l3502:	
  2208  047C  0824               	movf	(_PIR),w
  2209  047D  3E2A               	addlw	02Ah
  2210  047E  0084               	movwf	fsr0
  2211  047F  3006               	movlw	(06h)
  2212  0480  0200               	subwf	indf,w
  2213  0481  1803               	skipnc
  2214  0482  2C84               	goto	u4851
  2215  0483  2C85               	goto	u4850
  2216  0484                     u4851:
  2217  0484  2C8D               	goto	l3506
  2218  0485                     u4850:
  2219                           	
  2220  0485                     l3504:	
  2221  0485  3001               	movlw	(01h)
  2222  0486  00D0               	movwf	(??_main+0)+0
  2223  0487  0824               	movf	(_PIR),w
  2224  0488  3E2A               	addlw	02Ah
  2225  0489  0084               	movwf	fsr0
  2226  048A  0850               	movf	(??_main+0)+0,w
  2227  048B  0780               	addwf	indf,f
  2228  048C  2CC4               	goto	l3516
  2229                           	
  2230  048D                     l932:	
  2231                           	
  2232  048D                     l3506:	
  2233  048D  0824               	movf	(_PIR),w
  2234  048E  3E2A               	addlw	02Ah
  2235  048F  0084               	movwf	fsr0
  2236  0490  0180               	clrf	indf
  2237  0491  0824               	movf	(_PIR),w
  2238  0492  3E2D               	addlw	02Dh
  2239  0493  0084               	movwf	fsr0
  2240  0494  300B               	movlw	(0Bh)
  2241  0495  0200               	subwf	indf,w
  2242  0496  1803               	skipnc
  2243  0497  2C99               	goto	u4861
  2244  0498  2C9A               	goto	u4860
  2245  0499                     u4861:
  2246  0499  2CC4               	goto	l3516
  2247  049A                     u4860:
  2248                           	
  2249  049A                     l3508:	
  2250  049A  0824               	movf	(_PIR),w
  2251  049B  3E2C               	addlw	02Ch
  2252  049C  0084               	movwf	fsr0
  2253  049D  0800               	movf	indf,w
  2254  049E  3A2D               	xorlw	02Dh
  2255  049F  1D03               	skipz
  2256  04A0  2CA2               	goto	u4871
  2257  04A1  2CA3               	goto	u4870
  2258  04A2                     u4871:
  2259  04A2  2CAB               	goto	l3512
  2260  04A3                     u4870:
  2261                           	
  2262  04A3                     l3510:	
  2263  04A3  3023               	movlw	(023h)
  2264  04A4  00D0               	movwf	(??_main+0)+0
  2265  04A5  0824               	movf	(_PIR),w
  2266  04A6  3E2C               	addlw	02Ch
  2267  04A7  0084               	movwf	fsr0
  2268  04A8  0850               	movf	(??_main+0)+0,w
  2269  04A9  0080               	movwf	indf
  2270  04AA  2CBC               	goto	l936
  2271                           	
  2272  04AB                     l935:	
  2273                           	
  2274  04AB                     l3512:	
  2275  04AB  0824               	movf	(_PIR),w
  2276  04AC  3E2C               	addlw	02Ch
  2277  04AD  0084               	movwf	fsr0
  2278  04AE  0800               	movf	indf,w
  2279  04AF  3A23               	xorlw	023h
  2280  04B0  1D03               	skipz
  2281  04B1  2CB3               	goto	u4881
  2282  04B2  2CB4               	goto	u4880
  2283  04B3                     u4881:
  2284  04B3  2CBC               	goto	l936
  2285  04B4                     u4880:
  2286                           	
  2287  04B4                     l3514:	
  2288  04B4  3019               	movlw	(019h)
  2289  04B5  00D0               	movwf	(??_main+0)+0
  2290  04B6  0824               	movf	(_PIR),w
  2291  04B7  3E2C               	addlw	02Ch
  2292  04B8  0084               	movwf	fsr0
  2293  04B9  0850               	movf	(??_main+0)+0,w
  2294  04BA  0080               	movwf	indf
  2295  04BB  2CBC               	goto	l936
  2296                           	
  2297  04BC                     l937:	
  2298                           	
  2299  04BC                     l936:	
  2300  04BC  0824               	movf	(_PIR),w
  2301  04BD  3E2D               	addlw	02Dh
  2302  04BE  0084               	movwf	fsr0
  2303  04BF  0180               	clrf	indf
  2304  04C0  2CC4               	goto	l3516
  2305                           	
  2306  04C1                     l934:	
  2307  04C1  2CC4               	goto	l3516
  2308                           	
  2309  04C2                     l933:	
  2310  04C2  2CC4               	goto	l3516
  2311                           	
  2312  04C3                     l931:	
  2313  04C3  2CC4               	goto	l3516
  2314                           	
  2315  04C4                     l926:	
  2316                           	
  2317  04C4                     l3516:	
  2318  04C4  0824               	movf	(_PIR),w
  2319  04C5  3E2E               	addlw	02Eh
  2320  04C6  0084               	movwf	fsr
  2321  04C7  0800               	movf	indf,w
  2322  04C8  00D0               	movwf	(??_main+0)+0
  2323  04C9  0824               	movf	(_PIR),w
  2324  04CA  3E2C               	addlw	02Ch
  2325  04CB  0084               	movwf	fsr0
  2326  04CC  0800               	movf	indf,w
  2327  04CD  0750               	addwf	(??_main+0)+0,w
  2328  04CE  00D1               	movwf	(??_main+1)+0
  2329  04CF  01D2               	clrf	(??_main+1)+0+1
  2330  04D0  0DD2               	rlf	1+(??_main+1)+0,f
  2331                           	
  2332  04D1  09D1               	comf	(??_main+1)+0,f
  2333  04D2  09D2               	comf	(??_main+1)+1,f
  2334  04D3  0AD1               	incf	(??_main+1)+0,f
  2335  04D4  1903               	skipnz
  2336  04D5  0AD2               	incf	(??_main+1)+1,f
  2337  04D6  0824               	movf	(_PIR),w
  2338  04D7  3E07               	addlw	07h
  2339  04D8  0084               	movwf	fsr0
  2340  04D9  0800               	movf	indf,w
  2341  04DA  0751               	addwf	0+(??_main+1)+0,w
  2342  04DB  00D3               	movwf	(??_main+3)+0
  2343  04DC  0852               	movf	1+(??_main+1)+0,w
  2344  04DD  1803               	skipnc
  2345  04DE  0A52               	incf	1+(??_main+1)+0,w
  2346  04DF  00D4               	movwf	((??_main+3)+0)+1
  2347  04E0  0824               	movf	(_PIR),w
  2348  04E1  3E03               	addlw	03h
  2349  04E2  0084               	movwf	fsr0
  2350  04E3  0854               	movf	1+(??_main+3)+0,w
  2351  04E4  3A80               	xorlw	80h
  2352  04E5  3C80               	sublw	080h
  2353  04E6  1D03               	skipz
  2354  04E7  2CEA               	goto	u4895
  2355  04E8  0853               	movf	0+(??_main+3)+0,w
  2356  04E9  0200               	subwf	indf,w
  2357  04EA                     u4895:
  2358                           
  2359  04EA  1C03               	skipc
  2360  04EB  2CED               	goto	u4891
  2361  04EC  2CEE               	goto	u4890
  2362  04ED                     u4891:
  2363  04ED  2D65               	goto	l3530
  2364  04EE                     u4890:
  2365                           	
  2366  04EE                     l3518:	
  2367  04EE  1283               	bcf	status, 5	;RP0=0, select bank0
  2368  04EF  1303               	bcf	status, 6	;RP1=0, select bank0
  2369  04F0  0824               	movf	(_PIR),w
  2370  04F1  3E2E               	addlw	02Eh
  2371  04F2  0084               	movwf	fsr
  2372  04F3  1383               	bcf	status, 7	;select IRP bank0
  2373  04F4  0800               	movf	indf,w
  2374  04F5  00D0               	movwf	(??_main+0)+0
  2375  04F6  0824               	movf	(_PIR),w
  2376  04F7  3E2C               	addlw	02Ch
  2377  04F8  0084               	movwf	fsr0
  2378  04F9  0800               	movf	indf,w
  2379  04FA  0750               	addwf	(??_main+0)+0,w
  2380  04FB  00D1               	movwf	(??_main+1)+0
  2381  04FC  01D2               	clrf	(??_main+1)+0+1
  2382  04FD  0DD2               	rlf	1+(??_main+1)+0,f
  2383                           	
  2384  04FE  0824               	movf	(_PIR),w
  2385  04FF  3E07               	addlw	07h
  2386  0500  0084               	movwf	fsr0
  2387  0501  0800               	movf	indf,w
  2388  0502  0751               	addwf	0+(??_main+1)+0,w
  2389  0503  00D3               	movwf	(??_main+3)+0
  2390  0504  3000               	movlw	0
  2391  0505  1803               	skipnc
  2392  0506  3001               	movlw	1
  2393  0507  0752               	addwf	1+(??_main+1)+0,w
  2394  0508  00D4               	movwf	1+(??_main+3)+0
  2395  0509  0824               	movf	(_PIR),w
  2396  050A  3E03               	addlw	03h
  2397  050B  0084               	movwf	fsr0
  2398  050C  0854               	movf	1+(??_main+3)+0,w
  2399  050D  3A80               	xorlw	80h
  2400  050E  00D5               	movwf	(??_main+5)+0
  2401  050F  3080               	movlw	80h
  2402  0510  0255               	subwf	(??_main+5)+0,w
  2403  0511  1D03               	skipz
  2404  0512  2D15               	goto	u4905
  2405  0513  0800               	movf	indf,w
  2406  0514  0253               	subwf	0+(??_main+3)+0,w
  2407  0515                     u4905:
  2408                           
  2409  0515  1C03               	skipc
  2410  0516  2D18               	goto	u4901
  2411  0517  2D19               	goto	u4900
  2412  0518                     u4901:
  2413  0518  2D65               	goto	l3530
  2414  0519                     u4900:
  2415                           	
  2416  0519                     l3520:	
  2417  0519  1283               	bcf	status, 5	;RP0=0, select bank0
  2418  051A  1303               	bcf	status, 6	;RP1=0, select bank0
  2419  051B  0824               	movf	(_PIR),w
  2420  051C  3E21               	addlw	021h
  2421  051D  0084               	movwf	fsr0
  2422  051E  3000               	movlw	low(0)
  2423  051F  1383               	bcf	status, 7	;select IRP bank0
  2424  0520  0080               	movwf	indf
  2425  0521  0A84               	incf	fsr0,f
  2426  0522  3000               	movlw	high(0)
  2427  0523  0080               	movwf	indf
  2428  0524  2D26               	goto	l939
  2429                           	
  2430  0525                     l940:	
  2431  0525  1686               	bsf	(53/8),(53)&7
  2432                           	
  2433  0526                     l939:	
  2434  0526  1E86               	btfss	(53/8),(53)&7
  2435  0527  2D29               	goto	u4911
  2436  0528  2D2A               	goto	u4910
  2437  0529                     u4911:
  2438  0529  2D25               	goto	l940
  2439  052A                     u4910:
  2440  052A  2D2D               	goto	l942
  2441                           	
  2442  052B                     l941:	
  2443  052B  2D2D               	goto	l942
  2444                           	
  2445  052C                     l943:	
  2446  052C  1606               	bsf	(52/8),(52)&7
  2447                           	
  2448  052D                     l942:	
  2449  052D  1E06               	btfss	(52/8),(52)&7
  2450  052E  2D30               	goto	u4921
  2451  052F  2D31               	goto	u4920
  2452  0530                     u4921:
  2453  0530  2D2C               	goto	l943
  2454  0531                     u4920:
  2455  0531  2D32               	goto	l3522
  2456                           	
  2457  0532                     l944:	
  2458                           	
  2459  0532                     l3522:	
  2460  0532  0824               	movf	(_PIR),w
  2461  0533  3E24               	addlw	024h
  2462  0534  0084               	movwf	fsr0
  2463  0535  3001               	movlw	01h
  2464  0536  1383               	bcf	status, 7	;select IRP bank0
  2465  0537  0780               	addwf	indf,f
  2466  0538  0A84               	incf	fsr0,f
  2467  0539  1803               	skipnc
  2468  053A  0A80               	incf	indf,f
  2469                           	
  2470  053B                     l3524:	
  2471  053B  0824               	movf	(_PIR),w
  2472  053C  3E26               	addlw	026h
  2473  053D  0084               	movwf	fsr0
  2474  053E  0800               	movf	indf,w
  2475  053F  00D0               	movwf	(??_main+0)+0+0
  2476  0540  0A84               	incf	fsr0,f
  2477  0541  0800               	movf	indf,w
  2478  0542  00D1               	movwf	(??_main+0)+0+1
  2479  0543  0824               	movf	(_PIR),w
  2480  0544  3E24               	addlw	024h
  2481  0545  0084               	movwf	fsr0
  2482  0546  0800               	movf	indf,w
  2483  0547  00D2               	movwf	(??_main+2)+0+0
  2484  0548  0A84               	incf	fsr0,f
  2485  0549  0800               	movf	indf,w
  2486  054A  00D3               	movwf	(??_main+2)+0+1
  2487  054B  0851               	movf	1+(??_main+0)+0,w
  2488  054C  0653               	xorwf	1+(??_main+2)+0,w
  2489  054D  1D03               	skipz
  2490  054E  2D51               	goto	u4935
  2491  054F  0850               	movf	0+(??_main+0)+0,w
  2492  0550  0652               	xorwf	0+(??_main+2)+0,w
  2493  0551                     u4935:
  2494                           
  2495  0551  1D03               	skipz
  2496  0552  2D54               	goto	u4931
  2497  0553  2D55               	goto	u4930
  2498  0554                     u4931:
  2499  0554  2E41               	goto	l3556
  2500  0555                     u4930:
  2501                           	
  2502  0555                     l3526:	
  2503  0555  0824               	movf	(_PIR),w
  2504  0556  3E24               	addlw	024h
  2505  0557  0084               	movwf	fsr0
  2506  0558  3000               	movlw	low(0)
  2507  0559  0080               	movwf	indf
  2508  055A  0A84               	incf	fsr0,f
  2509  055B  3000               	movlw	high(0)
  2510  055C  0080               	movwf	indf
  2511                           	
  2512  055D                     l3528:	
  2513  055D  0820               	movf	(_Buzzer),w
  2514  055E  3E02               	addlw	02h
  2515  055F  0084               	movwf	fsr0
  2516  0560  0180               	clrf	indf
  2517  0561  1403               	bsf	status,0
  2518  0562  0D80               	rlf	indf,f
  2519  0563  2E41               	goto	l3556
  2520                           	
  2521  0564                     l945:	
  2522  0564  2E41               	goto	l3556
  2523                           	
  2524  0565                     l938:	
  2525                           	
  2526  0565                     l3530:	
  2527  0565  3001               	movlw	(01h)
  2528  0566  1283               	bcf	status, 5	;RP0=0, select bank0
  2529  0567  1303               	bcf	status, 6	;RP1=0, select bank0
  2530  0568  00D0               	movwf	(??_main+0)+0
  2531  0569  0824               	movf	(_PIR),w
  2532  056A  3E2B               	addlw	02Bh
  2533  056B  0084               	movwf	fsr0
  2534  056C  0850               	movf	(??_main+0)+0,w
  2535  056D  1383               	bcf	status, 7	;select IRP bank0
  2536  056E  0780               	addwf	indf,f
  2537  056F  0824               	movf	(_PIR),w
  2538  0570  3E21               	addlw	021h
  2539  0571  0084               	movwf	fsr0
  2540  0572  3001               	movlw	01h
  2541  0573  0780               	addwf	indf,f
  2542  0574  0A84               	incf	fsr0,f
  2543  0575  1803               	skipnc
  2544  0576  0A80               	incf	indf,f
  2545                           	
  2546  0577                     l3532:	
  2547  0577  0824               	movf	(_PIR),w
  2548  0578  3E21               	addlw	021h
  2549  0579  0084               	movwf	fsr0
  2550  057A  0800               	movf	indf,w
  2551  057B  00D0               	movwf	(??_main+0)+0+0
  2552  057C  0A84               	incf	fsr0,f
  2553  057D  0800               	movf	indf,w
  2554  057E  00D1               	movwf	(??_main+0)+0+1
  2555  057F  0824               	movf	(_PIR),w
  2556  0580  3E23               	addlw	023h
  2557  0581  0084               	movwf	fsr0
  2558  0582  0800               	movf	indf,w
  2559  0583  00D2               	movwf	(??_main+2)+0
  2560  0584  01D3               	clrf	(??_main+2)+0+1
  2561  0585  0851               	movf	1+(??_main+0)+0,w
  2562  0586  0653               	xorwf	1+(??_main+2)+0,w
  2563  0587  1D03               	skipz
  2564  0588  2D8B               	goto	u4945
  2565  0589  0850               	movf	0+(??_main+0)+0,w
  2566  058A  0652               	xorwf	0+(??_main+2)+0,w
  2567  058B                     u4945:
  2568                           
  2569  058B  1D03               	skipz
  2570  058C  2D8E               	goto	u4941
  2571  058D  2D8F               	goto	u4940
  2572  058E                     u4941:
  2573  058E  2DB1               	goto	l3542
  2574  058F                     u4940:
  2575                           	
  2576  058F                     l3534:	
  2577  058F  0824               	movf	(_PIR),w
  2578  0590  3E21               	addlw	021h
  2579  0591  0084               	movwf	fsr0
  2580  0592  3000               	movlw	low(0)
  2581  0593  0080               	movwf	indf
  2582  0594  0A84               	incf	fsr0,f
  2583  0595  3000               	movlw	high(0)
  2584  0596  0080               	movwf	indf
  2585  0597  0824               	movf	(_PIR),w
  2586  0598  3E24               	addlw	024h
  2587  0599  0084               	movwf	fsr0
  2588  059A  3000               	movlw	low(0)
  2589  059B  0080               	movwf	indf
  2590  059C  0A84               	incf	fsr0,f
  2591  059D  3000               	movlw	high(0)
  2592  059E  0080               	movwf	indf
  2593                           	
  2594  059F                     l3536:	
  2595  059F  0820               	movf	(_Buzzer),w
  2596  05A0  3E02               	addlw	02h
  2597  05A1  0084               	movwf	fsr0
  2598  05A2  0180               	clrf	indf
  2599  05A3  1403               	bsf	status,0
  2600  05A4  0D80               	rlf	indf,f
  2601                           	
  2602  05A5                     l3538:	
  2603  05A5  0824               	movf	(_PIR),w
  2604  05A6  3E2E               	addlw	02Eh
  2605  05A7  0084               	movwf	fsr0
  2606  05A8  0180               	clrf	indf
  2607                           	
  2608  05A9                     l3540:	
  2609  05A9  3002               	movlw	(02h)
  2610  05AA  00D0               	movwf	(??_main+0)+0
  2611  05AB  0824               	movf	(_PIR),w
  2612  05AC  3E23               	addlw	023h
  2613  05AD  0084               	movwf	fsr0
  2614  05AE  0850               	movf	(??_main+0)+0,w
  2615  05AF  0080               	movwf	indf
  2616  05B0  2DB1               	goto	l3542
  2617                           	
  2618  05B1                     l947:	
  2619                           	
  2620  05B1                     l3542:	
  2621  05B1  0824               	movf	(_PIR),w
  2622  05B2  3E2C               	addlw	02Ch
  2623  05B3  0084               	movwf	fsr0
  2624  05B4  0800               	movf	indf,w
  2625  05B5  00D0               	movwf	(??_main+0)+0
  2626  05B6  01D1               	clrf	(??_main+0)+0+1
  2627  05B7  09D0               	comf	(??_main+0)+0,f
  2628  05B8  09D1               	comf	(??_main+0)+1,f
  2629  05B9  0AD0               	incf	(??_main+0)+0,f
  2630  05BA  1903               	skipnz
  2631  05BB  0AD1               	incf	(??_main+0)+1,f
  2632  05BC  0824               	movf	(_PIR),w
  2633  05BD  3E07               	addlw	07h
  2634  05BE  0084               	movwf	fsr0
  2635  05BF  0800               	movf	indf,w
  2636  05C0  0750               	addwf	0+(??_main+0)+0,w
  2637  05C1  00D2               	movwf	(??_main+2)+0
  2638  05C2  0851               	movf	1+(??_main+0)+0,w
  2639  05C3  1803               	skipnc
  2640  05C4  0A51               	incf	1+(??_main+0)+0,w
  2641  05C5  00D3               	movwf	((??_main+2)+0)+1
  2642  05C6  0824               	movf	(_PIR),w
  2643  05C7  3E03               	addlw	03h
  2644  05C8  0084               	movwf	fsr0
  2645  05C9  0853               	movf	1+(??_main+2)+0,w
  2646  05CA  3A80               	xorlw	80h
  2647  05CB  3C80               	sublw	080h
  2648  05CC  1D03               	skipz
  2649  05CD  2DD0               	goto	u4955
  2650  05CE  0852               	movf	0+(??_main+2)+0,w
  2651  05CF  0200               	subwf	indf,w
  2652  05D0                     u4955:
  2653                           
  2654  05D0  1803               	skipnc
  2655  05D1  2DD3               	goto	u4951
  2656  05D2  2DD4               	goto	u4950
  2657  05D3                     u4951:
  2658  05D3  2DDF               	goto	l3546
  2659  05D4                     u4950:
  2660  05D4  2DD7               	goto	l949
  2661                           	
  2662  05D5                     l3544:	
  2663  05D5  2DD7               	goto	l949
  2664                           	
  2665  05D6                     l950:	
  2666  05D6  1606               	bsf	(52/8),(52)&7
  2667                           	
  2668  05D7                     l949:	
  2669  05D7  1283               	bcf	status, 5	;RP0=0, select bank0
  2670  05D8  1303               	bcf	status, 6	;RP1=0, select bank0
  2671  05D9  1E06               	btfss	(52/8),(52)&7
  2672  05DA  2DDC               	goto	u4961
  2673  05DB  2DDD               	goto	u4960
  2674  05DC                     u4961:
  2675  05DC  2DD6               	goto	l950
  2676  05DD                     u4960:
  2677                           	
  2678  05DD                     l951:	
  2679  05DD  1286               	bcf	(53/8),(53)&7
  2680  05DE  2E41               	goto	l3556
  2681                           	
  2682  05DF                     l948:	
  2683                           	
  2684  05DF                     l3546:	
  2685  05DF  1283               	bcf	status, 5	;RP0=0, select bank0
  2686  05E0  1303               	bcf	status, 6	;RP1=0, select bank0
  2687  05E1  0824               	movf	(_PIR),w
  2688  05E2  3E2C               	addlw	02Ch
  2689  05E3  0084               	movwf	fsr
  2690  05E4  1383               	bcf	status, 7	;select IRP bank0
  2691  05E5  0800               	movf	indf,w
  2692  05E6  00D0               	movwf	(??_main+0)+0
  2693  05E7  0824               	movf	(_PIR),w
  2694  05E8  3E07               	addlw	07h
  2695  05E9  0084               	movwf	fsr0
  2696  05EA  0800               	movf	indf,w
  2697  05EB  0750               	addwf	(??_main+0)+0,w
  2698  05EC  00D1               	movwf	(??_main+1)+0
  2699  05ED  01D2               	clrf	(??_main+1)+0+1
  2700  05EE  0DD2               	rlf	1+(??_main+1)+0,f
  2701                           	
  2702  05EF  0824               	movf	(_PIR),w
  2703  05F0  3E03               	addlw	03h
  2704  05F1  0084               	movwf	fsr0
  2705  05F2  0852               	movf	1+(??_main+1)+0,w
  2706  05F3  3A80               	xorlw	80h
  2707  05F4  00D3               	movwf	(??_main+3)+0
  2708  05F5  3080               	movlw	80h
  2709  05F6  0253               	subwf	(??_main+3)+0,w
  2710  05F7  1D03               	skipz
  2711  05F8  2DFB               	goto	u4975
  2712  05F9  0800               	movf	indf,w
  2713  05FA  0251               	subwf	0+(??_main+1)+0,w
  2714  05FB                     u4975:
  2715                           
  2716  05FB  1803               	skipnc
  2717  05FC  2DFE               	goto	u4971
  2718  05FD  2DFF               	goto	u4970
  2719  05FE                     u4971:
  2720  05FE  2E41               	goto	l3556
  2721  05FF                     u4970:
  2722  05FF  2E02               	goto	l954
  2723                           	
  2724  0600                     l3548:	
  2725  0600  2E02               	goto	l954
  2726                           	
  2727  0601                     l955:	
  2728  0601  1686               	bsf	(53/8),(53)&7
  2729                           	
  2730  0602                     l954:	
  2731  0602  1283               	bcf	status, 5	;RP0=0, select bank0
  2732  0603  1303               	bcf	status, 6	;RP1=0, select bank0
  2733  0604  1E86               	btfss	(53/8),(53)&7
  2734  0605  2E07               	goto	u4981
  2735  0606  2E08               	goto	u4980
  2736  0607                     u4981:
  2737  0607  2E01               	goto	l955
  2738  0608                     u4980:
  2739                           	
  2740  0608                     l956:	
  2741  0608  1206               	bcf	(52/8),(52)&7
  2742  0609  2E41               	goto	l3556
  2743                           	
  2744  060A                     l953:	
  2745  060A  2E41               	goto	l3556
  2746                           	
  2747  060B                     l952:	
  2748  060B  2E41               	goto	l3556
  2749                           	
  2750  060C                     l946:	
  2751  060C  2E41               	goto	l3556
  2752                           	
  2753  060D                     l924:	
  2754  060D  2E41               	goto	l3556
  2755                           	
  2756  060E                     l923:	
  2757  060E  2E41               	goto	l3556
  2758                           	
  2759  060F                     l922:	
  2760                           	
  2761  060F                     l3550:	
  2762  060F  0824               	movf	(_PIR),w
  2763  0610  3E21               	addlw	021h
  2764  0611  0084               	movwf	fsr0
  2765  0612  3001               	movlw	01h
  2766  0613  1383               	bcf	status, 7	;select IRP bank0
  2767  0614  0780               	addwf	indf,f
  2768  0615  0A84               	incf	fsr0,f
  2769  0616  1803               	skipnc
  2770  0617  0A80               	incf	indf,f
  2771                           	
  2772  0618                     l3552:	
  2773  0618  0824               	movf	(_PIR),w
  2774  0619  3E21               	addlw	021h
  2775  061A  0084               	movwf	fsr0
  2776  061B  0800               	movf	indf,w
  2777  061C  00D0               	movwf	(??_main+0)+0+0
  2778  061D  0A84               	incf	fsr0,f
  2779  061E  0800               	movf	indf,w
  2780  061F  00D1               	movwf	(??_main+0)+0+1
  2781  0620  3001               	movlw	high(012Ch)
  2782  0621  0651               	xorwf	1+(??_main+0)+0,w
  2783  0622  1D03               	skipz
  2784  0623  2E26               	goto	u4995
  2785  0624  302C               	movlw	low(012Ch)
  2786  0625  0650               	xorwf	0+(??_main+0)+0,w
  2787  0626                     u4995:
  2788                           
  2789  0626  1D03               	skipz
  2790  0627  2E29               	goto	u4991
  2791  0628  2E2A               	goto	u4990
  2792  0629                     u4991:
  2793  0629  2E41               	goto	l3556
  2794  062A                     u4990:
  2795                           	
  2796  062A                     l3554:	
  2797  062A  0824               	movf	(_PIR),w
  2798  062B  3E21               	addlw	021h
  2799  062C  0084               	movwf	fsr0
  2800  062D  3000               	movlw	low(0)
  2801  062E  0080               	movwf	indf
  2802  062F  0A84               	incf	fsr0,f
  2803  0630  3000               	movlw	high(0)
  2804  0631  0080               	movwf	indf
  2805  0632  0824               	movf	(_PIR),w
  2806  0633  3E20               	addlw	020h
  2807  0634  0084               	movwf	fsr0
  2808  0635  1480               	bsf	indf,1
  2809  0636  2E38               	goto	l959
  2810                           	
  2811  0637                     l960:	
  2812  0637  1686               	bsf	(53/8),(53)&7
  2813                           	
  2814  0638                     l959:	
  2815  0638  1E86               	btfss	(53/8),(53)&7
  2816  0639  2E3B               	goto	u5001
  2817  063A  2E3C               	goto	u5000
  2818  063B                     u5001:
  2819  063B  2E37               	goto	l960
  2820  063C                     u5000:
  2821  063C  2E41               	goto	l3556
  2822                           	
  2823  063D                     l961:	
  2824  063D  2E41               	goto	l3556
  2825                           	
  2826  063E                     l958:	
  2827  063E  2E41               	goto	l3556
  2828                           	
  2829  063F                     l957:	
  2830  063F  2E41               	goto	l3556
  2831                           	
  2832  0640                     l887:	
  2833  0640  2E41               	goto	l3556
  2834                           	
  2835  0641                     l886:	
  2836                           	line	147
  2837                           	
  2838  0641                     l3556:	
  2839                           ;PIR_Ceiling_Embed_V1.c: 147: if(Lights2->Run > 0) { if(Lights2->Run == 21) { if(Lights2
                                 ->Status == 0) { Lights2->Status = 1; if(RA4 == 0) { Lights2->GO =1; Lights2->TriacTime=
                                 90; Lights2->RelayTime=70; RB2=1; } else { Lights2->GO=0; RB2=0; } } } else if(Lights2->
                                 Run == 20) { if(
  2840  0641  1283               	bcf	status, 5	;RP0=0, select bank0
  2841  0642  1303               	bcf	status, 6	;RP1=0, select bank0
  2842  0643  0823               	movf	(_Lights2),w
  2843  0644  3E04               	addlw	04h
  2844  0645  0084               	movwf	fsr0
  2845  0646  1383               	bcf	status, 7	;select IRP bank0
  2846  0647  0880               	movf	indf
  2847  0648  1903               	skipnz
  2848  0649  2E4B               	goto	u5011
  2849  064A  2E4C               	goto	u5010
  2850  064B                     u5011:
  2851  064B  2EB1               	goto	l3590
  2852  064C                     u5010:
  2853                           	
  2854  064C                     l3558:	
  2855  064C  0823               	movf	(_Lights2),w
  2856  064D  3E04               	addlw	04h
  2857  064E  0084               	movwf	fsr0
  2858  064F  0800               	movf	indf,w
  2859  0650  3A15               	xorlw	015h
  2860  0651  1D03               	skipz
  2861  0652  2E54               	goto	u5021
  2862  0653  2E55               	goto	u5020
  2863  0654                     u5021:
  2864  0654  2E7C               	goto	l3574
  2865  0655                     u5020:
  2866                           	
  2867  0655                     l3560:	
  2868  0655  0823               	movf	(_Lights2),w
  2869  0656  0084               	movwf	fsr0
  2870  0657  1900               	btfsc	indf,2
  2871  0658  2E5A               	goto	u5031
  2872  0659  2E5B               	goto	u5030
  2873  065A                     u5031:
  2874  065A  2EAC               	goto	l967
  2875  065B                     u5030:
  2876                           	
  2877  065B                     l3562:	
  2878  065B  0823               	movf	(_Lights2),w
  2879  065C  0084               	movwf	fsr0
  2880  065D  1500               	bsf	indf,2
  2881                           	
  2882  065E                     l3564:	
  2883  065E  1A05               	btfsc	(44/8),(44)&7
  2884  065F  2E61               	goto	u5041
  2885  0660  2E62               	goto	u5040
  2886  0661                     u5041:
  2887  0661  2E75               	goto	l3570
  2888  0662                     u5040:
  2889                           	
  2890  0662                     l3566:	
  2891  0662  0823               	movf	(_Lights2),w
  2892  0663  0084               	movwf	fsr0
  2893  0664  1480               	bsf	indf,1
  2894  0665  305A               	movlw	(05Ah)
  2895  0666  00D0               	movwf	(??_main+0)+0
  2896  0667  0823               	movf	(_Lights2),w
  2897  0668  3E02               	addlw	02h
  2898  0669  0084               	movwf	fsr0
  2899  066A  0850               	movf	(??_main+0)+0,w
  2900  066B  0080               	movwf	indf
  2901  066C  3046               	movlw	(046h)
  2902  066D  00D0               	movwf	(??_main+0)+0
  2903  066E  0823               	movf	(_Lights2),w
  2904  066F  3E03               	addlw	03h
  2905  0670  0084               	movwf	fsr0
  2906  0671  0850               	movf	(??_main+0)+0,w
  2907  0672  0080               	movwf	indf
  2908                           	
  2909  0673                     l3568:	
  2910  0673  1506               	bsf	(50/8),(50)&7
  2911  0674  2EAC               	goto	l967
  2912                           	
  2913  0675                     l965:	
  2914                           	
  2915  0675                     l3570:	
  2916  0675  0823               	movf	(_Lights2),w
  2917  0676  0084               	movwf	fsr0
  2918  0677  1080               	bcf	indf,1
  2919                           	
  2920  0678                     l3572:	
  2921  0678  1106               	bcf	(50/8),(50)&7
  2922  0679  2EAC               	goto	l967
  2923                           	
  2924  067A                     l966:	
  2925  067A  2EAC               	goto	l967
  2926                           	
  2927  067B                     l964:	
  2928  067B  2EAC               	goto	l967
  2929                           	
  2930  067C                     l963:	
  2931                           	
  2932  067C                     l3574:	
  2933  067C  0823               	movf	(_Lights2),w
  2934  067D  3E04               	addlw	04h
  2935  067E  0084               	movwf	fsr0
  2936  067F  0800               	movf	indf,w
  2937  0680  3A14               	xorlw	014h
  2938  0681  1D03               	skipz
  2939  0682  2E84               	goto	u5051
  2940  0683  2E85               	goto	u5050
  2941  0684                     u5051:
  2942  0684  2EAC               	goto	l967
  2943  0685                     u5050:
  2944                           	
  2945  0685                     l3576:	
  2946  0685  0823               	movf	(_Lights2),w
  2947  0686  0084               	movwf	fsr0
  2948  0687  1D00               	btfss	indf,2
  2949  0688  2E8A               	goto	u5061
  2950  0689  2E8B               	goto	u5060
  2951  068A                     u5061:
  2952  068A  2EAC               	goto	l967
  2953  068B                     u5060:
  2954                           	
  2955  068B                     l3578:	
  2956  068B  0823               	movf	(_Lights2),w
  2957  068C  0084               	movwf	fsr0
  2958  068D  1100               	bcf	indf,2
  2959                           	
  2960  068E                     l3580:	
  2961  068E  1E05               	btfss	(44/8),(44)&7
  2962  068F  2E91               	goto	u5071
  2963  0690  2E92               	goto	u5070
  2964  0691                     u5071:
  2965  0691  2EA5               	goto	l3586
  2966  0692                     u5070:
  2967                           	
  2968  0692                     l3582:	
  2969  0692  0823               	movf	(_Lights2),w
  2970  0693  0084               	movwf	fsr0
  2971  0694  1480               	bsf	indf,1
  2972  0695  3028               	movlw	(028h)
  2973  0696  00D0               	movwf	(??_main+0)+0
  2974  0697  0823               	movf	(_Lights2),w
  2975  0698  3E02               	addlw	02h
  2976  0699  0084               	movwf	fsr0
  2977  069A  0850               	movf	(??_main+0)+0,w
  2978  069B  0080               	movwf	indf
  2979  069C  3014               	movlw	(014h)
  2980  069D  00D0               	movwf	(??_main+0)+0
  2981  069E  0823               	movf	(_Lights2),w
  2982  069F  3E03               	addlw	03h
  2983  06A0  0084               	movwf	fsr0
  2984  06A1  0850               	movf	(??_main+0)+0,w
  2985  06A2  0080               	movwf	indf
  2986                           	
  2987  06A3                     l3584:	
  2988  06A3  1506               	bsf	(50/8),(50)&7
  2989  06A4  2EAC               	goto	l967
  2990                           	
  2991  06A5                     l970:	
  2992                           	
  2993  06A5                     l3586:	
  2994  06A5  0823               	movf	(_Lights2),w
  2995  06A6  0084               	movwf	fsr0
  2996  06A7  1080               	bcf	indf,1
  2997                           	
  2998  06A8                     l3588:	
  2999  06A8  1106               	bcf	(50/8),(50)&7
  3000  06A9  2EAC               	goto	l967
  3001                           	
  3002  06AA                     l971:	
  3003  06AA  2EAC               	goto	l967
  3004                           	
  3005  06AB                     l969:	
  3006  06AB  2EAC               	goto	l967
  3007                           	
  3008  06AC                     l968:	
  3009                           	
  3010  06AC                     l967:	
  3011  06AC  0823               	movf	(_Lights2),w
  3012  06AD  3E04               	addlw	04h
  3013  06AE  0084               	movwf	fsr0
  3014  06AF  0180               	clrf	indf
  3015  06B0  2EB1               	goto	l3590
  3016                           	
  3017  06B1                     l962:	
  3018                           	
  3019  06B1                     l3590:	
  3020  06B1  0000               	nop
  3021                           	
  3022  06B2                     l3592:	
  3023  06B2  0000               	nop
  3024  06B3  1283               	bcf	status, 5	;RP0=0, select bank0
  3025  06B4  1303               	bcf	status, 6	;RP1=0, select bank0
  3026  06B5  0823               	movf	(_Lights2),w
  3027  06B6  0084               	movwf	fsr0
  3028  06B7  1383               	bcf	status, 7	;select IRP bank0
  3029  06B8  1C80               	btfss	indf,1
  3030  06B9  2EBB               	goto	u5081
  3031  06BA  2EBC               	goto	u5080
  3032  06BB                     u5081:
  3033  06BB  28A3               	goto	l3280
  3034  06BC                     u5080:
  3035                           	
  3036  06BC                     l3594:	
  3037  06BC  3001               	movlw	(01h)
  3038  06BD  00D0               	movwf	(??_main+0)+0
  3039  06BE  0823               	movf	(_Lights2),w
  3040  06BF  3E01               	addlw	01h
  3041  06C0  0084               	movwf	fsr0
  3042  06C1  0850               	movf	(??_main+0)+0,w
  3043  06C2  0780               	addwf	indf,f
  3044                           	
  3045  06C3                     l3596:	
  3046  06C3  0823               	movf	(_Lights2),w
  3047  06C4  3E03               	addlw	03h
  3048  06C5  0084               	movwf	fsr
  3049  06C6  0800               	movf	indf,w
  3050  06C7  00D0               	movwf	(??_main+0)+0
  3051  06C8  0823               	movf	(_Lights2),w
  3052  06C9  3E01               	addlw	01h
  3053  06CA  0084               	movwf	fsr0
  3054  06CB  0800               	movf	indf,w
  3055  06CC  0650               	xorwf	(??_main+0)+0,w
  3056  06CD  1D03               	skipz
  3057  06CE  2ED0               	goto	u5091
  3058  06CF  2ED1               	goto	u5090
  3059  06D0                     u5091:
  3060  06D0  2EDC               	goto	l3602
  3061  06D1                     u5090:
  3062                           	
  3063  06D1                     l3598:	
  3064  06D1  0823               	movf	(_Lights2),w
  3065  06D2  0084               	movwf	fsr0
  3066  06D3  1D00               	btfss	indf,2
  3067  06D4  2ED6               	goto	u5101
  3068  06D5  2ED7               	goto	u5100
  3069  06D6                     u5101:
  3070  06D6  2ED9               	goto	l974
  3071  06D7                     u5100:
  3072                           	
  3073  06D7                     l3600:	
  3074  06D7  1605               	bsf	(44/8),(44)&7
  3075  06D8  2EDC               	goto	l3602
  3076                           	
  3077  06D9                     l974:	
  3078  06D9  1205               	bcf	(44/8),(44)&7
  3079  06DA  2EDC               	goto	l3602
  3080                           	
  3081  06DB                     l975:	
  3082  06DB  2EDC               	goto	l3602
  3083                           	
  3084  06DC                     l973:	
  3085                           	
  3086  06DC                     l3602:	
  3087  06DC  0823               	movf	(_Lights2),w
  3088  06DD  3E02               	addlw	02h
  3089  06DE  0084               	movwf	fsr
  3090  06DF  0800               	movf	indf,w
  3091  06E0  00D0               	movwf	(??_main+0)+0
  3092  06E1  0823               	movf	(_Lights2),w
  3093  06E2  3E01               	addlw	01h
  3094  06E3  0084               	movwf	fsr0
  3095  06E4  0800               	movf	indf,w
  3096  06E5  00D1               	movwf	(??_main+1)+0
  3097  06E6  0850               	movf	(??_main+0)+0,w
  3098  06E7  0251               	subwf	(??_main+1)+0,w
  3099  06E8  1C03               	skipc
  3100  06E9  2EEB               	goto	u5111
  3101  06EA  2EEC               	goto	u5110
  3102  06EB                     u5111:
  3103  06EB  28A3               	goto	l3280
  3104  06EC                     u5110:
  3105                           	
  3106  06EC                     l3604:	
  3107  06EC  0823               	movf	(_Lights2),w
  3108  06ED  3E01               	addlw	01h
  3109  06EE  0084               	movwf	fsr0
  3110  06EF  0180               	clrf	indf
  3111  06F0  0823               	movf	(_Lights2),w
  3112  06F1  0084               	movwf	fsr0
  3113  06F2  1080               	bcf	indf,1
  3114                           	
  3115  06F3                     l3606:	
  3116  06F3  1106               	bcf	(50/8),(50)&7
  3117  06F4  28A3               	goto	l3280
  3118                           	
  3119  06F5                     l976:	
  3120  06F5  28A3               	goto	l3280
  3121                           	
  3122  06F6                     l972:	
  3123  06F6  28A3               	goto	l3280
  3124                           	line	148
  3125                           	
  3126  06F7                     l854:	
  3127  06F7  28A3               	goto	l3280
  3128                           	line	149
  3129                           	
  3130  06F8                     l977:	
  3131                           	line	130
  3132  06F8  28A3               	goto	l3280
  3133                           	
  3134  06F9                     l978:	
  3135                           	line	150
  3136                           	
  3137  06F9                     l979:	
  3138                           	global	start
  3139  06F9  118A  2811         	ljmp	start
  3140                           	opt stack 0
  3141                           GLOBAL	__end_of_main
  3142  06FB                     	__end_of_main:
  3143 ;; =============== function _main ends ============
  3144                           
  3145                           	signat	_main,88
  3146                           	global	___awdiv
  3147                           psect	text225,local,class=CODE,delta=2
  3148                           global __ptext225
  3149  06FB                     __ptext225:
  3150                           
  3151 ;; *************** function ___awdiv *****************
  3152 ;; Defined at:
  3153 ;;		line 5 in file "C:\Program Files (x86)\HI-TECH Software\PICC\9.83\sources\awdiv.c"
  3154 ;; Parameters:    Size  Location     Type
  3155 ;;  divisor         2    0[BANK0 ] int 
  3156 ;;  dividend        2    2[BANK0 ] int 
  3157 ;; Auto vars:     Size  Location     Type
  3158 ;;  quotient        2    7[BANK0 ] int 
  3159 ;;  sign            1    6[BANK0 ] unsigned char 
  3160 ;;  counter         1    5[BANK0 ] unsigned char 
  3161 ;; Return value:  Size  Location     Type
  3162 ;;                  2    0[BANK0 ] int 
  3163 ;; Registers used:
  3164 ;;		wreg, status,2, status,0
  3165 ;; Tracked objects:
  3166 ;;		On entry : 0/0
  3167 ;;		On exit  : 0/0
  3168 ;;		Unchanged: 0/0
  3169 ;; Data sizes:     COMMON   BANK0   BANK1   BANK2
  3170 ;;      Params:         0       4       0       0
  3171 ;;      Locals:         0       4       0       0
  3172 ;;      Temps:          0       1       0       0
  3173 ;;      Totals:         0       9       0       0
  3174 ;;Total ram usage:        9 bytes
  3175 ;; Hardware stack levels used:    1
  3176 ;; Hardware stack levels required when called:    1
  3177 ;; This function calls:
  3178 ;;		Nothing
  3179 ;; This function is called by:
  3180 ;;		_main
  3181 ;; This function uses a non-reentrant model
  3182 ;;
  3183                           psect	text225
  3184                           	file	"C:\Program Files (x86)\HI-TECH Software\PICC\9.83\sources\awdiv.c"
  3185                           	line	5
  3186                           	global	__size_of___awdiv
  3187  0076                     	__size_of___awdiv	equ	__end_of___awdiv-___awdiv
  3188                           	
  3189  06FB                     ___awdiv:	
  3190                           	opt	stack 6
  3191                           ; Regs used in ___awdiv: [wreg+status,2+status,0]
  3192                           	line	9
  3193                           	
  3194  06FB                     l3172:	
  3195  06FB  1283               	bcf	status, 5	;RP0=0, select bank0
  3196  06FC  1303               	bcf	status, 6	;RP1=0, select bank0
  3197  06FD  01CD               	clrf	(___awdiv@sign)
  3198                           	line	10
  3199  06FE  1FC8               	btfss	(___awdiv@divisor+1),7
  3200  06FF  2F01               	goto	u4201
  3201  0700  2F02               	goto	u4200
  3202  0701                     u4201:
  3203  0701  2F0B               	goto	l3176
  3204  0702                     u4200:
  3205                           	line	11
  3206                           	
  3207  0702                     l3174:	
  3208  0702  09C7               	comf	(___awdiv@divisor),f
  3209  0703  09C8               	comf	(___awdiv@divisor+1),f
  3210  0704  0AC7               	incf	(___awdiv@divisor),f
  3211  0705  1903               	skipnz
  3212  0706  0AC8               	incf	(___awdiv@divisor+1),f
  3213                           	line	12
  3214  0707  01CD               	clrf	(___awdiv@sign)
  3215  0708  1403               	bsf	status,0
  3216  0709  0DCD               	rlf	(___awdiv@sign),f
  3217  070A  2F0B               	goto	l3176
  3218                           	line	13
  3219                           	
  3220  070B                     l1144:	
  3221                           	line	14
  3222                           	
  3223  070B                     l3176:	
  3224  070B  1FCA               	btfss	(___awdiv@dividend+1),7
  3225  070C  2F0E               	goto	u4211
  3226  070D  2F0F               	goto	u4210
  3227  070E                     u4211:
  3228  070E  2F19               	goto	l3182
  3229  070F                     u4210:
  3230                           	line	15
  3231                           	
  3232  070F                     l3178:	
  3233  070F  09C9               	comf	(___awdiv@dividend),f
  3234  0710  09CA               	comf	(___awdiv@dividend+1),f
  3235  0711  0AC9               	incf	(___awdiv@dividend),f
  3236  0712  1903               	skipnz
  3237  0713  0ACA               	incf	(___awdiv@dividend+1),f
  3238                           	line	16
  3239                           	
  3240  0714                     l3180:	
  3241  0714  3001               	movlw	(01h)
  3242  0715  00CB               	movwf	(??___awdiv+0)+0
  3243  0716  084B               	movf	(??___awdiv+0)+0,w
  3244  0717  06CD               	xorwf	(___awdiv@sign),f
  3245  0718  2F19               	goto	l3182
  3246                           	line	17
  3247                           	
  3248  0719                     l1145:	
  3249                           	line	18
  3250                           	
  3251  0719                     l3182:	
  3252  0719  01CE               	clrf	(___awdiv@quotient)
  3253  071A  01CF               	clrf	(___awdiv@quotient+1)
  3254                           	line	19
  3255                           	
  3256  071B                     l3184:	
  3257  071B  0848               	movf	(___awdiv@divisor+1),w
  3258  071C  0447               	iorwf	(___awdiv@divisor),w
  3259  071D  1903               	skipnz
  3260  071E  2F20               	goto	u4221
  3261  071F  2F21               	goto	u4220
  3262  0720                     u4221:
  3263  0720  2F5F               	goto	l3204
  3264  0721                     u4220:
  3265                           	line	20
  3266                           	
  3267  0721                     l3186:	
  3268  0721  01CC               	clrf	(___awdiv@counter)
  3269  0722  1403               	bsf	status,0
  3270  0723  0DCC               	rlf	(___awdiv@counter),f
  3271                           	line	21
  3272  0724  2F31               	goto	l3192
  3273                           	
  3274  0725                     l1148:	
  3275                           	line	22
  3276                           	
  3277  0725                     l3188:	
  3278  0725  3001               	movlw	01h
  3279                           	
  3280  0726                     u4235:
  3281  0726  1003               	clrc
  3282  0727  0DC7               	rlf	(___awdiv@divisor),f
  3283  0728  0DC8               	rlf	(___awdiv@divisor+1),f
  3284  0729  3EFF               	addlw	-1
  3285  072A  1D03               	skipz
  3286  072B  2F26               	goto	u4235
  3287                           	line	23
  3288                           	
  3289  072C                     l3190:	
  3290  072C  3001               	movlw	(01h)
  3291  072D  00CB               	movwf	(??___awdiv+0)+0
  3292  072E  084B               	movf	(??___awdiv+0)+0,w
  3293  072F  07CC               	addwf	(___awdiv@counter),f
  3294  0730  2F31               	goto	l3192
  3295                           	line	24
  3296                           	
  3297  0731                     l1147:	
  3298                           	line	21
  3299                           	
  3300  0731                     l3192:	
  3301  0731  1FC8               	btfss	(___awdiv@divisor+1),(15)&7
  3302  0732  2F34               	goto	u4241
  3303  0733  2F35               	goto	u4240
  3304  0734                     u4241:
  3305  0734  2F25               	goto	l3188
  3306  0735                     u4240:
  3307  0735  2F37               	goto	l3194
  3308                           	
  3309  0736                     l1149:	
  3310  0736  2F37               	goto	l3194
  3311                           	line	25
  3312                           	
  3313  0737                     l1150:	
  3314                           	line	26
  3315                           	
  3316  0737                     l3194:	
  3317  0737  3001               	movlw	01h
  3318                           	
  3319  0738                     u4255:
  3320  0738  1003               	clrc
  3321  0739  0DCE               	rlf	(___awdiv@quotient),f
  3322  073A  0DCF               	rlf	(___awdiv@quotient+1),f
  3323  073B  3EFF               	addlw	-1
  3324  073C  1D03               	skipz
  3325  073D  2F38               	goto	u4255
  3326                           	line	27
  3327  073E  0848               	movf	(___awdiv@divisor+1),w
  3328  073F  024A               	subwf	(___awdiv@dividend+1),w
  3329  0740  1D03               	skipz
  3330  0741  2F44               	goto	u4265
  3331  0742  0847               	movf	(___awdiv@divisor),w
  3332  0743  0249               	subwf	(___awdiv@dividend),w
  3333  0744                     u4265:
  3334  0744  1C03               	skipc
  3335  0745  2F47               	goto	u4261
  3336  0746  2F48               	goto	u4260
  3337  0747                     u4261:
  3338  0747  2F50               	goto	l3200
  3339  0748                     u4260:
  3340                           	line	28
  3341                           	
  3342  0748                     l3196:	
  3343  0748  0847               	movf	(___awdiv@divisor),w
  3344  0749  02C9               	subwf	(___awdiv@dividend),f
  3345  074A  0848               	movf	(___awdiv@divisor+1),w
  3346  074B  1C03               	skipc
  3347  074C  03CA               	decf	(___awdiv@dividend+1),f
  3348  074D  02CA               	subwf	(___awdiv@dividend+1),f
  3349                           	line	29
  3350                           	
  3351  074E                     l3198:	
  3352  074E  144E               	bsf	(___awdiv@quotient)+(0/8),(0)&7
  3353  074F  2F50               	goto	l3200
  3354                           	line	30
  3355                           	
  3356  0750                     l1151:	
  3357                           	line	31
  3358                           	
  3359  0750                     l3200:	
  3360  0750  3001               	movlw	01h
  3361                           	
  3362  0751                     u4275:
  3363  0751  1003               	clrc
  3364  0752  0CC8               	rrf	(___awdiv@divisor+1),f
  3365  0753  0CC7               	rrf	(___awdiv@divisor),f
  3366  0754  3EFF               	addlw	-1
  3367  0755  1D03               	skipz
  3368  0756  2F51               	goto	u4275
  3369                           	line	32
  3370                           	
  3371  0757                     l3202:	
  3372  0757  3001               	movlw	low(01h)
  3373  0758  02CC               	subwf	(___awdiv@counter),f
  3374  0759  1D03               	btfss	status,2
  3375  075A  2F5C               	goto	u4281
  3376  075B  2F5D               	goto	u4280
  3377  075C                     u4281:
  3378  075C  2F37               	goto	l3194
  3379  075D                     u4280:
  3380  075D  2F5F               	goto	l3204
  3381                           	
  3382  075E                     l1152:	
  3383  075E  2F5F               	goto	l3204
  3384                           	line	33
  3385                           	
  3386  075F                     l1146:	
  3387                           	line	34
  3388                           	
  3389  075F                     l3204:	
  3390  075F  084D               	movf	(___awdiv@sign),w
  3391  0760  1D03               	skipz
  3392  0761  2F63               	goto	u4290
  3393  0762  2F69               	goto	l3208
  3394  0763                     u4290:
  3395                           	line	35
  3396                           	
  3397  0763                     l3206:	
  3398  0763  09CE               	comf	(___awdiv@quotient),f
  3399  0764  09CF               	comf	(___awdiv@quotient+1),f
  3400  0765  0ACE               	incf	(___awdiv@quotient),f
  3401  0766  1903               	skipnz
  3402  0767  0ACF               	incf	(___awdiv@quotient+1),f
  3403  0768  2F69               	goto	l3208
  3404                           	
  3405  0769                     l1153:	
  3406                           	line	36
  3407                           	
  3408  0769                     l3208:	
  3409  0769  084F               	movf	(___awdiv@quotient+1),w
  3410  076A  01C8               	clrf	(?___awdiv+1)
  3411  076B  07C8               	addwf	(?___awdiv+1)
  3412  076C  084E               	movf	(___awdiv@quotient),w
  3413  076D  01C7               	clrf	(?___awdiv)
  3414  076E  07C7               	addwf	(?___awdiv)
  3415                           
  3416  076F  2F70               	goto	l1154
  3417                           	
  3418  0770                     l3210:	
  3419                           	line	37
  3420                           	
  3421  0770                     l1154:	
  3422  0770  0008               	return
  3423                           	opt stack 0
  3424                           GLOBAL	__end_of___awdiv
  3425  0771                     	__end_of___awdiv:
  3426 ;; =============== function ___awdiv ends ============
  3427                           
  3428                           	signat	___awdiv,8314
  3429                           	global	___lwdiv
  3430                           psect	text226,local,class=CODE,delta=2
  3431                           global __ptext226
  3432  0FB0                     __ptext226:
  3433                           
  3434 ;; *************** function ___lwdiv *****************
  3435 ;; Defined at:
  3436 ;;		line 5 in file "C:\Program Files (x86)\HI-TECH Software\PICC\9.83\sources\lwdiv.c"
  3437 ;; Parameters:    Size  Location     Type
  3438 ;;  divisor         2    0[BANK0 ] unsigned int 
  3439 ;;  dividend        2    2[BANK0 ] unsigned int 
  3440 ;; Auto vars:     Size  Location     Type
  3441 ;;  quotient        2    6[BANK0 ] unsigned int 
  3442 ;;  counter         1    5[BANK0 ] unsigned char 
  3443 ;; Return value:  Size  Location     Type
  3444 ;;                  2    0[BANK0 ] unsigned int 
  3445 ;; Registers used:
  3446 ;;		wreg, status,2, status,0
  3447 ;; Tracked objects:
  3448 ;;		On entry : 0/0
  3449 ;;		On exit  : 0/0
  3450 ;;		Unchanged: 0/0
  3451 ;; Data sizes:     COMMON   BANK0   BANK1   BANK2
  3452 ;;      Params:         0       4       0       0
  3453 ;;      Locals:         0       3       0       0
  3454 ;;      Temps:          0       1       0       0
  3455 ;;      Totals:         0       8       0       0
  3456 ;;Total ram usage:        8 bytes
  3457 ;; Hardware stack levels used:    1
  3458 ;; Hardware stack levels required when called:    1
  3459 ;; This function calls:
  3460 ;;		Nothing
  3461 ;; This function is called by:
  3462 ;;		_main
  3463 ;; This function uses a non-reentrant model
  3464 ;;
  3465                           psect	text226
  3466                           	file	"C:\Program Files (x86)\HI-TECH Software\PICC\9.83\sources\lwdiv.c"
  3467                           	line	5
  3468                           	global	__size_of___lwdiv
  3469  0050                     	__size_of___lwdiv	equ	__end_of___lwdiv-___lwdiv
  3470                           	
  3471  0FB0                     ___lwdiv:	
  3472                           	opt	stack 6
  3473                           ; Regs used in ___lwdiv: [wreg+status,2+status,0]
  3474                           	line	9
  3475                           	
  3476  0FB0                     l3146:	
  3477  0FB0  1283               	bcf	status, 5	;RP0=0, select bank0
  3478  0FB1  1303               	bcf	status, 6	;RP1=0, select bank0
  3479  0FB2  01CD               	clrf	(___lwdiv@quotient)
  3480  0FB3  01CE               	clrf	(___lwdiv@quotient+1)
  3481                           	line	10
  3482                           	
  3483  0FB4                     l3148:	
  3484  0FB4  0848               	movf	(___lwdiv@divisor+1),w
  3485  0FB5  0447               	iorwf	(___lwdiv@divisor),w
  3486  0FB6  1903               	skipnz
  3487  0FB7  2FB9               	goto	u4131
  3488  0FB8  2FBA               	goto	u4130
  3489  0FB9                     u4131:
  3490  0FB9  2FF8               	goto	l3168
  3491  0FBA                     u4130:
  3492                           	line	11
  3493                           	
  3494  0FBA                     l3150:	
  3495  0FBA  01CC               	clrf	(___lwdiv@counter)
  3496  0FBB  1403               	bsf	status,0
  3497  0FBC  0DCC               	rlf	(___lwdiv@counter),f
  3498                           	line	12
  3499  0FBD  2FCA               	goto	l3156
  3500                           	
  3501  0FBE                     l1012:	
  3502                           	line	13
  3503                           	
  3504  0FBE                     l3152:	
  3505  0FBE  3001               	movlw	01h
  3506                           	
  3507  0FBF                     u4145:
  3508  0FBF  1003               	clrc
  3509  0FC0  0DC7               	rlf	(___lwdiv@divisor),f
  3510  0FC1  0DC8               	rlf	(___lwdiv@divisor+1),f
  3511  0FC2  3EFF               	addlw	-1
  3512  0FC3  1D03               	skipz
  3513  0FC4  2FBF               	goto	u4145
  3514                           	line	14
  3515                           	
  3516  0FC5                     l3154:	
  3517  0FC5  3001               	movlw	(01h)
  3518  0FC6  00CB               	movwf	(??___lwdiv+0)+0
  3519  0FC7  084B               	movf	(??___lwdiv+0)+0,w
  3520  0FC8  07CC               	addwf	(___lwdiv@counter),f
  3521  0FC9  2FCA               	goto	l3156
  3522                           	line	15
  3523                           	
  3524  0FCA                     l1011:	
  3525                           	line	12
  3526                           	
  3527  0FCA                     l3156:	
  3528  0FCA  1FC8               	btfss	(___lwdiv@divisor+1),(15)&7
  3529  0FCB  2FCD               	goto	u4151
  3530  0FCC  2FCE               	goto	u4150
  3531  0FCD                     u4151:
  3532  0FCD  2FBE               	goto	l3152
  3533  0FCE                     u4150:
  3534  0FCE  2FD0               	goto	l3158
  3535                           	
  3536  0FCF                     l1013:	
  3537  0FCF  2FD0               	goto	l3158
  3538                           	line	16
  3539                           	
  3540  0FD0                     l1014:	
  3541                           	line	17
  3542                           	
  3543  0FD0                     l3158:	
  3544  0FD0  3001               	movlw	01h
  3545                           	
  3546  0FD1                     u4165:
  3547  0FD1  1003               	clrc
  3548  0FD2  0DCD               	rlf	(___lwdiv@quotient),f
  3549  0FD3  0DCE               	rlf	(___lwdiv@quotient+1),f
  3550  0FD4  3EFF               	addlw	-1
  3551  0FD5  1D03               	skipz
  3552  0FD6  2FD1               	goto	u4165
  3553                           	line	18
  3554  0FD7  0848               	movf	(___lwdiv@divisor+1),w
  3555  0FD8  024A               	subwf	(___lwdiv@dividend+1),w
  3556  0FD9  1D03               	skipz
  3557  0FDA  2FDD               	goto	u4175
  3558  0FDB  0847               	movf	(___lwdiv@divisor),w
  3559  0FDC  0249               	subwf	(___lwdiv@dividend),w
  3560  0FDD                     u4175:
  3561  0FDD  1C03               	skipc
  3562  0FDE  2FE0               	goto	u4171
  3563  0FDF  2FE1               	goto	u4170
  3564  0FE0                     u4171:
  3565  0FE0  2FE9               	goto	l3164
  3566  0FE1                     u4170:
  3567                           	line	19
  3568                           	
  3569  0FE1                     l3160:	
  3570  0FE1  0847               	movf	(___lwdiv@divisor),w
  3571  0FE2  02C9               	subwf	(___lwdiv@dividend),f
  3572  0FE3  0848               	movf	(___lwdiv@divisor+1),w
  3573  0FE4  1C03               	skipc
  3574  0FE5  03CA               	decf	(___lwdiv@dividend+1),f
  3575  0FE6  02CA               	subwf	(___lwdiv@dividend+1),f
  3576                           	line	20
  3577                           	
  3578  0FE7                     l3162:	
  3579  0FE7  144D               	bsf	(___lwdiv@quotient)+(0/8),(0)&7
  3580  0FE8  2FE9               	goto	l3164
  3581                           	line	21
  3582                           	
  3583  0FE9                     l1015:	
  3584                           	line	22
  3585                           	
  3586  0FE9                     l3164:	
  3587  0FE9  3001               	movlw	01h
  3588                           	
  3589  0FEA                     u4185:
  3590  0FEA  1003               	clrc
  3591  0FEB  0CC8               	rrf	(___lwdiv@divisor+1),f
  3592  0FEC  0CC7               	rrf	(___lwdiv@divisor),f
  3593  0FED  3EFF               	addlw	-1
  3594  0FEE  1D03               	skipz
  3595  0FEF  2FEA               	goto	u4185
  3596                           	line	23
  3597                           	
  3598  0FF0                     l3166:	
  3599  0FF0  3001               	movlw	low(01h)
  3600  0FF1  02CC               	subwf	(___lwdiv@counter),f
  3601  0FF2  1D03               	btfss	status,2
  3602  0FF3  2FF5               	goto	u4191
  3603  0FF4  2FF6               	goto	u4190
  3604  0FF5                     u4191:
  3605  0FF5  2FD0               	goto	l3158
  3606  0FF6                     u4190:
  3607  0FF6  2FF8               	goto	l3168
  3608                           	
  3609  0FF7                     l1016:	
  3610  0FF7  2FF8               	goto	l3168
  3611                           	line	24
  3612                           	
  3613  0FF8                     l1010:	
  3614                           	line	25
  3615                           	
  3616  0FF8                     l3168:	
  3617  0FF8  084E               	movf	(___lwdiv@quotient+1),w
  3618  0FF9  01C8               	clrf	(?___lwdiv+1)
  3619  0FFA  07C8               	addwf	(?___lwdiv+1)
  3620  0FFB  084D               	movf	(___lwdiv@quotient),w
  3621  0FFC  01C7               	clrf	(?___lwdiv)
  3622  0FFD  07C7               	addwf	(?___lwdiv)
  3623                           
  3624  0FFE  2FFF               	goto	l1017
  3625                           	
  3626  0FFF                     l3170:	
  3627                           	line	26
  3628                           	
  3629  0FFF                     l1017:	
  3630  0FFF  0008               	return
  3631                           	opt stack 0
  3632                           GLOBAL	__end_of___lwdiv
  3633  1000                     	__end_of___lwdiv:
  3634 ;; =============== function ___lwdiv ends ============
  3635                           
  3636                           	signat	___lwdiv,8314
  3637                           	global	_MainT
  3638                           psect	text227,local,class=CODE,delta=2
  3639                           global __ptext227
  3640  0771                     __ptext227:
  3641                           
  3642 ;; *************** function _MainT *****************
  3643 ;; Defined at:
  3644 ;;		line 170 in file "G:\Program\PIC\5.PIR_Ceiling_Embed\Release\PIR_Ceiling_Embed_V1.c"
  3645 ;; Parameters:    Size  Location     Type
  3646 ;;		None
  3647 ;; Auto vars:     Size  Location     Type
  3648 ;;		None
  3649 ;; Return value:  Size  Location     Type
  3650 ;;		None               void
  3651 ;; Registers used:
  3652 ;;		wreg, fsr0l, fsr0h, status,2, status,0
  3653 ;; Tracked objects:
  3654 ;;		On entry : 0/0
  3655 ;;		On exit  : 0/0
  3656 ;;		Unchanged: 0/0
  3657 ;; Data sizes:     COMMON   BANK0   BANK1   BANK2
  3658 ;;      Params:         0       0       0       0
  3659 ;;      Locals:         0       0       0       0
  3660 ;;      Temps:          0       2       0       0
  3661 ;;      Totals:         0       2       0       0
  3662 ;;Total ram usage:        2 bytes
  3663 ;; Hardware stack levels used:    1
  3664 ;; Hardware stack levels required when called:    1
  3665 ;; This function calls:
  3666 ;;		Nothing
  3667 ;; This function is called by:
  3668 ;;		_main
  3669 ;; This function uses a non-reentrant model
  3670 ;;
  3671                           psect	text227
  3672                           	file	"G:\Program\PIC\5.PIR_Ceiling_Embed\Release\PIR_Ceiling_Embed_V1.c"
  3673                           	line	170
  3674                           	global	__size_of_MainT
  3675  006F                     	__size_of_MainT	equ	__end_of_MainT-_MainT
  3676                           	
  3677  0771                     _MainT:	
  3678                           	opt	stack 6
  3679                           ; Regs used in _MainT: [wreg-fsr0h+status,2+status,0]
  3680                           	line	171
  3681                           	
  3682  0771                     l3132:	
  3683                           ;PIR_Ceiling_Embed_V1.c: 171: TMain->Count++;
  3684  0771  1283               	bcf	status, 5	;RP0=0, select bank0
  3685  0772  1303               	bcf	status, 6	;RP1=0, select bank0
  3686  0773  0857               	movf	(_TMain),w
  3687  0774  3E01               	addlw	01h
  3688  0775  0084               	movwf	fsr0
  3689  0776  3001               	movlw	01h
  3690  0777  1383               	bcf	status, 7	;select IRP bank0
  3691  0778  0780               	addwf	indf,f
  3692  0779  0A84               	incf	fsr0,f
  3693  077A  1803               	skipnc
  3694  077B  0A80               	incf	indf,f
  3695                           	line	172
  3696                           ;PIR_Ceiling_Embed_V1.c: 172: TMain->Count1++;
  3697  077C  0857               	movf	(_TMain),w
  3698  077D  3E03               	addlw	03h
  3699  077E  0084               	movwf	fsr0
  3700  077F  3001               	movlw	01h
  3701  0780  0780               	addwf	indf,f
  3702  0781  0A84               	incf	fsr0,f
  3703  0782  1803               	skipnc
  3704  0783  0A80               	incf	indf,f
  3705                           	line	173
  3706                           	
  3707  0784                     l3134:	
  3708                           ;PIR_Ceiling_Embed_V1.c: 173: if(TMain->PowerON==0)
  3709  0784  0857               	movf	(_TMain),w
  3710  0785  0084               	movwf	fsr0
  3711  0786  1800               	btfsc	indf,0
  3712  0787  2F89               	goto	u4091
  3713  0788  2F8A               	goto	u4090
  3714  0789                     u4091:
  3715  0789  2FA9               	goto	l3140
  3716  078A                     u4090:
  3717                           	line	175
  3718                           	
  3719  078A                     l3136:	
  3720                           ;PIR_Ceiling_Embed_V1.c: 174: {
  3721                           ;PIR_Ceiling_Embed_V1.c: 175: if(TMain->Count == 1000)
  3722  078A  0857               	movf	(_TMain),w
  3723  078B  3E01               	addlw	01h
  3724  078C  0084               	movwf	fsr0
  3725  078D  0800               	movf	indf,w
  3726  078E  00C7               	movwf	(??_MainT+0)+0+0
  3727  078F  0A84               	incf	fsr0,f
  3728  0790  0800               	movf	indf,w
  3729  0791  00C8               	movwf	(??_MainT+0)+0+1
  3730  0792  3003               	movlw	high(03E8h)
  3731  0793  0648               	xorwf	1+(??_MainT+0)+0,w
  3732  0794  1D03               	skipz
  3733  0795  2F98               	goto	u4105
  3734  0796  30E8               	movlw	low(03E8h)
  3735  0797  0647               	xorwf	0+(??_MainT+0)+0,w
  3736  0798                     u4105:
  3737                           
  3738  0798  1D03               	skipz
  3739  0799  2F9B               	goto	u4101
  3740  079A  2F9C               	goto	u4100
  3741  079B                     u4101:
  3742  079B  2FC4               	goto	l992
  3743  079C                     u4100:
  3744                           	line	177
  3745                           	
  3746  079C                     l3138:	
  3747                           ;PIR_Ceiling_Embed_V1.c: 176: {
  3748                           ;PIR_Ceiling_Embed_V1.c: 177: TMain->Count=0;
  3749  079C  0857               	movf	(_TMain),w
  3750  079D  3E01               	addlw	01h
  3751  079E  0084               	movwf	fsr0
  3752  079F  3000               	movlw	low(0)
  3753  07A0  0080               	movwf	indf
  3754  07A1  0A84               	incf	fsr0,f
  3755  07A2  3000               	movlw	high(0)
  3756  07A3  0080               	movwf	indf
  3757                           	line	178
  3758                           ;PIR_Ceiling_Embed_V1.c: 178: TMain->PowerON=1;
  3759  07A4  0857               	movf	(_TMain),w
  3760  07A5  0084               	movwf	fsr0
  3761  07A6  1400               	bsf	indf,0
  3762  07A7  2FC4               	goto	l992
  3763                           	line	179
  3764                           	
  3765  07A8                     l991:	
  3766                           	line	180
  3767                           ;PIR_Ceiling_Embed_V1.c: 179: }
  3768                           ;PIR_Ceiling_Embed_V1.c: 180: }
  3769  07A8  2FC4               	goto	l992
  3770                           	line	181
  3771                           	
  3772  07A9                     l990:	
  3773                           	line	183
  3774                           	
  3775  07A9                     l3140:	
  3776                           ;PIR_Ceiling_Embed_V1.c: 181: else
  3777                           ;PIR_Ceiling_Embed_V1.c: 182: {
  3778                           ;PIR_Ceiling_Embed_V1.c: 183: if(TMain->Count == 1000)
  3779  07A9  0857               	movf	(_TMain),w
  3780  07AA  3E01               	addlw	01h
  3781  07AB  0084               	movwf	fsr0
  3782  07AC  0800               	movf	indf,w
  3783  07AD  00C7               	movwf	(??_MainT+0)+0+0
  3784  07AE  0A84               	incf	fsr0,f
  3785  07AF  0800               	movf	indf,w
  3786  07B0  00C8               	movwf	(??_MainT+0)+0+1
  3787  07B1  3003               	movlw	high(03E8h)
  3788  07B2  0648               	xorwf	1+(??_MainT+0)+0,w
  3789  07B3  1D03               	skipz
  3790  07B4  2FB7               	goto	u4115
  3791  07B5  30E8               	movlw	low(03E8h)
  3792  07B6  0647               	xorwf	0+(??_MainT+0)+0,w
  3793  07B7                     u4115:
  3794                           
  3795  07B7  1D03               	skipz
  3796  07B8  2FBA               	goto	u4111
  3797  07B9  2FBB               	goto	u4110
  3798  07BA                     u4111:
  3799  07BA  2FC4               	goto	l992
  3800  07BB                     u4110:
  3801                           	line	185
  3802                           	
  3803  07BB                     l3142:	
  3804                           ;PIR_Ceiling_Embed_V1.c: 184: {
  3805                           ;PIR_Ceiling_Embed_V1.c: 185: TMain->Count=0;
  3806  07BB  0857               	movf	(_TMain),w
  3807  07BC  3E01               	addlw	01h
  3808  07BD  0084               	movwf	fsr0
  3809  07BE  3000               	movlw	low(0)
  3810  07BF  0080               	movwf	indf
  3811  07C0  0A84               	incf	fsr0,f
  3812  07C1  3000               	movlw	high(0)
  3813  07C2  0080               	movwf	indf
  3814  07C3  2FC4               	goto	l992
  3815                           	line	188
  3816                           	
  3817  07C4                     l993:	
  3818                           	line	189
  3819                           	
  3820  07C4                     l992:	
  3821                           	line	190
  3822                           ;PIR_Ceiling_Embed_V1.c: 188: }
  3823                           ;PIR_Ceiling_Embed_V1.c: 189: }
  3824                           ;PIR_Ceiling_Embed_V1.c: 190: if(TMain->Count1 == 1000)
  3825  07C4  0857               	movf	(_TMain),w
  3826  07C5  3E03               	addlw	03h
  3827  07C6  0084               	movwf	fsr0
  3828  07C7  0800               	movf	indf,w
  3829  07C8  00C7               	movwf	(??_MainT+0)+0+0
  3830  07C9  0A84               	incf	fsr0,f
  3831  07CA  0800               	movf	indf,w
  3832  07CB  00C8               	movwf	(??_MainT+0)+0+1
  3833  07CC  3003               	movlw	high(03E8h)
  3834  07CD  0648               	xorwf	1+(??_MainT+0)+0,w
  3835  07CE  1D03               	skipz
  3836  07CF  2FD2               	goto	u4125
  3837  07D0  30E8               	movlw	low(03E8h)
  3838  07D1  0647               	xorwf	0+(??_MainT+0)+0,w
  3839  07D2                     u4125:
  3840                           
  3841  07D2  1D03               	skipz
  3842  07D3  2FD5               	goto	u4121
  3843  07D4  2FD6               	goto	u4120
  3844  07D5                     u4121:
  3845  07D5  2FDF               	goto	l995
  3846  07D6                     u4120:
  3847                           	line	192
  3848                           	
  3849  07D6                     l3144:	
  3850                           ;PIR_Ceiling_Embed_V1.c: 191: {
  3851                           ;PIR_Ceiling_Embed_V1.c: 192: TMain->Count1=0;
  3852  07D6  0857               	movf	(_TMain),w
  3853  07D7  3E03               	addlw	03h
  3854  07D8  0084               	movwf	fsr0
  3855  07D9  3000               	movlw	low(0)
  3856  07DA  0080               	movwf	indf
  3857  07DB  0A84               	incf	fsr0,f
  3858  07DC  3000               	movlw	high(0)
  3859  07DD  0080               	movwf	indf
  3860  07DE  2FDF               	goto	l995
  3861                           	line	193
  3862                           	
  3863  07DF                     l994:	
  3864                           	line	194
  3865                           	
  3866  07DF                     l995:	
  3867  07DF  0008               	return
  3868                           	opt stack 0
  3869                           GLOBAL	__end_of_MainT
  3870  07E0                     	__end_of_MainT:
  3871 ;; =============== function _MainT ends ============
  3872                           
  3873                           	signat	_MainT,88
  3874                           	global	_MainT_Initial
  3875                           psect	text228,local,class=CODE,delta=2
  3876                           global __ptext228
  3877  0F61                     __ptext228:
  3878                           
  3879 ;; *************** function _MainT_Initial *****************
  3880 ;; Defined at:
  3881 ;;		line 164 in file "G:\Program\PIC\5.PIR_Ceiling_Embed\Release\PIR_Ceiling_Embed_V1.c"
  3882 ;; Parameters:    Size  Location     Type
  3883 ;;		None
  3884 ;; Auto vars:     Size  Location     Type
  3885 ;;		None
  3886 ;; Return value:  Size  Location     Type
  3887 ;;		None               void
  3888 ;; Registers used:
  3889 ;;		wreg
  3890 ;; Tracked objects:
  3891 ;;		On entry : 0/0
  3892 ;;		On exit  : 0/0
  3893 ;;		Unchanged: 0/0
  3894 ;; Data sizes:     COMMON   BANK0   BANK1   BANK2
  3895 ;;      Params:         0       0       0       0
  3896 ;;      Locals:         0       0       0       0
  3897 ;;      Temps:          0       1       0       0
  3898 ;;      Totals:         0       1       0       0
  3899 ;;Total ram usage:        1 bytes
  3900 ;; Hardware stack levels used:    1
  3901 ;; Hardware stack levels required when called:    1
  3902 ;; This function calls:
  3903 ;;		Nothing
  3904 ;; This function is called by:
  3905 ;;		_main
  3906 ;; This function uses a non-reentrant model
  3907 ;;
  3908                           psect	text228
  3909                           	file	"G:\Program\PIC\5.PIR_Ceiling_Embed\Release\PIR_Ceiling_Embed_V1.c"
  3910                           	line	164
  3911                           	global	__size_of_MainT_Initial
  3912  0007                     	__size_of_MainT_Initial	equ	__end_of_MainT_Initial-_MainT_Initial
  3913                           	
  3914  0F61                     _MainT_Initial:	
  3915                           	opt	stack 6
  3916                           ; Regs used in _MainT_Initial: [wreg]
  3917                           	line	165
  3918                           	
  3919  0F61                     l3130:	
  3920                           ;PIR_Ceiling_Embed_V1.c: 165: TMain = &VarTMain;
  3921  0F61  3026               	movlw	(_VarTMain)&0ffh
  3922  0F62  1283               	bcf	status, 5	;RP0=0, select bank0
  3923  0F63  1303               	bcf	status, 6	;RP1=0, select bank0
  3924  0F64  00C7               	movwf	(??_MainT_Initial+0)+0
  3925  0F65  0847               	movf	(??_MainT_Initial+0)+0,w
  3926  0F66  00D7               	movwf	(_TMain)
  3927                           	line	166
  3928                           	
  3929  0F67                     l987:	
  3930  0F67  0008               	return
  3931                           	opt stack 0
  3932                           GLOBAL	__end_of_MainT_Initial
  3933  0F68                     	__end_of_MainT_Initial:
  3934 ;; =============== function _MainT_Initial ends ============
  3935                           
  3936                           	signat	_MainT_Initial,88
  3937                           	global	_ISR
  3938                           psect	text229,local,class=CODE,delta=2
  3939                           global __ptext229
  3940  0F68                     __ptext229:
  3941                           
  3942 ;; *************** function _ISR *****************
  3943 ;; Defined at:
  3944 ;;		line 154 in file "G:\Program\PIC\5.PIR_Ceiling_Embed\Release\PIR_Ceiling_Embed_V1.c"
  3945 ;; Parameters:    Size  Location     Type
  3946 ;;		None
  3947 ;; Auto vars:     Size  Location     Type
  3948 ;;		None
  3949 ;; Return value:  Size  Location     Type
  3950 ;;		None               void
  3951 ;; Registers used:
  3952 ;;		wreg, fsr0l, fsr0h, status,2, status,0
  3953 ;; Tracked objects:
  3954 ;;		On entry : 0/0
  3955 ;;		On exit  : 0/0
  3956 ;;		Unchanged: 0/0
  3957 ;; Data sizes:     COMMON   BANK0   BANK1   BANK2
  3958 ;;      Params:         0       0       0       0
  3959 ;;      Locals:         0       0       0       0
  3960 ;;      Temps:          6       0       0       0
  3961 ;;      Totals:         6       0       0       0
  3962 ;;Total ram usage:        6 bytes
  3963 ;; Hardware stack levels used:    1
  3964 ;; This function calls:
  3965 ;;		Nothing
  3966 ;; This function is called by:
  3967 ;;		Interrupt level 1
  3968 ;; This function uses a non-reentrant model
  3969 ;;
  3970                           psect	text229
  3971                           	file	"G:\Program\PIC\5.PIR_Ceiling_Embed\Release\PIR_Ceiling_Embed_V1.c"
  3972                           	line	154
  3973                           	global	__size_of_ISR
  3974  0048                     	__size_of_ISR	equ	__end_of_ISR-_ISR
  3975                           	
  3976  0F68                     _ISR:	
  3977                           	opt	stack 6
  3978                           ; Regs used in _ISR: [wreg-fsr0h+status,2+status,0]
  3979                           psect	intentry,class=CODE,delta=2
  3980                           global __pintentry
  3981  0004                     __pintentry:
  3982                           global interrupt_function
  3983  0004                     interrupt_function:
  3984                           	global saved_w
  3985  007E                     	saved_w	set	btemp+0
  3986  0004  00FE               	movwf	saved_w
  3987  0005  0E03               	swapf	status,w
  3988  0006  00F8               	movwf	(??_ISR+2)
  3989  0007  0804               	movf	fsr0,w
  3990  0008  00F9               	movwf	(??_ISR+3)
  3991  0009  080A               	movf	pclath,w
  3992  000A  00FA               	movwf	(??_ISR+4)
  3993  000B  1283               	bcf	status, 5	;RP0=0, select bank0
  3994  000C  1303               	bcf	status, 6	;RP1=0, select bank0
  3995  000D  087F               	movf	btemp+1,w
  3996  000E  00FB               	movwf	(??_ISR+5)
  3997  000F  158A  2F68         	ljmp	_ISR
  3998                           psect	text229
  3999                           	line	155
  4000                           	
  4001  0F68                     i1l2644:	
  4002                           ;PIR_Ceiling_Embed_V1.c: 155: _nop();
  4003  0F68  0000               	nop
  4004                           	line	157
  4005                           ;PIR_Ceiling_Embed_V1.c: 157: if(TMR1IE && TMR1IF) { TMR1H=((65536-550)/256); TMR1L=((65
                                 536-550)%256); TMR1IF=0; _nop(); Timer1->Count++; if(Timer1->Count == 20) { Timer1->Coun
                                 t=0; TMain->T1_Timerout=1; } };
  4006  0F69  1683               	bsf	status, 5	;RP0=1, select bank1
  4007  0F6A  1303               	bcf	status, 6	;RP1=0, select bank1
  4008  0F6B  1C0C               	btfss	(1120/8)^080h,(1120)&7
  4009  0F6C  2F6E               	goto	u307_21
  4010  0F6D  2F6F               	goto	u307_20
  4011  0F6E                     u307_21:
  4012  0F6E  2FA2               	goto	i1l2660
  4013  0F6F                     u307_20:
  4014                           	
  4015  0F6F                     i1l2646:	
  4016  0F6F  1283               	bcf	status, 5	;RP0=0, select bank0
  4017  0F70  1303               	bcf	status, 6	;RP1=0, select bank0
  4018  0F71  1C0C               	btfss	(96/8),(96)&7
  4019  0F72  2F74               	goto	u308_21
  4020  0F73  2F75               	goto	u308_20
  4021  0F74                     u308_21:
  4022  0F74  2FA2               	goto	i1l2660
  4023  0F75                     u308_20:
  4024                           	
  4025  0F75                     i1l2648:	
  4026  0F75  30FD               	movlw	(0FDh)
  4027  0F76  008F               	movwf	(15)	;volatile
  4028  0F77  30DA               	movlw	(0DAh)
  4029  0F78  008E               	movwf	(14)	;volatile
  4030                           	
  4031  0F79                     i1l2650:	
  4032  0F79  100C               	bcf	(96/8),(96)&7
  4033                           	
  4034  0F7A                     i1l2652:	
  4035  0F7A  0000               	nop
  4036                           	
  4037  0F7B                     i1l2654:	
  4038  0F7B  1283               	bcf	status, 5	;RP0=0, select bank0
  4039  0F7C  1303               	bcf	status, 6	;RP1=0, select bank0
  4040  0F7D  0825               	movf	(_Timer1),w
  4041  0F7E  3E01               	addlw	01h
  4042  0F7F  0084               	movwf	fsr0
  4043  0F80  3001               	movlw	01h
  4044  0F81  1383               	bcf	status, 7	;select IRP bank0
  4045  0F82  0780               	addwf	indf,f
  4046  0F83  0A84               	incf	fsr0,f
  4047  0F84  1803               	skipnc
  4048  0F85  0A80               	incf	indf,f
  4049                           	
  4050  0F86                     i1l2656:	
  4051  0F86  0825               	movf	(_Timer1),w
  4052  0F87  3E01               	addlw	01h
  4053  0F88  0084               	movwf	fsr0
  4054  0F89  0800               	movf	indf,w
  4055  0F8A  00F6               	movwf	(??_ISR+0)+0+0
  4056  0F8B  0A84               	incf	fsr0,f
  4057  0F8C  0800               	movf	indf,w
  4058  0F8D  00F7               	movwf	(??_ISR+0)+0+1
  4059  0F8E  3014               	movlw	014h
  4060  0F8F  0676               	xorwf	0+(??_ISR+0)+0,w
  4061  0F90  0477               	iorwf	1+(??_ISR+0)+0,w
  4062  0F91  1D03               	skipz
  4063  0F92  2F94               	goto	u309_21
  4064  0F93  2F95               	goto	u309_20
  4065  0F94                     u309_21:
  4066  0F94  2FA2               	goto	i1l2660
  4067  0F95                     u309_20:
  4068                           	
  4069  0F95                     i1l2658:	
  4070  0F95  0825               	movf	(_Timer1),w
  4071  0F96  3E01               	addlw	01h
  4072  0F97  0084               	movwf	fsr0
  4073  0F98  3000               	movlw	low(0)
  4074  0F99  0080               	movwf	indf
  4075  0F9A  0A84               	incf	fsr0,f
  4076  0F9B  3000               	movlw	high(0)
  4077  0F9C  0080               	movwf	indf
  4078  0F9D  0857               	movf	(_TMain),w
  4079  0F9E  0084               	movwf	fsr0
  4080  0F9F  1500               	bsf	indf,2
  4081  0FA0  2FA2               	goto	i1l2660
  4082                           	
  4083  0FA1                     i1l983:	
  4084  0FA1  2FA2               	goto	i1l2660
  4085                           	
  4086  0FA2                     i1l982:	
  4087                           	line	159
  4088                           	
  4089  0FA2                     i1l2660:	
  4090                           ;PIR_Ceiling_Embed_V1.c: 159: _nop();
  4091  0FA2  0000               	nop
  4092                           	line	160
  4093                           	
  4094  0FA3                     i1l984:	
  4095  0FA3  087B               	movf	(??_ISR+5),w
  4096  0FA4  1283               	bcf	status, 5	;RP0=0, select bank0
  4097  0FA5  1303               	bcf	status, 6	;RP1=0, select bank0
  4098  0FA6  00FF               	movwf	btemp+1
  4099  0FA7  087A               	movf	(??_ISR+4),w
  4100  0FA8  008A               	movwf	pclath
  4101  0FA9  0879               	movf	(??_ISR+3),w
  4102  0FAA  0084               	movwf	fsr0
  4103  0FAB  0E78               	swapf	(??_ISR+2)^0FFFFFF80h,w
  4104  0FAC  0083               	movwf	status
  4105  0FAD  0EFE               	swapf	saved_w,f
  4106  0FAE  0E7E               	swapf	saved_w,w
  4107  0FAF  0009               	retfie
  4108                           	opt stack 0
  4109                           GLOBAL	__end_of_ISR
  4110  0FB0                     	__end_of_ISR:
  4111 ;; =============== function _ISR ends ============
  4112                           
  4113                           	signat	_ISR,88
  4114                           psect	text230,local,class=CODE,delta=2
  4115                           global __ptext230
  4116  0000                     __ptext230:
  4117                           	global	btemp
  4118  007E                     	btemp set 07Eh
  4119                           
  4120                           	DABS	1,126,2	;btemp
  4121                           	global	wtemp0
  4122  007E                     	wtemp0 set btemp


HI-TECH Software PICC Macro Assembler V9.83 build 10920 
Symbol Table                                                                                   Fri May 23 17:28:16 2014

       ??_MainT_Initial 0047            ___awdiv@sign 004D                      fsr 0004                     l900 02D2  
                   l901 02E5                     l910 03C1                     l902 02E4                     l911 03DC  
                   l903 0301                     l920 03F7                     l912 03DB                     l904 0323  
                   l913 0407                     l921 03FD                     l905 0353                     l841 0050  
                   l922 060F                     l930 046C                     l914 0406                     l906 0375  
                   l850 0095                     l842 004F                     l923 060E                     l931 04C3  
                   l915 0405                     l907 03A7                     l851 0094                     l843 0055  
                   l924 060D                     l940 0525                     l932 048D                     l916 03F1  
                   l908 03C1                     l860 010B                     l852 0099                     l844 0057  
                   l941 052B                     l933 04C2                     l925 0431                     l917 03F0  
                   l909 03BC                     l861 0194                     l853 00A3                     l845 0056  
                   l854 06F7                     l950 05D6                     l942 052D                     l926 04C4  
                   l934 04C1                     l918 03F6                     l870 016A                     l862 0134  
                   l846 005C                     l951 05DD                     l943 052C                     l935 04AB  
                   l927 046E                     l919 03F8                     l871 0179                     l863 0133  
                   l855 00D0                     l847 005E                     _CDS 0021                     l960 0637  
                   l952 060B                     l944 0532                     l936 04BC                     l928 045B  
                   l880 01D2                     l864 0194                     l872 0193                     l856 00CF  
                   l848 005D                     l961 063D                     l953 060A                     l945 0564  
                   l937 04BC                     l929 046D                     l881 022B                     l873 022C  
                   l865 017C                     l857 00EE                     l849 0063                     l962 06B1  
                   l970 06A5                     l946 060C                     l954 0602                     l938 0565  
                   l890 025B                     l874 022C                     l882 0207                     l866 014E  
                   l858 00ED                     l971 06AA                     l963 067C                     l955 0601  
                   l947 05B1                     l939 0526                     l891 0277                     l883 0206  
                   l875 01BC                     l867 017B                     l859 010C                     l972 06F6  
                   l964 067B                     l956 0608                     l948 05DF                     l892 0277  
                   l884 022A                     l876 01BC                     l868 015E                     l973 06DC  
                   l965 0675                     l957 063F                     l949 05D7                     l893 027C  
                   l885 0229                     l877 01C1                     l869 017A                     l990 07A9  
                   l974 06D9                     l966 067A                     l886 0641                     l958 063E  
                   l894 029C                     l878 01CD                     l991 07A8                     l975 06DB  
                   l967 06AC                     l887 0640                     l959 0638                     l895 02E8  
                   l879 01CD                     l992 07C4                     l976 06F5                     l968 06AC  
                   l896 02AE                     l888 0256                     l993 07C4                     l977 06F8  
                   l969 06AB                     l897 02E7                     l889 0256                     l994 07DF  
                   l978 06F9                     l898 02C0                     l987 0F67                     l995 07DF  
                   l979 06F9                     l899 02E6                     _GIE 005F                     _RB1 0031  
                   _RB2 0032                     _RA4 002C                     _LED 0022                     _RB3 0033  
                   _RB4 0034                     _RB5 0035                     _ISR 0F68                     _PIR 0024  
                   fsr0 0004                     indf 0000                    ?_ISR 0076                    l1010 0FF8  
                  l1011 0FCA                    l1012 0FBE                    l1013 0FCF                    l1014 0FD0  
                  l1015 0FE9                    l1016 0FF7                    l1017 0FFF                    l1150 0737  
                  l1151 0750                    l1152 075E                    l1144 070B                    l1153 0769  
                  l1145 0719                    l1154 0770                    l1146 075F                    l1147 0731  
                  l1148 0725                    l1149 0736                    l3200 0750                    l3130 0F61  
                  l3210 0770                    l3202 0757                    l3140 07A9                    l3132 0771  
                  l3204 075F                    l3300 00DD                    l3220 001E                    l3212 0013  
                  l3142 07BB                    l3134 0784                    l3150 0FBA                    l3206 0763  
                  l3310 00FB                    l3302 00E6                    l3230 002B                    l3222 001F  
                  l3214 0016                    l3144 07D6                    l3136 078A                    l3160 0FE1  
                  l3152 0FBE                    l3208 0769                    l3400 027C                    l3320 0118  
                  l3312 0104                    l3304 00EA                    l3240 0037                    l3232 002C  
                  l3224 0023                    l3216 001A                    l3138 079C                    l3170 0FFF  
                  l3162 0FE7                    l3154 0FC5                    l3146 0FB0                    l3410 02AE  
                  l3402 028B                    l3330 0144                    l3322 0120                    l3314 0108  
                  l3306 00EE                    l3250 003F                    l3242 0039                    l3234 002D  
                  l3226 0025                    l3218 001C                    l3164 0FE9                    l3156 0FCA  
                  l3148 0FB4                    l3180 0714                    l3172 06FB                    l3500 0478  
                  l3420 02DB                    l3412 02B7                    l3404 0293                    l3340 015E  
                  l3332 0148                    l3324 0131                    l3308 00F4                    l3316 010C  
                  l3260 0067                    l3252 0043                    l3244 003C                    l3236 0033  
                  l3228 0029                    l3166 0FF0                    l3158 0FD0                    l3190 072C  
                  l3182 0719                    l3174 0702                    l3510 04A3                    l3502 047C  
                  l3430 0301                    l3414 02C0                    l3422 02E8                    l3406 029C  
                  l3350 0184                    l3342 0166                    l3334 014C                    l3326 0134  
                  l3318 0112                    l3270 007D                    l3262 006B                    l3254 0044  
                  l3246 003D                    l3238 0035                    l3168 0FF8                    l3192 0731  
                  l3184 071B                    l3176 070B                    l3600 06D7                    l3520 0519  
                  l3512 04AB                    l3504 0485                    l3440 034A                    l3432 0318  
                  l3424 02F8                    l3416 02C9                    l3408 02A5                    l3360 01B6  
                  l3352 019A                    l3344 016A                    l3336 014F                    l3328 013B  
                  l3280 00A3                    l3272 0084                    l3264 0072                    l3256 004A  
                  l3248 003E                    l3194 0737                    l3186 0721                    l3178 070F  
                  l3602 06DC                    l3522 0532                    l3530 0565                    l3514 04B4  
                  l3506 048D                    l3450 036E                    l3442 034B                    l3434 031C  
                  l3426 02F9                    l3418 02D2                    l3370 01D2                    l3362 01BA  
                  l3354 01A1                    l3346 0174                    l3338 0158                    l3290 00BF  
                  l3282 00A9                    l3274 008B                    l3266 0076                    l3258 0063  
                  l3196 0748                    l3188 0725                    l3604 06EC                    l3540 05A9  
                  l3532 0577                    l3524 053B                    l3508 049A                    l3516 04C4  
                  l3460 03A7                    l3444 0352                    l3452 0375                    l3428 0300  
                  l3436 0323                    l3380 0221                    l3372 01E7                    l3364 01C1  
                  l3356 01AA                    l3348 017C                    l3292 00C8                    l3284 00AC  
                  l3276 009A                    l3268 0079                    l3198 074E                    l3606 06F3  
                  l3534 058F                    l3542 05B1                    l3526 0555                    l3518 04EE  
                  l3550 060F                    l3470 03DC                    l3462 03B4                    l3454 038E  
                  l3446 0353                    l3438 0342                    l3390 0250                    l3382 0235  
                  l3374 01F1                    l3366 01C9                    l3358 01B2                    l3294 00CC  
                  l3286 00AF                    l3278 009E                    l3560 0655                    l3552 0618  
                  l3544 05D5                    l3536 059F                    l3528 055D                    l3480 040E  
                  l3472 03E3                    l3464 03BC                    l3456 0396                    l3448 036A  
                  l3392 0254                    l3384 023C                    l3376 0201                    l3368 01CB  
                  l3288 00B8                    l3296 00D0                    l3570 0675                    l3562 065B  
                  l3554 062A                    l3546 05DF                    l3538 05A5                    l3490 043E  
                  l3482 0415                    l3474 03EF                    l3466 03C8                    l3458 039F  
                  l3394 025B                    l3386 0245                    l3378 0207                    l3298 00D6  
                  l3580 068E                    l3572 0678                    l3564 065E                    l3548 0600  
                  l3492 0453                    l3484 0420                    l3476 03FD                    l3468 03CF  
                  l3396 0273                    l3388 024C                    l3556 0641                    l3582 0692  
                  l3566 0662                    l3574 067C                    l3558 064C                    l3590 06B1  
                  l3494 045B                    l3486 0429                    l3478 0407                    l3398 0275  
                  l3592 06B2                    l3584 06A3                    l3576 0685                    l3568 0673  
                  l3496 0464                    l3488 0431                    l3594 06BC                    l3586 06A5  
                  l3578 068B                    l3498 046E                    l3596 06C3                    l3588 06A8  
                  l3598 06D1                    u4100 079C                    u4101 079B                    u4110 07BB  
                  u4111 07BA                    u4120 07D6                    u4200 0702                    u5000 063C  
                  u4121 07D5                    u4105 0798                    u4201 0701                    u5001 063B  
                  u4130 0FBA                    u4210 070F                    u5010 064C                    u4115 07B7  
                  u4131 0FB9                    u4211 070E                    u5011 064B                    u4220 0721  
                  u5100 06D7                    u5020 0655                    u4300 0054                    u4125 07D2  
                  u4221 0720                    u5101 06D6                    u5021 0654                    u4301 0053  
                  u4150 0FCE                    u5110 06EC                    u5030 065B                    u4310 005B  
                  u4151 0FCD                    u5111 06EB                    u5031 065A                    u4311 005A  
                  u4240 0735                    u5040 0662                    u4400 0104                    u4320 0062  
                  u4145 0FBF                    u4241 0734                    u5041 0661                    u4401 0103  
                  u4321 0061                    u4090 078A                    u4170 0FE1                    u5050 0685  
                  u4410 0112                    u4330 0099                    u4091 0789                    u4171 0FE0  
                  u4235 0726                    u5051 0684                    u4411 0111                    u4331 0098  
                  u4260 0748                    u5060 068B                    u4500 01AA                    u4420 0118  
                  u4340 00A9                    u4165 0FD1                    u4261 0747                    u5061 068A  
                  u4501 01A9                    u4421 0117                    u4341 00A8                    u4190 0FF6  
                  u5070 0692                    u4510 01C0                    u4430 0120                    u4350 00B8  
                  u4191 0FF5                    u4175 0FDD                    u4255 0738                    u5071 0691  
                  u4511 01BF                    u4431 011F                    u4351 00B7                    u4280 075D  
                  u5080 06BC                    u4600 027B                    u4520 01D1                    u4440 0144  
                  u4360 00C8                    u4185 0FEA                    u4281 075C                    u4265 0744  
                  u5081 06BB                    u4601 027A                    u4521 01D0                    u4441 0143  
                  u4361 00C7                    u4290 0763                    u5090 06D1                    u4610 0293  
                  u4530 01E7                    u4450 014C                    u4370 00D6                    u4275 0751  
                  u5091 06D0                    u4611 0292                    u4531 01E6                    u4451 014B  
                  u4371 00D5                    _PEIE 005E                    u4700 039F                    u4620 02A5  
                  u4540 01F1                    u4460 0158                    u4380 00E6                    u4701 039E  
                  u4621 02A4                    u4541 01F0                    u4461 0157                    u4381 00E5  
                  u4710 03B4                    u4630 02B7                    u4550 0201                    u4470 0166  
                  u4390 00F4                    u4711 03B3                    u4631 02B6                    u4551 0200  
                  u4471 0165                    u4391 00F3                    u4800 0420                    u4720 03C8  
                  u4640 02C9                    u4560 0221                    u4480 0184                    u4801 041F  
                  u4721 03C7                    u4641 02C8                    u4561 0220                    u4481 0183  
                  u4810 0429                    u4730 03CF                    u4650 02DB                    u4570 0235  
                  u4490 019A                    u4811 0428                    u4731 03CE                    u4651 02DA  
                  u4571 0234                    u4491 0199                    u4900 0519                    u4820 043E  
                  u4740 03E3                    u4660 02FF                    u4580 0245                    u4901 0518  
                  u4821 043D                    u4741 03E2                    u4661 02FE                    u4581 0244  
                  u4565 021D                    u4910 052A                    u4830 0453                    u4750 03EE  
                  u4670 0322                    u4590 025A                    u4911 0529                    u4831 0452  
                  u4751 03ED                    u4671 0321                    u4591 0259                    u4920 0531  
                  u4840 0464                    u4760 03F5                    u4680 0351                    u4921 0530  
                  u4905 0515                    u4841 0463                    u4761 03F4                    u4681 0350  
                  u4930 0555                    u4850 0485                    u4770 03FC                    u4690 0374  
                  u4931 0554                    u4851 0484                    u4771 03FB                    u4691 0373  
                  u4940 058F                    u4860 049A                    u4780 040E                    u4941 058E  
                  u4861 0499                    u4781 040D                    u4950 05D4                    u4870 04A3  
                  u4790 0415                    u4951 05D3                    u4935 0551                    u4871 04A2  
                  u4791 0414                    u4960 05DD                    u4880 04B4                    u4961 05DC  
                  u4945 058B                    u4881 04B3                    u4970 05FF                    u4890 04EE  
                  u4971 05FE                    u4955 05D0                    u4891 04ED                    u4980 0608  
                  u4981 0607                    u4990 062A                    u4991 0629                    u4975 05FB  
                  u4895 04EA                    u4995 0626                    _Temp 0075                    _main 0013  
                  btemp 007E                    start 0011                   ??_ISR 0076                   ?_main 0076  
       __end_of___awdiv 0771                   _ADRES 001E         ___awdiv@divisor 0047                   _T1CON 0010  
       __end_of___lwdiv 1000                   i1l982 0FA2                   i1l983 0FA1                   i1l984 0FA3  
       ___awdiv@counter 004C                   _TMR1H 000F                   _TMR1L 000E                   _PORTA 0005  
                 _PORTB 0006                   _PORTC 0007                   _TRISA 0085                   _TRISB 0086  
                 _TRISC 0087                   _TMain 0057                   _MainT 0771                   main@i 0056  
                 pclath 000A                   status 0003                   wtemp0 007E            __end_of_main 06FB  
                ??_main 0050                  ?_MainT 0076                  _ADCON0 001F                  _ADCON1 009F  
      ___awdiv@dividend 0049                  _ANSELA 0185                  _ANSELB 0186                  i1l2650 0F79  
                i1l2652 0F7A                  i1l2660 0FA2                  i1l2644 0F68                  i1l2654 0F7B  
                i1l2646 0F6F                  i1l2656 0F86                  i1l2648 0F75                  i1l2658 0F95  
                u307_20 0F6F                  u307_21 0F6E                  u308_20 0F75                  u308_21 0F74  
                u309_20 0F95                  u309_21 0F94                  _OSCCON 0090                  _TMR1IE 0460  
                _TMR1IF 0060                  _VarCDS 002F                  _VarLED 0040                  _VarPIR 00A0  
                _Buzzer 0020                  _Timer1 0025               ??___awdiv 004B               ??___lwdiv 004B  
      ___awdiv@quotient 004E                  clrloop 07F7                  saved_w 007E           __end_of_MainT 07E0  
        __pcstackCOMMON 0076                 ??_MainT 0047              __pbssBANK0 0020              __pbssBANK1 00A0  
            __pmaintext 0013              __pintentry 0004   __end_of_MainT_Initial 0F68                 _Lights2 0023  
               _VarTemp 0070                 ___awdiv 06FB                 ___lwdiv 0FB0            __size_of_ISR 0048  
  end_of_initialization 07F3     start_initialization 07E0             __end_of_ISR 0FB0               _VarBuzzer 003B  
             _VarTimer1 0044             __pbssCOMMON 0070           __pcstackBANK0 0047               __pnvBANK0 0057  
      ___lwdiv@dividend 0049                ?___awdiv 0047               __ptext230 0000               __ptext225 06FB  
             __ptext226 0FB0               __ptext227 0771               __ptext228 0F61               __ptext229 0F68  
              ?___lwdiv 0047          __size_of_MainT 006F        ___lwdiv@quotient 004D       interrupt_function 0004  
__size_of_MainT_Initial 0007                _GO_nDONE 00F9                _VarTMain 0026                __Lights2 0035  
      __size_of___awdiv 0076        __size_of___lwdiv 0050           _MainT_Initial 0F61         ___lwdiv@divisor 0047  
       ___lwdiv@counter 004C           __size_of_main 06E8                clear_ram 07F6          ?_MainT_Initial 0076  
              intlevel1 0000  
