

HI-TECH Software PIC LITE Macro Assembler V9.83 build 10920 
                                                                                               Sat Jul 19 09:17:26 2014

HI-TECH Software Omniscient Code Generator (Lite mode) build 10920
     1  0000                     opt subtitle "HI-TECH Software Omniscient Code Generator (Lite mode) build 10920"
     2                           
     3                           opt pagewidth 120
     4                           
     5                           	opt lm
     6                           
     7                           	processor	16F723A
     8                           clrc	macro
     9                           	bcf	3,0
    10  0000                     	endm
    11                           clrz	macro
    12                           	bcf	3,2
    13  0000                     	endm
    14                           setc	macro
    15                           	bsf	3,0
    16  0000                     	endm
    17                           setz	macro
    18                           	bsf	3,2
    19  0000                     	endm
    20                           skipc	macro
    21                           	btfss	3,0
    22  0000                     	endm
    23                           skipz	macro
    24                           	btfss	3,2
    25  0000                     	endm
    26                           skipnc	macro
    27                           	btfsc	3,0
    28  0000                     	endm
    29                           skipnz	macro
    30                           	btfsc	3,2
    31  0000                     	endm
    32  0000                     indf	equ	0
    33  0000                     indf0	equ	0
    34  0002                     pc	equ	2
    35  0002                     pcl	equ	2
    36  0003                     status	equ	3
    37  0004                     fsr	equ	4
    38  0004                     fsr0	equ	4
    39  0001                     c	equ	1
    40  0000                     z	equ	0
    41  000A                     pclath	equ	10
    42                           # 113 "E:\PIC\4.PIR_Dimmer\Release\PIR-Ceiling-PV02-3(20140517).c"
    43                           	psect config,class=CONFIG,delta=2 ;#
    44                           # 113 "E:\PIC\4.PIR_Dimmer\Release\PIR-Ceiling-PV02-3(20140517).c"
    45  2007  FFF4               	dw 0xFFFC & 0xFFF7 & 0xFFFF ;#
    46                           # 114 "E:\PIC\4.PIR_Dimmer\Release\PIR-Ceiling-PV02-3(20140517).c"
    47                           	psect config,class=CONFIG,delta=2 ;#
    48                           # 114 "E:\PIC\4.PIR_Dimmer\Release\PIR-Ceiling-PV02-3(20140517).c"
    49  2008  FFFF               	dw 0xFFFF ;#
    50                           	FNCALL	_main,_MainT_Initial
    51                           	FNCALL	_main,_MainT
    52                           	FNCALL	_main,___awdiv
    53                           	FNCALL	_main,___lwdiv
    54                           	FNROOT	_main
    55                           	FNCALL	intlevel1,_ISR
    56                           	global	intlevel1
    57                           	FNROOT	intlevel1
    58                           	global	_CDS
    59                           	global	_Dimmer
    60                           	global	_LED
    61                           	global	_PIR
    62                           	global	_Temp
    63                           	global	_Timer1
    64                           	global	_VarDimmer
    65                           	global	_VarTMain
    66                           	global	_VarCDS
    67                           	global	_VarTemp
    68                           	global	_VarLED
    69                           	global	_VarTimer1
    70                           	global	_VarPIR
    71                           	global	_TMain
    72                           psect	nvBANK0,class=BANK0,space=1
    73                           global __pnvBANK0
    74  0061                     __pnvBANK0:
    75  0061                     _TMain:
    76  0061                            ds      1
    77                           
    78                           	global	_ADCON0
    79  001F                     _ADCON0	set	31
    80                           	global	_ADRES
    81  001E                     _ADRES	set	30
    82                           	global	_PORTA
    83  0005                     _PORTA	set	5
    84                           	global	_PORTB
    85  0006                     _PORTB	set	6
    86                           	global	_PORTC
    87  0007                     _PORTC	set	7
    88                           	global	_T1CON
    89  0010                     _T1CON	set	16
    90                           	global	_TMR1H
    91  000F                     _TMR1H	set	15
    92                           	global	_TMR1L
    93  000E                     _TMR1L	set	14
    94                           	global	_GIE
    95  005F                     _GIE	set	95
    96                           	global	_GO_nDONE
    97  00F9                     _GO_nDONE	set	249
    98                           	global	_PEIE
    99  005E                     _PEIE	set	94
   100                           	global	_RA7
   101  002F                     _RA7	set	47
   102                           	global	_RB2
   103  0032                     _RB2	set	50
   104                           	global	_RB3
   105  0033                     _RB3	set	51
   106                           	global	_RB4
   107  0034                     _RB4	set	52
   108                           	global	_RB5
   109  0035                     _RB5	set	53
   110                           	global	_TMR1IF
   111  0060                     _TMR1IF	set	96
   112                           	global	_ADCON1
   113  009F                     _ADCON1	set	159
   114                           	global	_OSCCON
   115  0090                     _OSCCON	set	144
   116                           	global	_TRISA
   117  0085                     _TRISA	set	133
   118                           	global	_TRISB
   119  0086                     _TRISB	set	134
   120                           	global	_TRISC
   121  0087                     _TRISC	set	135
   122                           	global	_TMR1IE
   123  0460                     _TMR1IE	set	1120
   124                           	global	_ANSELA
   125  0185                     _ANSELA	set	389
   126                           	global	_ANSELB
   127  0186                     _ANSELB	set	390
   128                           	file	"PIR_Dimmer.as"
   129                           	line	#
   130                           psect cinit,class=CODE,delta=2
   131                           global start_initialization
   132  07E7                     start_initialization:
   133                           
   134                           psect	bssBANK0,class=BANK0,space=1
   135                           global __pbssBANK0
   136  0020                     __pbssBANK0:
   137  0020                     _CDS:
   138  0020                            ds      1
   139                           
   140  0021                     _Dimmer:
   141  0021                            ds      1
   142                           
   143  0022                     _LED:
   144  0022                            ds      1
   145                           
   146  0023                     _PIR:
   147  0023                            ds      1
   148                           
   149  0024                     _Temp:
   150  0024                            ds      1
   151                           
   152  0025                     _Timer1:
   153  0025                            ds      1
   154                           
   155  0026                     _VarDimmer:
   156  0026                            ds      17
   157                           
   158  0037                     _VarTMain:
   159  0037                            ds      9
   160                           
   161  0040                     _VarCDS:
   162  0040                            ds      6
   163                           
   164  0046                     _VarTemp:
   165  0046                            ds      5
   166                           
   167  004B                     _VarLED:
   168  004B                            ds      4
   169                           
   170  004F                     _VarTimer1:
   171  004F                            ds      3
   172                           
   173                           psect	bssBANK1,class=BANK1,space=1
   174                           global __pbssBANK1
   175  00A0                     __pbssBANK1:
   176  00A0                     _VarPIR:
   177  00A0                            ds      47
   178                           
   179                           psect clrtext,class=CODE,delta=2
   180                           global clear_ram
   181                           ;	Called with FSR containing the base address, and
   182                           ;	W with the last address+1
   183  07F7                     clear_ram:
   184  07F7  0064               	clrwdt			;clear the watchdog before getting into this loop
   185  07F8                     clrloop:
   186  07F8  0180               	clrf	indf		;clear RAM location pointed to by FSR
   187  07F9  0A84               	incf	fsr,f		;increment pointer
   188  07FA  0604               	xorwf	fsr,w		;XOR with final address
   189  07FB  1903               	btfsc	status,2	;have we reached the end yet?
   190  07FC  3400               	retlw	0		;all done for this memory range, return
   191  07FD  0604               	xorwf	fsr,w		;XOR again to restore value
   192  07FE  2FF8               	goto	clrloop		;do the next byte
   193                           
   194                           ; Clear objects allocated to BANK0
   195                           psect cinit,class=CODE,delta=2
   196  07E7  1383               	bcf	status, 7	;select IRP bank0
   197  07E8  3020               	movlw	low(__pbssBANK0)
   198  07E9  0084               	movwf	fsr
   199  07EA  3052               	movlw	low((__pbssBANK0)+032h)
   200  07EB  118A  27F7  118A   	fcall	clear_ram
   201                           ; Clear objects allocated to BANK1
   202                           psect cinit,class=CODE,delta=2
   203  07EE  30A0               	movlw	low(__pbssBANK1)
   204  07EF  0084               	movwf	fsr
   205  07F0  30CF               	movlw	low((__pbssBANK1)+02Fh)
   206  07F1  118A  27F7  118A   	fcall	clear_ram
   207                           psect cinit,class=CODE,delta=2
   208                           global end_of_initialization
   209                           
   210                           ;End of C runtime variable initialization code
   211                           
   212  07F4                     end_of_initialization:
   213  07F4  0183               clrf status
   214  07F5  118A  2813         ljmp _main	;jump to C main() function
   215                           psect	cstackCOMMON,class=COMMON,space=1
   216                           global __pcstackCOMMON
   217  0070                     __pcstackCOMMON:
   218                           	global	?_MainT_Initial
   219  0070                     ?_MainT_Initial:	; 0 bytes @ 0x0
   220                           	global	?_MainT
   221  0070                     ?_MainT:	; 0 bytes @ 0x0
   222                           	global	?_main
   223  0070                     ?_main:	; 0 bytes @ 0x0
   224                           	global	?_ISR
   225  0070                     ?_ISR:	; 0 bytes @ 0x0
   226                           	global	??_ISR
   227  0070                     ??_ISR:	; 0 bytes @ 0x0
   228  0070                     	ds	6
   229                           	global	??_MainT_Initial
   230  0076                     ??_MainT_Initial:	; 0 bytes @ 0x6
   231                           	global	??_MainT
   232  0076                     ??_MainT:	; 0 bytes @ 0x6
   233                           	global	??___lwdiv
   234  0076                     ??___lwdiv:	; 0 bytes @ 0x6
   235                           	global	??___awdiv
   236  0076                     ??___awdiv:	; 0 bytes @ 0x6
   237  0076                     	ds	2
   238                           psect	cstackBANK0,class=BANK0,space=1
   239                           global __pcstackBANK0
   240  0052                     __pcstackBANK0:
   241                           	global	?___lwdiv
   242  0052                     ?___lwdiv:	; 2 bytes @ 0x0
   243                           	global	?___awdiv
   244  0052                     ?___awdiv:	; 2 bytes @ 0x0
   245                           	global	___lwdiv@divisor
   246  0052                     ___lwdiv@divisor:	; 2 bytes @ 0x0
   247                           	global	___awdiv@divisor
   248  0052                     ___awdiv@divisor:	; 2 bytes @ 0x0
   249  0052                     	ds	2
   250                           	global	___lwdiv@dividend
   251  0054                     ___lwdiv@dividend:	; 2 bytes @ 0x2
   252                           	global	___awdiv@dividend
   253  0054                     ___awdiv@dividend:	; 2 bytes @ 0x2
   254  0054                     	ds	2
   255                           	global	___awdiv@counter
   256  0056                     ___awdiv@counter:	; 1 bytes @ 0x4
   257                           	global	___lwdiv@quotient
   258  0056                     ___lwdiv@quotient:	; 2 bytes @ 0x4
   259  0056                     	ds	1
   260                           	global	___awdiv@sign
   261  0057                     ___awdiv@sign:	; 1 bytes @ 0x5
   262  0057                     	ds	1
   263                           	global	___lwdiv@counter
   264  0058                     ___lwdiv@counter:	; 1 bytes @ 0x6
   265                           	global	___awdiv@quotient
   266  0058                     ___awdiv@quotient:	; 2 bytes @ 0x6
   267  0058                     	ds	2
   268                           	global	??_main
   269  005A                     ??_main:	; 0 bytes @ 0x8
   270  005A                     	ds	6
   271                           	global	main@i
   272  0060                     main@i:	; 1 bytes @ 0xE
   273  0060                     	ds	1
   274 ;;Data sizes: Strings 0, constant 0, data 0, bss 97, persistent 1 stack 0
   275 ;;Auto spaces:   Size  Autos    Used
   276 ;; COMMON          14      8       8
   277 ;; BANK0           80     15      66
   278 ;; BANK1           80      0      47
   279 ;; BANK2           16      0       0
   280                           
   281 ;;
   282 ;; Pointer list with targets:
   283                           
   284 ;; ?___lwdiv	unsigned int  size(1) Largest target is 0
   285 ;;
   286 ;; ?___awdiv	int  size(1) Largest target is 0
   287 ;;
   288 ;; TMain	PTR struct TMain size(1) Largest target is 9
   289 ;;		 -> NULL(NULL[0]), VarTMain(BANK0[9]), 
   290 ;;
   291 ;; PIR	PTR struct PIR size(1) Largest target is 47
   292 ;;		 -> NULL(NULL[0]), VarPIR(BANK1[47]), 
   293 ;;
   294 ;; CDS	PTR struct CDS size(1) Largest target is 6
   295 ;;		 -> NULL(NULL[0]), VarCDS(BANK0[6]), 
   296 ;;
   297 ;; Temp	PTR struct Temp size(1) Largest target is 5
   298 ;;		 -> NULL(NULL[0]), VarTemp(BANK0[5]), 
   299 ;;
   300 ;; LED	PTR struct LED size(1) Largest target is 4
   301 ;;		 -> NULL(NULL[0]), VarLED(BANK0[4]), 
   302 ;;
   303 ;; Dimmer	PTR struct Dimmer size(1) Largest target is 17
   304 ;;		 -> NULL(NULL[0]), VarDimmer(BANK0[17]), 
   305 ;;
   306 ;; Timer1	PTR struct Timer1 size(1) Largest target is 3
   307 ;;		 -> NULL(NULL[0]), VarTimer1(BANK0[3]), 
   308 ;;
   309                           
   310                           
   311 ;;
   312 ;; Critical Paths under _main in COMMON
   313 ;;
   314 ;;   _main->_MainT
   315 ;;
   316 ;; Critical Paths under _ISR in COMMON
   317 ;;
   318 ;;   None.
   319 ;;
   320 ;; Critical Paths under _main in BANK0
   321 ;;
   322 ;;   _main->___awdiv
   323 ;;
   324 ;; Critical Paths under _ISR in BANK0
   325 ;;
   326 ;;   None.
   327 ;;
   328 ;; Critical Paths under _main in BANK1
   329 ;;
   330 ;;   None.
   331 ;;
   332 ;; Critical Paths under _ISR in BANK1
   333 ;;
   334 ;;   None.
   335 ;;
   336 ;; Critical Paths under _main in BANK2
   337 ;;
   338 ;;   None.
   339 ;;
   340 ;; Critical Paths under _ISR in BANK2
   341 ;;
   342 ;;   None.
   343                           
   344 ;;
   345 ;;Main: autosize = 0, tempsize = 6, incstack = 0, save=0
   346 ;;
   347                           
   348 ;;
   349 ;;Call Graph Tables:
   350 ;;
   351 ;; ---------------------------------------------------------------------------------
   352 ;; (Depth) Function   	        Calls       Base Space   Used Autos Params    Refs
   353 ;; ---------------------------------------------------------------------------------
   354 ;; (0) _main                                                 7     7      0     598
   355 ;;                                              8 BANK0      7     7      0
   356 ;;                      _MainT_Initial
   357 ;;                              _MainT
   358 ;;                            ___awdiv
   359 ;;                            ___lwdiv
   360 ;; ---------------------------------------------------------------------------------
   361 ;; (1) ___awdiv                                              9     5      4     300
   362 ;;                                              6 COMMON     1     1      0
   363 ;;                                              0 BANK0      8     4      4
   364 ;; ---------------------------------------------------------------------------------
   365 ;; (1) ___lwdiv                                              8     4      4     162
   366 ;;                                              6 COMMON     1     1      0
   367 ;;                                              0 BANK0      7     3      4
   368 ;; ---------------------------------------------------------------------------------
   369 ;; (1) _MainT                                                2     2      0       0
   370 ;;                                              6 COMMON     2     2      0
   371 ;; ---------------------------------------------------------------------------------
   372 ;; (1) _MainT_Initial                                        1     1      0       0
   373 ;;                                              6 COMMON     1     1      0
   374 ;; ---------------------------------------------------------------------------------
   375 ;; Estimated maximum stack depth 1
   376 ;; ---------------------------------------------------------------------------------
   377 ;; (Depth) Function   	        Calls       Base Space   Used Autos Params    Refs
   378 ;; ---------------------------------------------------------------------------------
   379 ;; (2) _ISR                                                  6     6      0       0
   380 ;;                                              0 COMMON     6     6      0
   381 ;; ---------------------------------------------------------------------------------
   382 ;; Estimated maximum stack depth 2
   383 ;; ---------------------------------------------------------------------------------
   384                           
   385 ;; Call Graph Graphs:
   386                           
   387 ;; _main (ROOT)
   388 ;;   _MainT_Initial
   389 ;;   _MainT
   390 ;;   ___awdiv
   391 ;;   ___lwdiv
   392 ;;
   393 ;; _ISR (ROOT)
   394 ;;
   395                           
   396 ;; Address spaces:
   397                           
   398 ;;Name               Size   Autos  Total    Cost      Usage
   399 ;;BITCOMMON            E      0       0       0        0.0%
   400 ;;NULL                 0      0       0       0        0.0%
   401 ;;CODE                 0      0       0       0        0.0%
   402 ;;COMMON               E      8       8       1       57.1%
   403 ;;BITSFR0              0      0       0       1        0.0%
   404 ;;SFR0                 0      0       0       1        0.0%
   405 ;;BITSFR1              0      0       0       2        0.0%
   406 ;;SFR1                 0      0       0       2        0.0%
   407 ;;STACK                0      0       1       2        0.0%
   408 ;;ABS                  0      0      79       3        0.0%
   409 ;;BITBANK0            50      0       0       4        0.0%
   410 ;;BITSFR3              0      0       0       4        0.0%
   411 ;;SFR3                 0      0       0       4        0.0%
   412 ;;BANK0               50      F      42       5       82.5%
   413 ;;BITSFR2              0      0       0       5        0.0%
   414 ;;SFR2                 0      0       0       5        0.0%
   415 ;;BITBANK1            50      0       0       6        0.0%
   416 ;;BANK1               50      0      2F       7       58.8%
   417 ;;BITBANK2            10      0       0       8        0.0%
   418 ;;BANK2               10      0       0       9        0.0%
   419 ;;DATA                 0      0      7A      10        0.0%
   420                           
   421                           	global	_main
   422                           psect	maintext,global,class=CODE,delta=2
   423                           global __pmaintext
   424  0013                     __pmaintext:
   425                           
   426 ;; *************** function _main *****************
   427 ;; Defined at:
   428 ;;		line 138 in file "E:\PIC\4.PIR_Dimmer\Release\PIR-Ceiling-PV02-3(20140517).c"
   429 ;; Parameters:    Size  Location     Type
   430 ;;		None
   431 ;; Auto vars:     Size  Location     Type
   432 ;;  i               1   14[BANK0 ] unsigned char 
   433 ;; Return value:  Size  Location     Type
   434 ;;		None               void
   435 ;; Registers used:
   436 ;;		wreg, fsr0l, fsr0h, status,2, status,0, btemp+1, pclath, cstack
   437 ;; Tracked objects:
   438 ;;		On entry : 17F/0
   439 ;;		On exit  : 0/0
   440 ;;		Unchanged: 0/0
   441 ;; Data sizes:     COMMON   BANK0   BANK1   BANK2
   442 ;;      Params:         0       0       0       0
   443 ;;      Locals:         0       1       0       0
   444 ;;      Temps:          0       6       0       0
   445 ;;      Totals:         0       7       0       0
   446 ;;Total ram usage:        7 bytes
   447 ;; Hardware stack levels required when called:    2
   448 ;; This function calls:
   449 ;;		_MainT_Initial
   450 ;;		_MainT
   451 ;;		___awdiv
   452 ;;		___lwdiv
   453 ;; This function is called by:
   454 ;;		Startup code after reset
   455 ;; This function uses a non-reentrant model
   456 ;;
   457                           psect	maintext
   458                           	file	"E:\PIC\4.PIR_Dimmer\Release\PIR-Ceiling-PV02-3(20140517).c"
   459                           	line	138
   460                           	global	__size_of_main
   461  0784                     	__size_of_main	equ	__end_of_main-_main
   462                           	
   463  0013                     _main:	
   464                           	opt	stack 6
   465                           ; Regs used in _main: [wreg-fsr0h+status,2+status,0+btemp+1+pclath+cstack]
   466                           	line	140
   467                           	
   468  0013                     l2864:	
   469                           ;PIR-Ceiling-PV02-3(20140517).c: 139: char i;
   470                           ;PIR-Ceiling-PV02-3(20140517).c: 140: MainT_Initial();
   471  0013  158A  25D4  118A   	fcall	_MainT_Initial
   472                           	line	141
   473                           	
   474  0016                     l2866:	
   475                           ;PIR-Ceiling-PV02-3(20140517).c: 141: ; OSCCON=0x3c; ; ; TRISA=0b10101111;; TRISB=0b0000
                                 0001;; TRISC=0b00000000;; ANSELA=0b00000111;; ANSELB=0b00000001;; PORTA=0b10101111;; POR
                                 TB=0b00000001;; PORTC=0b00000000; ; ; _nop(); ; ; Timer1=&VarTimer1; T1CON=(0x40 | 0x00 
                                 | 0x01); TMR1H=((65536-5
   476  0016  303C               	movlw	(03Ch)
   477  0017  1683               	bsf	status, 5	;RP0=1, select bank1
   478  0018  1303               	bcf	status, 6	;RP1=0, select bank1
   479  0019  0090               	movwf	(144)^080h	;volatile
   480                           	
   481  001A                     l2868:	
   482  001A  30AF               	movlw	(0AFh)
   483  001B  0085               	movwf	(133)^080h	;volatile
   484                           	
   485  001C                     l2870:	
   486  001C  3001               	movlw	(01h)
   487  001D  0086               	movwf	(134)^080h	;volatile
   488                           	
   489  001E                     l2872:	
   490  001E  0187               	clrf	(135)^080h	;volatile
   491                           	
   492  001F                     l2874:	
   493  001F  3007               	movlw	(07h)
   494  0020  1683               	bsf	status, 5	;RP0=1, select bank3
   495  0021  1703               	bsf	status, 6	;RP1=1, select bank3
   496  0022  0085               	movwf	(389)^0180h	;volatile
   497                           	
   498  0023                     l2876:	
   499  0023  3001               	movlw	(01h)
   500  0024  0086               	movwf	(390)^0180h	;volatile
   501                           	
   502  0025                     l2878:	
   503  0025  30AF               	movlw	(0AFh)
   504  0026  1283               	bcf	status, 5	;RP0=0, select bank0
   505  0027  1303               	bcf	status, 6	;RP1=0, select bank0
   506  0028  0085               	movwf	(5)	;volatile
   507                           	
   508  0029                     l2880:	
   509  0029  3001               	movlw	(01h)
   510  002A  0086               	movwf	(6)	;volatile
   511                           	
   512  002B                     l2882:	
   513  002B  0187               	clrf	(7)	;volatile
   514                           	
   515  002C                     l2884:	
   516  002C  0000               	nop
   517                           	
   518  002D                     l2886:	
   519  002D  304F               	movlw	(_VarTimer1)&0ffh
   520  002E  1283               	bcf	status, 5	;RP0=0, select bank0
   521  002F  1303               	bcf	status, 6	;RP1=0, select bank0
   522  0030  00DA               	movwf	(??_main+0)+0
   523  0031  085A               	movf	(??_main+0)+0,w
   524  0032  00A5               	movwf	(_Timer1)
   525                           	
   526  0033                     l2888:	
   527  0033  3041               	movlw	(041h)
   528  0034  0090               	movwf	(16)	;volatile
   529                           	
   530  0035                     l2890:	
   531  0035  30FD               	movlw	(0FDh)
   532  0036  008F               	movwf	(15)	;volatile
   533                           	
   534  0037                     l2892:	
   535  0037  30DA               	movlw	(0DAh)
   536  0038  008E               	movwf	(14)	;volatile
   537                           	
   538  0039                     l2894:	
   539  0039  1683               	bsf	status, 5	;RP0=1, select bank1
   540  003A  1303               	bcf	status, 6	;RP1=0, select bank1
   541  003B  140C               	bsf	(1120/8)^080h,(1120)&7
   542                           	
   543  003C                     l2896:	
   544  003C  170B               	bsf	(94/8),(94)&7
   545                           	
   546  003D                     l2898:	
   547  003D  178B               	bsf	(95/8),(95)&7
   548                           	
   549  003E                     l2900:	
   550  003E  0000               	nop
   551                           	
   552  003F                     l2902:	
   553  003F  3070               	movlw	(070h)
   554  0040  1683               	bsf	status, 5	;RP0=1, select bank1
   555  0041  1303               	bcf	status, 6	;RP1=0, select bank1
   556  0042  009F               	movwf	(159)^080h	;volatile
   557                           	
   558  0043                     l2904:	
   559  0043  0000               	nop
   560                           	line	142
   561                           	
   562  0044                     l2906:	
   563                           ;PIR-Ceiling-PV02-3(20140517).c: 142: Dimmer=&VarDimmer; Dimmer->StartValue = ((int)(10*
                                 1.85)); Dimmer->StopValue = ((int)(95*1.85)); Dimmer->DimmingValue = Dimmer->StopValue; 
                                 Dimmer->Enable=1;;
   564  0044  3026               	movlw	(_VarDimmer)&0ffh
   565  0045  1283               	bcf	status, 5	;RP0=0, select bank0
   566  0046  1303               	bcf	status, 6	;RP1=0, select bank0
   567  0047  00DA               	movwf	(??_main+0)+0
   568  0048  085A               	movf	(??_main+0)+0,w
   569  0049  00A1               	movwf	(_Dimmer)
   570                           	
   571  004A                     l2908:	
   572  004A  3012               	movlw	(012h)
   573  004B  00DA               	movwf	(??_main+0)+0
   574  004C  0821               	movf	(_Dimmer),w
   575  004D  3E0E               	addlw	0Eh
   576  004E  0084               	movwf	fsr0
   577  004F  085A               	movf	(??_main+0)+0,w
   578  0050  1383               	bcf	status, 7	;select IRP bank0
   579  0051  0080               	movwf	indf
   580                           	
   581  0052                     l2910:	
   582  0052  30AF               	movlw	(0AFh)
   583  0053  00DA               	movwf	(??_main+0)+0
   584  0054  0821               	movf	(_Dimmer),w
   585  0055  3E0F               	addlw	0Fh
   586  0056  0084               	movwf	fsr0
   587  0057  085A               	movf	(??_main+0)+0,w
   588  0058  0080               	movwf	indf
   589                           	
   590  0059                     l2912:	
   591  0059  0821               	movf	(_Dimmer),w
   592  005A  3E0F               	addlw	0Fh
   593  005B  0084               	movwf	fsr0
   594  005C  0800               	movf	indf,w
   595  005D  00DA               	movwf	(??_main+0)+0
   596  005E  0821               	movf	(_Dimmer),w
   597  005F  3E08               	addlw	08h
   598  0060  0084               	movwf	fsr0
   599  0061  085A               	movf	(??_main+0)+0,w
   600  0062  0080               	movwf	indf
   601                           	
   602  0063                     l2914:	
   603  0063  0821               	movf	(_Dimmer),w
   604  0064  0084               	movwf	fsr0
   605  0065  1400               	bsf	indf,0
   606                           	line	143
   607                           	
   608  0066                     l2916:	
   609                           ;PIR-Ceiling-PV02-3(20140517).c: 143: LED=&VarLED; LED->Enable=1; while(RB5==0) RB5 = 1;
                                  while(RB4==0) RB4 = 1; while(RB3==0) RB3 = 1;
   610  0066  304B               	movlw	(_VarLED)&0ffh
   611  0067  00DA               	movwf	(??_main+0)+0
   612  0068  085A               	movf	(??_main+0)+0,w
   613  0069  00A2               	movwf	(_LED)
   614                           	
   615  006A                     l2918:	
   616  006A  0822               	movf	(_LED),w
   617  006B  0084               	movwf	fsr0
   618  006C  1400               	bsf	indf,0
   619  006D  286F               	goto	l837
   620                           	
   621  006E                     l838:	
   622  006E  1686               	bsf	(53/8),(53)&7
   623                           	
   624  006F                     l837:	
   625  006F  1E86               	btfss	(53/8),(53)&7
   626  0070  2872               	goto	u3631
   627  0071  2873               	goto	u3630
   628  0072                     u3631:
   629  0072  286E               	goto	l838
   630  0073                     u3630:
   631  0073  2876               	goto	l840
   632                           	
   633  0074                     l839:	
   634  0074  2876               	goto	l840
   635                           	
   636  0075                     l841:	
   637  0075  1606               	bsf	(52/8),(52)&7
   638                           	
   639  0076                     l840:	
   640  0076  1E06               	btfss	(52/8),(52)&7
   641  0077  2879               	goto	u3641
   642  0078  287A               	goto	u3640
   643  0079                     u3641:
   644  0079  2875               	goto	l841
   645  007A                     u3640:
   646  007A  287D               	goto	l843
   647                           	
   648  007B                     l842:	
   649  007B  287D               	goto	l843
   650                           	
   651  007C                     l844:	
   652  007C  1586               	bsf	(51/8),(51)&7
   653                           	
   654  007D                     l843:	
   655  007D  1D86               	btfss	(51/8),(51)&7
   656  007E  2880               	goto	u3651
   657  007F  2881               	goto	u3650
   658  0080                     u3651:
   659  0080  287C               	goto	l844
   660  0081                     u3650:
   661  0081  2882               	goto	l2920
   662                           	
   663  0082                     l845:	
   664                           	line	144
   665                           	
   666  0082                     l2920:	
   667                           ;PIR-Ceiling-PV02-3(20140517).c: 144: Temp=&VarTemp; Temp->Enable=1;
   668  0082  3046               	movlw	(_VarTemp)&0ffh
   669  0083  00DA               	movwf	(??_main+0)+0
   670  0084  085A               	movf	(??_main+0)+0,w
   671  0085  00A4               	movwf	(_Temp)
   672                           	
   673  0086                     l2922:	
   674  0086  0824               	movf	(_Temp),w
   675  0087  0084               	movwf	fsr0
   676  0088  1383               	bcf	status, 7	;select IRP bank0
   677  0089  1400               	bsf	indf,0
   678                           	line	145
   679                           	
   680  008A                     l2924:	
   681                           ;PIR-Ceiling-PV02-3(20140517).c: 145: CDS = &VarCDS; CDS->Enable=1;
   682  008A  3040               	movlw	(_VarCDS)&0ffh
   683  008B  00DA               	movwf	(??_main+0)+0
   684  008C  085A               	movf	(??_main+0)+0,w
   685  008D  00A0               	movwf	(_CDS)
   686  008E  0820               	movf	(_CDS),w
   687  008F  0084               	movwf	fsr0
   688  0090  1400               	bsf	indf,0
   689                           	line	146
   690                           	
   691  0091                     l2926:	
   692                           ;PIR-Ceiling-PV02-3(20140517).c: 146: PIR=&VarPIR; PIR->Enable=1; PIR->Switch=1; PIR->Ra
                                 ngeValue=25; PIR->Trigger=2; PIR->CloseTimeValue=100; while(RB4==0) RB4 = 1; RB5 = 0;
   693  0091  30A0               	movlw	(_VarPIR)&0ffh
   694  0092  00DA               	movwf	(??_main+0)+0
   695  0093  085A               	movf	(??_main+0)+0,w
   696  0094  00A3               	movwf	(_PIR)
   697                           	
   698  0095                     l2928:	
   699  0095  0823               	movf	(_PIR),w
   700  0096  0084               	movwf	fsr0
   701  0097  1400               	bsf	indf,0
   702                           	
   703  0098                     l2930:	
   704  0098  0823               	movf	(_PIR),w
   705  0099  3E20               	addlw	020h
   706  009A  0084               	movwf	fsr0
   707  009B  1500               	bsf	indf,2
   708                           	
   709  009C                     l2932:	
   710  009C  3019               	movlw	(019h)
   711  009D  00DA               	movwf	(??_main+0)+0
   712  009E  0823               	movf	(_PIR),w
   713  009F  3E2C               	addlw	02Ch
   714  00A0  0084               	movwf	fsr0
   715  00A1  085A               	movf	(??_main+0)+0,w
   716  00A2  0080               	movwf	indf
   717                           	
   718  00A3                     l2934:	
   719  00A3  3002               	movlw	(02h)
   720  00A4  00DA               	movwf	(??_main+0)+0
   721  00A5  0823               	movf	(_PIR),w
   722  00A6  3E23               	addlw	023h
   723  00A7  0084               	movwf	fsr0
   724  00A8  085A               	movf	(??_main+0)+0,w
   725  00A9  0080               	movwf	indf
   726                           	
   727  00AA                     l2936:	
   728  00AA  0823               	movf	(_PIR),w
   729  00AB  3E26               	addlw	026h
   730  00AC  0084               	movwf	fsr0
   731  00AD  3064               	movlw	low(064h)
   732  00AE  0080               	movwf	indf
   733  00AF  0A84               	incf	fsr0,f
   734  00B0  3000               	movlw	high(064h)
   735  00B1  0080               	movwf	indf
   736  00B2  28B4               	goto	l846
   737                           	
   738  00B3                     l847:	
   739  00B3  1606               	bsf	(52/8),(52)&7
   740                           	
   741  00B4                     l846:	
   742  00B4  1E06               	btfss	(52/8),(52)&7
   743  00B5  28B7               	goto	u3661
   744  00B6  28B8               	goto	u3660
   745  00B7                     u3661:
   746  00B7  28B3               	goto	l847
   747  00B8                     u3660:
   748                           	
   749  00B8                     l848:	
   750  00B8  1286               	bcf	(53/8),(53)&7
   751  00B9  28BA               	goto	l2938
   752                           	line	148
   753                           ;PIR-Ceiling-PV02-3(20140517).c: 148: while(1)
   754                           	
   755  00BA                     l849:	
   756                           	line	156
   757                           	
   758  00BA                     l2938:	
   759                           ;PIR-Ceiling-PV02-3(20140517).c: 149: {
   760                           ;PIR-Ceiling-PV02-3(20140517).c: 156: if(TMain->T1_Timerout==1)
   761  00BA  1283               	bcf	status, 5	;RP0=0, select bank0
   762  00BB  1303               	bcf	status, 6	;RP1=0, select bank0
   763  00BC  0861               	movf	(_TMain),w
   764  00BD  0084               	movwf	fsr0
   765  00BE  1383               	bcf	status, 7	;select IRP bank0
   766  00BF  1D00               	btfss	indf,2
   767  00C0  28C2               	goto	u3671
   768  00C1  28C3               	goto	u3670
   769  00C2                     u3671:
   770  00C2  28BA               	goto	l2938
   771  00C3                     u3670:
   772                           	line	158
   773                           	
   774  00C3                     l2940:	
   775                           ;PIR-Ceiling-PV02-3(20140517).c: 157: {
   776                           ;PIR-Ceiling-PV02-3(20140517).c: 158: TMain->T1_Timerout=0;
   777  00C3  0861               	movf	(_TMain),w
   778  00C4  0084               	movwf	fsr0
   779  00C5  1100               	bcf	indf,2
   780                           	line	160
   781                           	
   782  00C6                     l2942:	
   783                           ;PIR-Ceiling-PV02-3(20140517).c: 160: MainT();
   784  00C6  158A  25DB  118A   	fcall	_MainT
   785                           	line	161
   786                           	
   787  00C9                     l2944:	
   788                           ;PIR-Ceiling-PV02-3(20140517).c: 161: if(LED->GO1==1) { LED->Time1++; if(LED->Time1 == 1
                                 50) { LED->Time1=0; RB5=~RB5; } } if(LED->GO2==1) { LED->Time2++; if(LED->Time2 == 150) 
                                 { LED->Time2=0; RB4=~RB4; } } if(LED->GO3==1) { LED->Time3++; if(LED->Time3 == 150) { LE
                                 D->Time3=0; RB3=~RB3; } 
   789  00C9  1283               	bcf	status, 5	;RP0=0, select bank0
   790  00CA  1303               	bcf	status, 6	;RP1=0, select bank0
   791  00CB  0822               	movf	(_LED),w
   792  00CC  0084               	movwf	fsr0
   793  00CD  1383               	bcf	status, 7	;select IRP bank0
   794  00CE  1C80               	btfss	indf,1
   795  00CF  28D1               	goto	u3681
   796  00D0  28D2               	goto	u3680
   797  00D1                     u3681:
   798  00D1  28EA               	goto	l2954
   799  00D2                     u3680:
   800                           	
   801  00D2                     l2946:	
   802  00D2  3001               	movlw	(01h)
   803  00D3  00DA               	movwf	(??_main+0)+0
   804  00D4  0822               	movf	(_LED),w
   805  00D5  3E01               	addlw	01h
   806  00D6  0084               	movwf	fsr0
   807  00D7  085A               	movf	(??_main+0)+0,w
   808  00D8  0780               	addwf	indf,f
   809                           	
   810  00D9                     l2948:	
   811  00D9  0822               	movf	(_LED),w
   812  00DA  3E01               	addlw	01h
   813  00DB  0084               	movwf	fsr0
   814  00DC  0800               	movf	indf,w
   815  00DD  3A96               	xorlw	096h
   816  00DE  1D03               	skipz
   817  00DF  28E1               	goto	u3691
   818  00E0  28E2               	goto	u3690
   819  00E1                     u3691:
   820  00E1  28EA               	goto	l2954
   821  00E2                     u3690:
   822                           	
   823  00E2                     l2950:	
   824  00E2  0822               	movf	(_LED),w
   825  00E3  3E01               	addlw	01h
   826  00E4  0084               	movwf	fsr0
   827  00E5  0180               	clrf	indf
   828                           	
   829  00E6                     l2952:	
   830  00E6  3020               	movlw	1<<((53)&7)
   831  00E7  0686               	xorwf	((53)/8),f
   832  00E8  28EA               	goto	l2954
   833                           	
   834  00E9                     l852:	
   835  00E9  28EA               	goto	l2954
   836                           	
   837  00EA                     l851:	
   838                           	
   839  00EA                     l2954:	
   840  00EA  0822               	movf	(_LED),w
   841  00EB  0084               	movwf	fsr0
   842  00EC  1D00               	btfss	indf,2
   843  00ED  28EF               	goto	u3701
   844  00EE  28F0               	goto	u3700
   845  00EF                     u3701:
   846  00EF  2908               	goto	l2964
   847  00F0                     u3700:
   848                           	
   849  00F0                     l2956:	
   850  00F0  3001               	movlw	(01h)
   851  00F1  00DA               	movwf	(??_main+0)+0
   852  00F2  0822               	movf	(_LED),w
   853  00F3  3E02               	addlw	02h
   854  00F4  0084               	movwf	fsr0
   855  00F5  085A               	movf	(??_main+0)+0,w
   856  00F6  0780               	addwf	indf,f
   857                           	
   858  00F7                     l2958:	
   859  00F7  0822               	movf	(_LED),w
   860  00F8  3E02               	addlw	02h
   861  00F9  0084               	movwf	fsr0
   862  00FA  0800               	movf	indf,w
   863  00FB  3A96               	xorlw	096h
   864  00FC  1D03               	skipz
   865  00FD  28FF               	goto	u3711
   866  00FE  2900               	goto	u3710
   867  00FF                     u3711:
   868  00FF  2908               	goto	l2964
   869  0100                     u3710:
   870                           	
   871  0100                     l2960:	
   872  0100  0822               	movf	(_LED),w
   873  0101  3E02               	addlw	02h
   874  0102  0084               	movwf	fsr0
   875  0103  0180               	clrf	indf
   876                           	
   877  0104                     l2962:	
   878  0104  3010               	movlw	1<<((52)&7)
   879  0105  0686               	xorwf	((52)/8),f
   880  0106  2908               	goto	l2964
   881                           	
   882  0107                     l854:	
   883  0107  2908               	goto	l2964
   884                           	
   885  0108                     l853:	
   886                           	
   887  0108                     l2964:	
   888  0108  0822               	movf	(_LED),w
   889  0109  0084               	movwf	fsr0
   890  010A  1D80               	btfss	indf,3
   891  010B  290D               	goto	u3721
   892  010C  290E               	goto	u3720
   893  010D                     u3721:
   894  010D  2926               	goto	l2974
   895  010E                     u3720:
   896                           	
   897  010E                     l2966:	
   898  010E  3001               	movlw	(01h)
   899  010F  00DA               	movwf	(??_main+0)+0
   900  0110  0822               	movf	(_LED),w
   901  0111  3E03               	addlw	03h
   902  0112  0084               	movwf	fsr0
   903  0113  085A               	movf	(??_main+0)+0,w
   904  0114  0780               	addwf	indf,f
   905                           	
   906  0115                     l2968:	
   907  0115  0822               	movf	(_LED),w
   908  0116  3E03               	addlw	03h
   909  0117  0084               	movwf	fsr0
   910  0118  0800               	movf	indf,w
   911  0119  3A96               	xorlw	096h
   912  011A  1D03               	skipz
   913  011B  291D               	goto	u3731
   914  011C  291E               	goto	u3730
   915  011D                     u3731:
   916  011D  2926               	goto	l2974
   917  011E                     u3730:
   918                           	
   919  011E                     l2970:	
   920  011E  0822               	movf	(_LED),w
   921  011F  3E03               	addlw	03h
   922  0120  0084               	movwf	fsr0
   923  0121  0180               	clrf	indf
   924                           	
   925  0122                     l2972:	
   926  0122  3008               	movlw	1<<((51)&7)
   927  0123  0686               	xorwf	((51)/8),f
   928  0124  2926               	goto	l2974
   929                           	
   930  0125                     l856:	
   931  0125  2926               	goto	l2974
   932                           	
   933  0126                     l855:	
   934                           	line	162
   935                           	
   936  0126                     l2974:	
   937                           ;PIR-Ceiling-PV02-3(20140517).c: 162: if(Temp->Enable == 1) { Temp->Time++; if(Temp->Tim
                                 e == 5000) { Temp->Time=0; ADCON1=0x70; ADCON0=0x11; GO_nDONE=1; while(GO_nDONE); Temp->
                                 AD=ADRES; ; if(Temp->ERROR == 0) { if(Temp->AD <= 102) { Temp->Count++; if(Temp->Count =
                                 = 3) { Temp->Count=0; Te
   938  0126  0824               	movf	(_Temp),w
   939  0127  0084               	movwf	fsr0
   940  0128  1C00               	btfss	indf,0
   941  0129  292B               	goto	u3741
   942  012A  292C               	goto	u3740
   943  012B                     u3741:
   944  012B  2A1C               	goto	l857
   945  012C                     u3740:
   946                           	
   947  012C                     l2976:	
   948  012C  0824               	movf	(_Temp),w
   949  012D  3E01               	addlw	01h
   950  012E  0084               	movwf	fsr0
   951  012F  3001               	movlw	01h
   952  0130  0780               	addwf	indf,f
   953  0131  0A84               	incf	fsr0,f
   954  0132  1803               	skipnc
   955  0133  0A80               	incf	indf,f
   956                           	
   957  0134                     l2978:	
   958  0134  0824               	movf	(_Temp),w
   959  0135  3E01               	addlw	01h
   960  0136  0084               	movwf	fsr0
   961  0137  0800               	movf	indf,w
   962  0138  00DA               	movwf	(??_main+0)+0+0
   963  0139  0A84               	incf	fsr0,f
   964  013A  0800               	movf	indf,w
   965  013B  00DB               	movwf	(??_main+0)+0+1
   966  013C  3013               	movlw	high(01388h)
   967  013D  065B               	xorwf	1+(??_main+0)+0,w
   968  013E  1D03               	skipz
   969  013F  2942               	goto	u3755
   970  0140  3088               	movlw	low(01388h)
   971  0141  065A               	xorwf	0+(??_main+0)+0,w
   972  0142                     u3755:
   973                           
   974  0142  1D03               	skipz
   975  0143  2945               	goto	u3751
   976  0144  2946               	goto	u3750
   977  0145                     u3751:
   978  0145  2A1C               	goto	l857
   979  0146                     u3750:
   980                           	
   981  0146                     l2980:	
   982  0146  0824               	movf	(_Temp),w
   983  0147  3E01               	addlw	01h
   984  0148  0084               	movwf	fsr0
   985  0149  3000               	movlw	low(0)
   986  014A  0080               	movwf	indf
   987  014B  0A84               	incf	fsr0,f
   988  014C  3000               	movlw	high(0)
   989  014D  0080               	movwf	indf
   990                           	
   991  014E                     l2982:	
   992  014E  3070               	movlw	(070h)
   993  014F  1683               	bsf	status, 5	;RP0=1, select bank1
   994  0150  1303               	bcf	status, 6	;RP1=0, select bank1
   995  0151  009F               	movwf	(159)^080h	;volatile
   996                           	
   997  0152                     l2984:	
   998  0152  3011               	movlw	(011h)
   999  0153  1283               	bcf	status, 5	;RP0=0, select bank0
  1000  0154  1303               	bcf	status, 6	;RP1=0, select bank0
  1001  0155  009F               	movwf	(31)	;volatile
  1002                           	
  1003  0156                     l2986:	
  1004  0156  149F               	bsf	(249/8),(249)&7
  1005  0157  2958               	goto	l859
  1006                           	
  1007  0158                     l860:	
  1008                           	
  1009  0158                     l859:	
  1010  0158  189F               	btfsc	(249/8),(249)&7
  1011  0159  295B               	goto	u3761
  1012  015A  295C               	goto	u3760
  1013  015B                     u3761:
  1014  015B  2958               	goto	l859
  1015  015C                     u3760:
  1016  015C  295D               	goto	l2988
  1017                           	
  1018  015D                     l861:	
  1019                           	
  1020  015D                     l2988:	
  1021  015D  081E               	movf	(30),w	;volatile
  1022  015E  00DA               	movwf	(??_main+0)+0
  1023  015F  0824               	movf	(_Temp),w
  1024  0160  3E03               	addlw	03h
  1025  0161  0084               	movwf	fsr0
  1026  0162  085A               	movf	(??_main+0)+0,w
  1027  0163  1383               	bcf	status, 7	;select IRP bank0
  1028  0164  0080               	movwf	indf
  1029  0165  0824               	movf	(_Temp),w
  1030  0166  0084               	movwf	fsr0
  1031  0167  1880               	btfsc	indf,1
  1032  0168  296A               	goto	u3771
  1033  0169  296B               	goto	u3770
  1034  016A                     u3771:
  1035  016A  29C1               	goto	l3004
  1036  016B                     u3770:
  1037                           	
  1038  016B                     l2990:	
  1039  016B  0824               	movf	(_Temp),w
  1040  016C  3E03               	addlw	03h
  1041  016D  0084               	movwf	fsr0
  1042  016E  3067               	movlw	(067h)
  1043  016F  0200               	subwf	indf,w
  1044  0170  1803               	skipnc
  1045  0171  2973               	goto	u3781
  1046  0172  2974               	goto	u3780
  1047  0173                     u3781:
  1048  0173  29BB               	goto	l3002
  1049  0174                     u3780:
  1050                           	
  1051  0174                     l2992:	
  1052  0174  3001               	movlw	(01h)
  1053  0175  00DA               	movwf	(??_main+0)+0
  1054  0176  0824               	movf	(_Temp),w
  1055  0177  3E04               	addlw	04h
  1056  0178  0084               	movwf	fsr0
  1057  0179  085A               	movf	(??_main+0)+0,w
  1058  017A  0780               	addwf	indf,f
  1059                           	
  1060  017B                     l2994:	
  1061  017B  0824               	movf	(_Temp),w
  1062  017C  3E04               	addlw	04h
  1063  017D  0084               	movwf	fsr0
  1064  017E  0800               	movf	indf,w
  1065  017F  3A03               	xorlw	03h
  1066  0180  1D03               	skipz
  1067  0181  2983               	goto	u3791
  1068  0182  2984               	goto	u3790
  1069  0183                     u3791:
  1070  0183  2A1C               	goto	l857
  1071  0184                     u3790:
  1072                           	
  1073  0184                     l2996:	
  1074  0184  0824               	movf	(_Temp),w
  1075  0185  3E04               	addlw	04h
  1076  0186  0084               	movwf	fsr0
  1077  0187  0180               	clrf	indf
  1078  0188  0824               	movf	(_Temp),w
  1079  0189  0084               	movwf	fsr0
  1080  018A  1480               	bsf	indf,1
  1081  018B  0820               	movf	(_CDS),w
  1082  018C  3E01               	addlw	01h
  1083  018D  0084               	movwf	fsr0
  1084  018E  0180               	clrf	indf
  1085  018F  0823               	movf	(_PIR),w
  1086  0190  3E04               	addlw	04h
  1087  0191  0084               	movwf	fsr0
  1088  0192  0180               	clrf	indf
  1089  0193  0821               	movf	(_Dimmer),w
  1090  0194  3E0A               	addlw	0Ah
  1091  0195  0084               	movwf	fsr0
  1092  0196  1080               	bcf	indf,1
  1093  0197  0821               	movf	(_Dimmer),w
  1094  0198  3E0A               	addlw	0Ah
  1095  0199  0084               	movwf	fsr0
  1096  019A  1100               	bcf	indf,2
  1097  019B  0821               	movf	(_Dimmer),w
  1098  019C  3E0A               	addlw	0Ah
  1099  019D  0084               	movwf	fsr0
  1100  019E  1180               	bcf	indf,3
  1101  019F  30AF               	movlw	(0AFh)
  1102  01A0  00DA               	movwf	(??_main+0)+0
  1103  01A1  0821               	movf	(_Dimmer),w
  1104  01A2  3E08               	addlw	08h
  1105  01A3  0084               	movwf	fsr0
  1106  01A4  085A               	movf	(??_main+0)+0,w
  1107  01A5  0080               	movwf	indf
  1108                           	
  1109  01A6                     l2998:	
  1110  01A6  1106               	bcf	(50/8),(50)&7
  1111  01A7  29A9               	goto	l865
  1112                           	
  1113  01A8                     l866:	
  1114  01A8  1686               	bsf	(53/8),(53)&7
  1115                           	
  1116  01A9                     l865:	
  1117  01A9  1E86               	btfss	(53/8),(53)&7
  1118  01AA  29AC               	goto	u3801
  1119  01AB  29AD               	goto	u3800
  1120  01AC                     u3801:
  1121  01AC  29A8               	goto	l866
  1122  01AD                     u3800:
  1123  01AD  29B0               	goto	l868
  1124                           	
  1125  01AE                     l867:	
  1126  01AE  29B0               	goto	l868
  1127                           	
  1128  01AF                     l869:	
  1129  01AF  1606               	bsf	(52/8),(52)&7
  1130                           	
  1131  01B0                     l868:	
  1132  01B0  1E06               	btfss	(52/8),(52)&7
  1133  01B1  29B3               	goto	u3811
  1134  01B2  29B4               	goto	u3810
  1135  01B3                     u3811:
  1136  01B3  29AF               	goto	l869
  1137  01B4                     u3810:
  1138  01B4  29B5               	goto	l3000
  1139                           	
  1140  01B5                     l870:	
  1141                           	
  1142  01B5                     l3000:	
  1143  01B5  0822               	movf	(_LED),w
  1144  01B6  0084               	movwf	fsr0
  1145  01B7  1383               	bcf	status, 7	;select IRP bank0
  1146  01B8  1500               	bsf	indf,2
  1147  01B9  2A1C               	goto	l857
  1148                           	
  1149  01BA                     l864:	
  1150  01BA  2A1C               	goto	l857
  1151                           	
  1152  01BB                     l863:	
  1153                           	
  1154  01BB                     l3002:	
  1155  01BB  0824               	movf	(_Temp),w
  1156  01BC  3E04               	addlw	04h
  1157  01BD  0084               	movwf	fsr0
  1158  01BE  0180               	clrf	indf
  1159  01BF  2A1C               	goto	l857
  1160                           	
  1161  01C0                     l871:	
  1162  01C0  2A1C               	goto	l857
  1163                           	
  1164  01C1                     l862:	
  1165                           	
  1166  01C1                     l3004:	
  1167  01C1  0824               	movf	(_Temp),w
  1168  01C2  3E03               	addlw	03h
  1169  01C3  0084               	movwf	fsr0
  1170  01C4  3075               	movlw	(075h)
  1171  01C5  0200               	subwf	indf,w
  1172  01C6  1C03               	skipc
  1173  01C7  29C9               	goto	u3821
  1174  01C8  29CA               	goto	u3820
  1175  01C9                     u3821:
  1176  01C9  2A15               	goto	l3024
  1177  01CA                     u3820:
  1178                           	
  1179  01CA                     l3006:	
  1180  01CA  3001               	movlw	(01h)
  1181  01CB  00DA               	movwf	(??_main+0)+0
  1182  01CC  0824               	movf	(_Temp),w
  1183  01CD  3E04               	addlw	04h
  1184  01CE  0084               	movwf	fsr0
  1185  01CF  085A               	movf	(??_main+0)+0,w
  1186  01D0  0780               	addwf	indf,f
  1187                           	
  1188  01D1                     l3008:	
  1189  01D1  0824               	movf	(_Temp),w
  1190  01D2  3E04               	addlw	04h
  1191  01D3  0084               	movwf	fsr0
  1192  01D4  0800               	movf	indf,w
  1193  01D5  3A03               	xorlw	03h
  1194  01D6  1D03               	skipz
  1195  01D7  29D9               	goto	u3831
  1196  01D8  29DA               	goto	u3830
  1197  01D9                     u3831:
  1198  01D9  2A1C               	goto	l857
  1199  01DA                     u3830:
  1200                           	
  1201  01DA                     l3010:	
  1202  01DA  0824               	movf	(_Temp),w
  1203  01DB  3E04               	addlw	04h
  1204  01DC  0084               	movwf	fsr0
  1205  01DD  0180               	clrf	indf
  1206  01DE  0824               	movf	(_Temp),w
  1207  01DF  0084               	movwf	fsr0
  1208  01E0  1080               	bcf	indf,1
  1209  01E1  29E3               	goto	l875
  1210                           	
  1211  01E2                     l876:	
  1212  01E2  1606               	bsf	(52/8),(52)&7
  1213                           	
  1214  01E3                     l875:	
  1215  01E3  1E06               	btfss	(52/8),(52)&7
  1216  01E4  29E6               	goto	u3841
  1217  01E5  29E7               	goto	u3840
  1218  01E6                     u3841:
  1219  01E6  29E2               	goto	l876
  1220  01E7                     u3840:
  1221  01E7  29E8               	goto	l3012
  1222                           	
  1223  01E8                     l877:	
  1224                           	
  1225  01E8                     l3012:	
  1226  01E8  0822               	movf	(_LED),w
  1227  01E9  0084               	movwf	fsr0
  1228  01EA  1383               	bcf	status, 7	;select IRP bank0
  1229  01EB  1100               	bcf	indf,2
  1230  01EC  0821               	movf	(_Dimmer),w
  1231  01ED  3E0A               	addlw	0Ah
  1232  01EE  0084               	movwf	fsr0
  1233  01EF  1880               	btfsc	indf,1
  1234  01F0  29F2               	goto	u3851
  1235  01F1  29F3               	goto	u3850
  1236  01F2                     u3851:
  1237  01F2  2A1C               	goto	l857
  1238  01F3                     u3850:
  1239                           	
  1240  01F3                     l3014:	
  1241  01F3  0821               	movf	(_Dimmer),w
  1242  01F4  3E0A               	addlw	0Ah
  1243  01F5  0084               	movwf	fsr0
  1244  01F6  1480               	bsf	indf,1
  1245  01F7  0821               	movf	(_Dimmer),w
  1246  01F8  3E0A               	addlw	0Ah
  1247  01F9  0084               	movwf	fsr0
  1248  01FA  1400               	bsf	indf,0
  1249                           	
  1250  01FB                     l3016:	
  1251  01FB  0821               	movf	(_Dimmer),w
  1252  01FC  3E07               	addlw	07h
  1253  01FD  0084               	movwf	fsr0
  1254  01FE  0180               	clrf	indf
  1255  01FF  1403               	bsf	status,0
  1256  0200  0D80               	rlf	indf,f
  1257  0201  2A02               	goto	l3018
  1258                           	
  1259  0202                     l881:	
  1260                           	
  1261  0202                     l3018:	
  1262  0202  0821               	movf	(_Dimmer),w
  1263  0203  3E0A               	addlw	0Ah
  1264  0204  0084               	movwf	fsr0
  1265  0205  1500               	bsf	indf,2
  1266  0206  2A07               	goto	l3020
  1267                           	
  1268  0207                     l879:	
  1269                           	
  1270  0207                     l3020:	
  1271  0207  0823               	movf	(_PIR),w
  1272  0208  3E2E               	addlw	02Eh
  1273  0209  0084               	movwf	fsr0
  1274  020A  0180               	clrf	indf
  1275                           	
  1276  020B                     l3022:	
  1277  020B  3002               	movlw	(02h)
  1278  020C  00DA               	movwf	(??_main+0)+0
  1279  020D  0823               	movf	(_PIR),w
  1280  020E  3E23               	addlw	023h
  1281  020F  0084               	movwf	fsr0
  1282  0210  085A               	movf	(??_main+0)+0,w
  1283  0211  0080               	movwf	indf
  1284  0212  2A1C               	goto	l857
  1285                           	
  1286  0213                     l878:	
  1287  0213  2A1C               	goto	l857
  1288                           	
  1289  0214                     l874:	
  1290  0214  2A1C               	goto	l857
  1291                           	
  1292  0215                     l873:	
  1293                           	
  1294  0215                     l3024:	
  1295  0215  0824               	movf	(_Temp),w
  1296  0216  3E04               	addlw	04h
  1297  0217  0084               	movwf	fsr0
  1298  0218  0180               	clrf	indf
  1299  0219  2A1C               	goto	l857
  1300                           	
  1301  021A                     l882:	
  1302  021A  2A1C               	goto	l857
  1303                           	
  1304  021B                     l872:	
  1305  021B  2A1C               	goto	l857
  1306                           	
  1307  021C                     l858:	
  1308                           	
  1309  021C                     l857:	
  1310                           	line	163
  1311                           ;PIR-Ceiling-PV02-3(20140517).c: 163: if(CDS->Enable==1) { CDS->Time++; if(CDS->Time == 
                                 100) { CDS->Time=0; CDS->ADCGO=1; ADCON1=0x70; ; ; ADCON0=0x31; ; GO_nDONE=1; while(GO_n
                                 DONE); CDS->SignalAD=ADRES; ; ; ADCON0=0x09; ; GO_nDONE=1; while(GO_nDONE); CDS->VRAD=AD
                                 RES; ; CDS->ADCGO=0; CDS
  1312  021C  0820               	movf	(_CDS),w
  1313  021D  0084               	movwf	fsr0
  1314  021E  1C00               	btfss	indf,0
  1315  021F  2A21               	goto	u3861
  1316  0220  2A22               	goto	u3860
  1317  0221                     u3861:
  1318  0221  2AB4               	goto	l883
  1319  0222                     u3860:
  1320                           	
  1321  0222                     l3026:	
  1322  0222  3001               	movlw	(01h)
  1323  0223  00DA               	movwf	(??_main+0)+0
  1324  0224  0820               	movf	(_CDS),w
  1325  0225  3E01               	addlw	01h
  1326  0226  0084               	movwf	fsr0
  1327  0227  085A               	movf	(??_main+0)+0,w
  1328  0228  0780               	addwf	indf,f
  1329                           	
  1330  0229                     l3028:	
  1331  0229  0820               	movf	(_CDS),w
  1332  022A  3E01               	addlw	01h
  1333  022B  0084               	movwf	fsr0
  1334  022C  0800               	movf	indf,w
  1335  022D  3A64               	xorlw	064h
  1336  022E  1D03               	skipz
  1337  022F  2A31               	goto	u3871
  1338  0230  2A32               	goto	u3870
  1339  0231                     u3871:
  1340  0231  2AB4               	goto	l883
  1341  0232                     u3870:
  1342                           	
  1343  0232                     l3030:	
  1344  0232  0820               	movf	(_CDS),w
  1345  0233  3E01               	addlw	01h
  1346  0234  0084               	movwf	fsr0
  1347  0235  0180               	clrf	indf
  1348  0236  0820               	movf	(_CDS),w
  1349  0237  3E05               	addlw	05h
  1350  0238  0084               	movwf	fsr0
  1351  0239  1400               	bsf	indf,0
  1352                           	
  1353  023A                     l3032:	
  1354  023A  3070               	movlw	(070h)
  1355  023B  1683               	bsf	status, 5	;RP0=1, select bank1
  1356  023C  1303               	bcf	status, 6	;RP1=0, select bank1
  1357  023D  009F               	movwf	(159)^080h	;volatile
  1358                           	
  1359  023E                     l3034:	
  1360  023E  3031               	movlw	(031h)
  1361  023F  1283               	bcf	status, 5	;RP0=0, select bank0
  1362  0240  1303               	bcf	status, 6	;RP1=0, select bank0
  1363  0241  009F               	movwf	(31)	;volatile
  1364                           	
  1365  0242                     l3036:	
  1366  0242  149F               	bsf	(249/8),(249)&7
  1367  0243  2A44               	goto	l885
  1368                           	
  1369  0244                     l886:	
  1370                           	
  1371  0244                     l885:	
  1372  0244  189F               	btfsc	(249/8),(249)&7
  1373  0245  2A47               	goto	u3881
  1374  0246  2A48               	goto	u3880
  1375  0247                     u3881:
  1376  0247  2A44               	goto	l885
  1377  0248                     u3880:
  1378  0248  2A49               	goto	l3038
  1379                           	
  1380  0249                     l887:	
  1381                           	
  1382  0249                     l3038:	
  1383  0249  081E               	movf	(30),w	;volatile
  1384  024A  00DA               	movwf	(??_main+0)+0
  1385  024B  0820               	movf	(_CDS),w
  1386  024C  3E04               	addlw	04h
  1387  024D  0084               	movwf	fsr0
  1388  024E  085A               	movf	(??_main+0)+0,w
  1389  024F  1383               	bcf	status, 7	;select IRP bank0
  1390  0250  0080               	movwf	indf
  1391                           	
  1392  0251                     l3040:	
  1393  0251  3009               	movlw	(09h)
  1394  0252  009F               	movwf	(31)	;volatile
  1395                           	
  1396  0253                     l3042:	
  1397  0253  149F               	bsf	(249/8),(249)&7
  1398  0254  2A55               	goto	l888
  1399                           	
  1400  0255                     l889:	
  1401                           	
  1402  0255                     l888:	
  1403  0255  189F               	btfsc	(249/8),(249)&7
  1404  0256  2A58               	goto	u3891
  1405  0257  2A59               	goto	u3890
  1406  0258                     u3891:
  1407  0258  2A55               	goto	l888
  1408  0259                     u3890:
  1409  0259  2A5A               	goto	l3044
  1410                           	
  1411  025A                     l890:	
  1412                           	
  1413  025A                     l3044:	
  1414  025A  081E               	movf	(30),w	;volatile
  1415  025B  00DA               	movwf	(??_main+0)+0
  1416  025C  0820               	movf	(_CDS),w
  1417  025D  3E03               	addlw	03h
  1418  025E  0084               	movwf	fsr0
  1419  025F  085A               	movf	(??_main+0)+0,w
  1420  0260  1383               	bcf	status, 7	;select IRP bank0
  1421  0261  0080               	movwf	indf
  1422  0262  0820               	movf	(_CDS),w
  1423  0263  3E05               	addlw	05h
  1424  0264  0084               	movwf	fsr0
  1425  0265  1000               	bcf	indf,0
  1426  0266  0820               	movf	(_CDS),w
  1427  0267  0084               	movwf	fsr0
  1428  0268  1480               	bsf	indf,1
  1429  0269  0820               	movf	(_CDS),w
  1430  026A  0084               	movwf	fsr0
  1431  026B  1C80               	btfss	indf,1
  1432  026C  2A6E               	goto	u3901
  1433  026D  2A6F               	goto	u3900
  1434  026E                     u3901:
  1435  026E  2AB4               	goto	l883
  1436  026F                     u3900:
  1437                           	
  1438  026F                     l3046:	
  1439  026F  0820               	movf	(_CDS),w
  1440  0270  0084               	movwf	fsr0
  1441  0271  1080               	bcf	indf,1
  1442  0272  0820               	movf	(_CDS),w
  1443  0273  3E02               	addlw	02h
  1444  0274  0084               	movwf	fsr0
  1445  0275  1800               	btfsc	indf,0
  1446  0276  2A78               	goto	u3911
  1447  0277  2A79               	goto	u3910
  1448  0278                     u3911:
  1449  0278  2A8F               	goto	l3052
  1450  0279                     u3910:
  1451                           	
  1452  0279                     l3048:	
  1453  0279  0820               	movf	(_CDS),w
  1454  027A  3E03               	addlw	03h
  1455  027B  0084               	movwf	fsr
  1456  027C  0800               	movf	indf,w
  1457  027D  00DA               	movwf	(??_main+0)+0
  1458  027E  0820               	movf	(_CDS),w
  1459  027F  3E04               	addlw	04h
  1460  0280  0084               	movwf	fsr0
  1461  0281  0800               	movf	indf,w
  1462  0282  00DB               	movwf	(??_main+1)+0
  1463  0283  085A               	movf	(??_main+0)+0,w
  1464  0284  025B               	subwf	(??_main+1)+0,w
  1465  0285  1C03               	skipc
  1466  0286  2A88               	goto	u3921
  1467  0287  2A89               	goto	u3920
  1468  0288                     u3921:
  1469  0288  2AB4               	goto	l883
  1470  0289                     u3920:
  1471                           	
  1472  0289                     l3050:	
  1473  0289  0820               	movf	(_CDS),w
  1474  028A  3E02               	addlw	02h
  1475  028B  0084               	movwf	fsr0
  1476  028C  1400               	bsf	indf,0
  1477  028D  2AB4               	goto	l883
  1478                           	
  1479  028E                     l893:	
  1480  028E  2AB4               	goto	l883
  1481                           	
  1482  028F                     l892:	
  1483                           	
  1484  028F                     l3052:	
  1485  028F  0820               	movf	(_CDS),w
  1486  0290  3E03               	addlw	03h
  1487  0291  0084               	movwf	fsr0
  1488  0292  0800               	movf	indf,w
  1489  0293  3E9C               	addlw	low(-100)
  1490  0294  00DA               	movwf	(??_main+0)+0
  1491  0295  30FF               	movlw	high(-100)
  1492  0296  1803               	skipnc
  1493  0297  3000               	movlw	(high(-100)+1)&0ffh
  1494  0298  00DB               	movwf	((??_main+0)+0)+1
  1495  0299  0820               	movf	(_CDS),w
  1496  029A  3E04               	addlw	04h
  1497  029B  0084               	movwf	fsr0
  1498  029C  085B               	movf	1+(??_main+0)+0,w
  1499  029D  3A80               	xorlw	80h
  1500  029E  00DC               	movwf	(??_main+2)+0
  1501  029F  3080               	movlw	80h
  1502  02A0  025C               	subwf	(??_main+2)+0,w
  1503  02A1  1D03               	skipz
  1504  02A2  2AA5               	goto	u3935
  1505  02A3  0800               	movf	indf,w
  1506  02A4  025A               	subwf	0+(??_main+0)+0,w
  1507  02A5                     u3935:
  1508                           
  1509  02A5  1C03               	skipc
  1510  02A6  2AA8               	goto	u3931
  1511  02A7  2AA9               	goto	u3930
  1512  02A8                     u3931:
  1513  02A8  2AB4               	goto	l883
  1514  02A9                     u3930:
  1515                           	
  1516  02A9                     l3054:	
  1517  02A9  1283               	bcf	status, 5	;RP0=0, select bank0
  1518  02AA  1303               	bcf	status, 6	;RP1=0, select bank0
  1519  02AB  0820               	movf	(_CDS),w
  1520  02AC  3E02               	addlw	02h
  1521  02AD  0084               	movwf	fsr0
  1522  02AE  1383               	bcf	status, 7	;select IRP bank0
  1523  02AF  1000               	bcf	indf,0
  1524  02B0  2AB4               	goto	l883
  1525                           	
  1526  02B1                     l895:	
  1527  02B1  2AB4               	goto	l883
  1528                           	
  1529  02B2                     l894:	
  1530  02B2  2AB4               	goto	l883
  1531                           	
  1532  02B3                     l891:	
  1533  02B3  2AB4               	goto	l883
  1534                           	
  1535  02B4                     l884:	
  1536                           	
  1537  02B4                     l883:	
  1538                           	line	164
  1539                           ;PIR-Ceiling-PV02-3(20140517).c: 164: if(PIR->Enable == 1) { PIR->Time++; if(PIR->Time =
                                 = 100) { PIR->Time=0; PIR->ADCGO=1; ADCON1=0x70; ; ; ADCON0=0x05; ; GO_nDONE=1; while(GO
                                 _nDONE); PIR->VRAD=ADRES/51; ; ; ADCON0=0x0d; ; GO_nDONE=1; while(GO_nDONE); PIR->Signal
                                 AD=ADRES; ; PIR->ADCGO=0
  1540  02B4  1283               	bcf	status, 5	;RP0=0, select bank0
  1541  02B5  1303               	bcf	status, 6	;RP1=0, select bank0
  1542  02B6  0823               	movf	(_PIR),w
  1543  02B7  0084               	movwf	fsr0
  1544  02B8  1383               	bcf	status, 7	;select IRP bank0
  1545  02B9  1C00               	btfss	indf,0
  1546  02BA  2ABC               	goto	u3941
  1547  02BB  2ABD               	goto	u3940
  1548  02BC                     u3941:
  1549  02BC  28BA               	goto	l2938
  1550  02BD                     u3940:
  1551                           	
  1552  02BD                     l3056:	
  1553  02BD  3001               	movlw	(01h)
  1554  02BE  00DA               	movwf	(??_main+0)+0
  1555  02BF  0823               	movf	(_PIR),w
  1556  02C0  3E04               	addlw	04h
  1557  02C1  0084               	movwf	fsr0
  1558  02C2  085A               	movf	(??_main+0)+0,w
  1559  02C3  0780               	addwf	indf,f
  1560                           	
  1561  02C4                     l3058:	
  1562  02C4  0823               	movf	(_PIR),w
  1563  02C5  3E04               	addlw	04h
  1564  02C6  0084               	movwf	fsr0
  1565  02C7  0800               	movf	indf,w
  1566  02C8  3A64               	xorlw	064h
  1567  02C9  1D03               	skipz
  1568  02CA  2ACC               	goto	u3951
  1569  02CB  2ACD               	goto	u3950
  1570  02CC                     u3951:
  1571  02CC  28BA               	goto	l2938
  1572  02CD                     u3950:
  1573                           	
  1574  02CD                     l3060:	
  1575  02CD  0823               	movf	(_PIR),w
  1576  02CE  3E04               	addlw	04h
  1577  02CF  0084               	movwf	fsr0
  1578  02D0  0180               	clrf	indf
  1579  02D1  0823               	movf	(_PIR),w
  1580  02D2  0084               	movwf	fsr0
  1581  02D3  1480               	bsf	indf,1
  1582                           	
  1583  02D4                     l3062:	
  1584  02D4  3070               	movlw	(070h)
  1585  02D5  1683               	bsf	status, 5	;RP0=1, select bank1
  1586  02D6  1303               	bcf	status, 6	;RP1=0, select bank1
  1587  02D7  009F               	movwf	(159)^080h	;volatile
  1588                           	
  1589  02D8                     l3064:	
  1590  02D8  3005               	movlw	(05h)
  1591  02D9  1283               	bcf	status, 5	;RP0=0, select bank0
  1592  02DA  1303               	bcf	status, 6	;RP1=0, select bank0
  1593  02DB  009F               	movwf	(31)	;volatile
  1594                           	
  1595  02DC                     l3066:	
  1596  02DC  149F               	bsf	(249/8),(249)&7
  1597  02DD  2ADE               	goto	l898
  1598                           	
  1599  02DE                     l899:	
  1600                           	
  1601  02DE                     l898:	
  1602  02DE  189F               	btfsc	(249/8),(249)&7
  1603  02DF  2AE1               	goto	u3961
  1604  02E0  2AE2               	goto	u3960
  1605  02E1                     u3961:
  1606  02E1  2ADE               	goto	l898
  1607  02E2                     u3960:
  1608  02E2  2AE3               	goto	l3068
  1609                           	
  1610  02E3                     l900:	
  1611                           	
  1612  02E3                     l3068:	
  1613  02E3  3033               	movlw	low(033h)
  1614  02E4  00D2               	movwf	(?___awdiv)
  1615  02E5  3000               	movlw	high(033h)
  1616  02E6  00D3               	movwf	((?___awdiv))+1
  1617  02E7  081E               	movf	(30),w	;volatile
  1618  02E8  00DA               	movwf	(??_main+0)+0
  1619  02E9  01DB               	clrf	(??_main+0)+0+1
  1620  02EA  085A               	movf	0+(??_main+0)+0,w
  1621  02EB  00D4               	movwf	0+(?___awdiv)+02h
  1622  02EC  085B               	movf	1+(??_main+0)+0,w
  1623  02ED  00D5               	movwf	1+(?___awdiv)+02h
  1624  02EE  158A  264A  118A   	fcall	___awdiv
  1625  02F1  1283               	bcf	status, 5	;RP0=0, select bank0
  1626  02F2  1303               	bcf	status, 6	;RP1=0, select bank0
  1627  02F3  0852               	movf	(0+(?___awdiv)),w
  1628  02F4  00DC               	movwf	(??_main+2)+0
  1629  02F5  0823               	movf	(_PIR),w
  1630  02F6  3E01               	addlw	01h
  1631  02F7  0084               	movwf	fsr0
  1632  02F8  085C               	movf	(??_main+2)+0,w
  1633  02F9  1383               	bcf	status, 7	;select IRP bank0
  1634  02FA  0080               	movwf	indf
  1635                           	
  1636  02FB                     l3070:	
  1637  02FB  300D               	movlw	(0Dh)
  1638  02FC  009F               	movwf	(31)	;volatile
  1639                           	
  1640  02FD                     l3072:	
  1641  02FD  149F               	bsf	(249/8),(249)&7
  1642  02FE  2AFF               	goto	l901
  1643                           	
  1644  02FF                     l902:	
  1645                           	
  1646  02FF                     l901:	
  1647  02FF  189F               	btfsc	(249/8),(249)&7
  1648  0300  2B02               	goto	u3971
  1649  0301  2B03               	goto	u3970
  1650  0302                     u3971:
  1651  0302  2AFF               	goto	l901
  1652  0303                     u3970:
  1653  0303  2B04               	goto	l3074
  1654                           	
  1655  0304                     l903:	
  1656                           	
  1657  0304                     l3074:	
  1658  0304  081E               	movf	(30),w	;volatile
  1659  0305  00DA               	movwf	(??_main+0)+0
  1660  0306  0823               	movf	(_PIR),w
  1661  0307  3E03               	addlw	03h
  1662  0308  0084               	movwf	fsr0
  1663  0309  085A               	movf	(??_main+0)+0,w
  1664  030A  1383               	bcf	status, 7	;select IRP bank0
  1665  030B  0080               	movwf	indf
  1666  030C  0823               	movf	(_PIR),w
  1667  030D  0084               	movwf	fsr0
  1668  030E  1080               	bcf	indf,1
  1669  030F  0823               	movf	(_PIR),w
  1670  0310  3E20               	addlw	020h
  1671  0311  0084               	movwf	fsr0
  1672  0312  1400               	bsf	indf,0
  1673                           	
  1674  0313                     l3076:	
  1675  0313  0823               	movf	(_PIR),w
  1676  0314  3E01               	addlw	01h
  1677  0315  0084               	movwf	fsr0
  1678  0316  0880               	movf	indf,f
  1679  0317  1D03               	skipz
  1680  0318  2B1A               	goto	u3981
  1681  0319  2B1B               	goto	u3980
  1682  031A                     u3981:
  1683  031A  2B24               	goto	l3080
  1684  031B                     u3980:
  1685                           	
  1686  031B                     l3078:	
  1687  031B  0823               	movf	(_PIR),w
  1688  031C  3E26               	addlw	026h
  1689  031D  0084               	movwf	fsr0
  1690  031E  3064               	movlw	low(064h)
  1691  031F  0080               	movwf	indf
  1692  0320  0A84               	incf	fsr0,f
  1693  0321  3000               	movlw	high(064h)
  1694  0322  0080               	movwf	indf
  1695  0323  2B70               	goto	l3096
  1696                           	
  1697  0324                     l904:	
  1698                           	
  1699  0324                     l3080:	
  1700  0324  0823               	movf	(_PIR),w
  1701  0325  3E01               	addlw	01h
  1702  0326  0084               	movwf	fsr0
  1703  0327  0800               	movf	indf,w
  1704  0328  3A01               	xorlw	01h
  1705  0329  1D03               	skipz
  1706  032A  2B2C               	goto	u3991
  1707  032B  2B2D               	goto	u3990
  1708  032C                     u3991:
  1709  032C  2B36               	goto	l3084
  1710  032D                     u3990:
  1711                           	
  1712  032D                     l3082:	
  1713  032D  0823               	movf	(_PIR),w
  1714  032E  3E26               	addlw	026h
  1715  032F  0084               	movwf	fsr0
  1716  0330  30B8               	movlw	low(0BB8h)
  1717  0331  0080               	movwf	indf
  1718  0332  0A84               	incf	fsr0,f
  1719  0333  300B               	movlw	high(0BB8h)
  1720  0334  0080               	movwf	indf
  1721  0335  2B70               	goto	l3096
  1722                           	
  1723  0336                     l906:	
  1724                           	
  1725  0336                     l3084:	
  1726  0336  0823               	movf	(_PIR),w
  1727  0337  3E01               	addlw	01h
  1728  0338  0084               	movwf	fsr0
  1729  0339  0800               	movf	indf,w
  1730  033A  3A02               	xorlw	02h
  1731  033B  1D03               	skipz
  1732  033C  2B3E               	goto	u4001
  1733  033D  2B3F               	goto	u4000
  1734  033E                     u4001:
  1735  033E  2B48               	goto	l3088
  1736  033F                     u4000:
  1737                           	
  1738  033F                     l3086:	
  1739  033F  0823               	movf	(_PIR),w
  1740  0340  3E26               	addlw	026h
  1741  0341  0084               	movwf	fsr0
  1742  0342  3070               	movlw	low(01770h)
  1743  0343  0080               	movwf	indf
  1744  0344  0A84               	incf	fsr0,f
  1745  0345  3017               	movlw	high(01770h)
  1746  0346  0080               	movwf	indf
  1747  0347  2B70               	goto	l3096
  1748                           	
  1749  0348                     l908:	
  1750                           	
  1751  0348                     l3088:	
  1752  0348  0823               	movf	(_PIR),w
  1753  0349  3E01               	addlw	01h
  1754  034A  0084               	movwf	fsr0
  1755  034B  0800               	movf	indf,w
  1756  034C  3A03               	xorlw	03h
  1757  034D  1D03               	skipz
  1758  034E  2B50               	goto	u4011
  1759  034F  2B51               	goto	u4010
  1760  0350                     u4011:
  1761  0350  2B5A               	goto	l3092
  1762  0351                     u4010:
  1763                           	
  1764  0351                     l3090:	
  1765  0351  0823               	movf	(_PIR),w
  1766  0352  3E26               	addlw	026h
  1767  0353  0084               	movwf	fsr0
  1768  0354  3028               	movlw	low(02328h)
  1769  0355  0080               	movwf	indf
  1770  0356  0A84               	incf	fsr0,f
  1771  0357  3023               	movlw	high(02328h)
  1772  0358  0080               	movwf	indf
  1773  0359  2B70               	goto	l3096
  1774                           	
  1775  035A                     l910:	
  1776                           	
  1777  035A                     l3092:	
  1778  035A  0823               	movf	(_PIR),w
  1779  035B  3E01               	addlw	01h
  1780  035C  0084               	movwf	fsr0
  1781  035D  3004               	movlw	(04h)
  1782  035E  0200               	subwf	indf,w
  1783  035F  1C03               	skipc
  1784  0360  2B62               	goto	u4021
  1785  0361  2B63               	goto	u4020
  1786  0362                     u4021:
  1787  0362  2B70               	goto	l3096
  1788  0363                     u4020:
  1789                           	
  1790  0363                     l3094:	
  1791  0363  0823               	movf	(_PIR),w
  1792  0364  3E26               	addlw	026h
  1793  0365  0084               	movwf	fsr0
  1794  0366  30E0               	movlw	low(02EE0h)
  1795  0367  0080               	movwf	indf
  1796  0368  0A84               	incf	fsr0,f
  1797  0369  302E               	movlw	high(02EE0h)
  1798  036A  0080               	movwf	indf
  1799  036B  2B70               	goto	l3096
  1800                           	
  1801  036C                     l912:	
  1802  036C  2B70               	goto	l3096
  1803                           	
  1804  036D                     l911:	
  1805  036D  2B70               	goto	l3096
  1806                           	
  1807  036E                     l909:	
  1808  036E  2B70               	goto	l3096
  1809                           	
  1810  036F                     l907:	
  1811  036F  2B70               	goto	l3096
  1812                           	
  1813  0370                     l905:	
  1814                           	
  1815  0370                     l3096:	
  1816  0370  0823               	movf	(_PIR),w
  1817  0371  3E03               	addlw	03h
  1818  0372  0084               	movwf	fsr0
  1819  0373  0800               	movf	indf,w
  1820  0374  00DA               	movwf	(??_main+0)+0
  1821  0375  0823               	movf	(_PIR),w
  1822  0376  3E05               	addlw	05h
  1823  0377  0084               	movwf	fsr0
  1824  0378  0800               	movf	indf,w
  1825  0379  3E08               	addlw	08h
  1826  037A  0723               	addwf	(_PIR),w
  1827  037B  00DB               	movwf	(??_main+1)+0
  1828  037C  085B               	movf	0+(??_main+1)+0,w
  1829  037D  0084               	movwf	fsr0
  1830  037E  085A               	movf	(??_main+0)+0,w
  1831  037F  0080               	movwf	indf
  1832                           	
  1833  0380                     l3098:	
  1834  0380  01E0               	clrf	(main@i)
  1835                           	
  1836  0381                     l3100:	
  1837  0381  300A               	movlw	(0Ah)
  1838  0382  0260               	subwf	(main@i),w
  1839  0383  1C03               	skipc
  1840  0384  2B86               	goto	u4031
  1841  0385  2B87               	goto	u4030
  1842  0386                     u4031:
  1843  0386  2B89               	goto	l3104
  1844  0387                     u4030:
  1845  0387  2BAB               	goto	l3110
  1846                           	
  1847  0388                     l3102:	
  1848  0388  2BAB               	goto	l3110
  1849                           	
  1850  0389                     l913:	
  1851                           	
  1852  0389                     l3104:	
  1853  0389  0860               	movf	(main@i),w
  1854  038A  3E08               	addlw	08h
  1855  038B  0723               	addwf	(_PIR),w
  1856  038C  00DA               	movwf	(??_main+0)+0
  1857  038D  085A               	movf	0+(??_main+0)+0,w
  1858  038E  0084               	movwf	fsr0
  1859  038F  0800               	movf	indf,w
  1860  0390  00DB               	movwf	(??_main+1)+0
  1861  0391  01DC               	clrf	(??_main+1)+0+1
  1862  0392  0823               	movf	(_PIR),w
  1863  0393  3E12               	addlw	012h
  1864  0394  0084               	movwf	fsr0
  1865  0395  085B               	movf	0+(??_main+1)+0,w
  1866  0396  0780               	addwf	indf,f
  1867  0397  0F84               	incfsz	fsr0,f
  1868  0398  0800               	movf	indf,w
  1869  0399  1803               	skipnc
  1870  039A  0A00               	incf	indf,w
  1871  039B  00FF               	movwf	btemp+1
  1872  039C  085C               	movf	1+(??_main+1)+0,w
  1873  039D  077F               	addwf	btemp+1,w
  1874  039E  0080               	movwf	indf
  1875  039F  0384               	decf	fsr0,f
  1876                           	
  1877  03A0                     l3106:	
  1878  03A0  3001               	movlw	(01h)
  1879  03A1  00DA               	movwf	(??_main+0)+0
  1880  03A2  085A               	movf	(??_main+0)+0,w
  1881  03A3  07E0               	addwf	(main@i),f
  1882                           	
  1883  03A4                     l3108:	
  1884  03A4  300A               	movlw	(0Ah)
  1885  03A5  0260               	subwf	(main@i),w
  1886  03A6  1C03               	skipc
  1887  03A7  2BA9               	goto	u4041
  1888  03A8  2BAA               	goto	u4040
  1889  03A9                     u4041:
  1890  03A9  2B89               	goto	l3104
  1891  03AA                     u4040:
  1892  03AA  2BAB               	goto	l3110
  1893                           	
  1894  03AB                     l914:	
  1895                           	
  1896  03AB                     l3110:	
  1897  03AB  300A               	movlw	low(0Ah)
  1898  03AC  00D2               	movwf	(?___lwdiv)
  1899  03AD  3000               	movlw	high(0Ah)
  1900  03AE  00D3               	movwf	((?___lwdiv))+1
  1901  03AF  0823               	movf	(_PIR),w
  1902  03B0  3E12               	addlw	012h
  1903  03B1  0084               	movwf	fsr0
  1904  03B2  0800               	movf	indf,w
  1905  03B3  00D4               	movwf	0+(?___lwdiv)+02h
  1906  03B4  0A84               	incf	fsr0,f
  1907  03B5  0800               	movf	indf,w
  1908  03B6  00D5               	movwf	1+(?___lwdiv)+02h
  1909  03B7  118A  2797  118A   	fcall	___lwdiv
  1910  03BA  1283               	bcf	status, 5	;RP0=0, select bank0
  1911  03BB  1303               	bcf	status, 6	;RP1=0, select bank0
  1912  03BC  0852               	movf	(0+(?___lwdiv)),w
  1913  03BD  00DA               	movwf	(??_main+0)+0
  1914  03BE  0823               	movf	(_PIR),w
  1915  03BF  3E06               	addlw	06h
  1916  03C0  0084               	movwf	fsr0
  1917  03C1  1383               	bcf	status, 7	;select IRP bank0
  1918  03C2  0800               	movf	indf,w
  1919  03C3  3E14               	addlw	014h
  1920  03C4  0723               	addwf	(_PIR),w
  1921  03C5  00DB               	movwf	(??_main+1)+0
  1922  03C6  085B               	movf	0+(??_main+1)+0,w
  1923  03C7  0084               	movwf	fsr0
  1924  03C8  085A               	movf	(??_main+0)+0,w
  1925  03C9  0080               	movwf	indf
  1926                           	
  1927  03CA                     l3112:	
  1928  03CA  0823               	movf	(_PIR),w
  1929  03CB  3E12               	addlw	012h
  1930  03CC  0084               	movwf	fsr0
  1931  03CD  3000               	movlw	low(0)
  1932  03CE  0080               	movwf	indf
  1933  03CF  0A84               	incf	fsr0,f
  1934  03D0  3000               	movlw	high(0)
  1935  03D1  0080               	movwf	indf
  1936                           	
  1937  03D2                     l3114:	
  1938  03D2  01E0               	clrf	(main@i)
  1939                           	
  1940  03D3                     l3116:	
  1941  03D3  300A               	movlw	(0Ah)
  1942  03D4  0260               	subwf	(main@i),w
  1943  03D5  1C03               	skipc
  1944  03D6  2BD8               	goto	u4051
  1945  03D7  2BD9               	goto	u4050
  1946  03D8                     u4051:
  1947  03D8  2BDB               	goto	l3120
  1948  03D9                     u4050:
  1949  03D9  2BFD               	goto	l3126
  1950                           	
  1951  03DA                     l3118:	
  1952  03DA  2BFD               	goto	l3126
  1953                           	
  1954  03DB                     l915:	
  1955                           	
  1956  03DB                     l3120:	
  1957  03DB  0860               	movf	(main@i),w
  1958  03DC  3E14               	addlw	014h
  1959  03DD  0723               	addwf	(_PIR),w
  1960  03DE  00DA               	movwf	(??_main+0)+0
  1961  03DF  085A               	movf	0+(??_main+0)+0,w
  1962  03E0  0084               	movwf	fsr0
  1963  03E1  0800               	movf	indf,w
  1964  03E2  00DB               	movwf	(??_main+1)+0
  1965  03E3  01DC               	clrf	(??_main+1)+0+1
  1966  03E4  0823               	movf	(_PIR),w
  1967  03E5  3E1E               	addlw	01Eh
  1968  03E6  0084               	movwf	fsr0
  1969  03E7  085B               	movf	0+(??_main+1)+0,w
  1970  03E8  0780               	addwf	indf,f
  1971  03E9  0F84               	incfsz	fsr0,f
  1972  03EA  0800               	movf	indf,w
  1973  03EB  1803               	skipnc
  1974  03EC  0A00               	incf	indf,w
  1975  03ED  00FF               	movwf	btemp+1
  1976  03EE  085C               	movf	1+(??_main+1)+0,w
  1977  03EF  077F               	addwf	btemp+1,w
  1978  03F0  0080               	movwf	indf
  1979  03F1  0384               	decf	fsr0,f
  1980                           	
  1981  03F2                     l3122:	
  1982  03F2  3001               	movlw	(01h)
  1983  03F3  00DA               	movwf	(??_main+0)+0
  1984  03F4  085A               	movf	(??_main+0)+0,w
  1985  03F5  07E0               	addwf	(main@i),f
  1986                           	
  1987  03F6                     l3124:	
  1988  03F6  300A               	movlw	(0Ah)
  1989  03F7  0260               	subwf	(main@i),w
  1990  03F8  1C03               	skipc
  1991  03F9  2BFB               	goto	u4061
  1992  03FA  2BFC               	goto	u4060
  1993  03FB                     u4061:
  1994  03FB  2BDB               	goto	l3120
  1995  03FC                     u4060:
  1996  03FC  2BFD               	goto	l3126
  1997                           	
  1998  03FD                     l916:	
  1999                           	
  2000  03FD                     l3126:	
  2001  03FD  300A               	movlw	low(0Ah)
  2002  03FE  00D2               	movwf	(?___lwdiv)
  2003  03FF  3000               	movlw	high(0Ah)
  2004  0400  00D3               	movwf	((?___lwdiv))+1
  2005  0401  0823               	movf	(_PIR),w
  2006  0402  3E1E               	addlw	01Eh
  2007  0403  0084               	movwf	fsr0
  2008  0404  0800               	movf	indf,w
  2009  0405  00D4               	movwf	0+(?___lwdiv)+02h
  2010  0406  0A84               	incf	fsr0,f
  2011  0407  0800               	movf	indf,w
  2012  0408  00D5               	movwf	1+(?___lwdiv)+02h
  2013  0409  118A  2797  118A   	fcall	___lwdiv
  2014  040C  1283               	bcf	status, 5	;RP0=0, select bank0
  2015  040D  1303               	bcf	status, 6	;RP1=0, select bank0
  2016  040E  0852               	movf	(0+(?___lwdiv)),w
  2017  040F  00DA               	movwf	(??_main+0)+0
  2018  0410  0823               	movf	(_PIR),w
  2019  0411  3E07               	addlw	07h
  2020  0412  0084               	movwf	fsr0
  2021  0413  085A               	movf	(??_main+0)+0,w
  2022  0414  1383               	bcf	status, 7	;select IRP bank0
  2023  0415  0080               	movwf	indf
  2024                           	
  2025  0416                     l3128:	
  2026  0416  0823               	movf	(_PIR),w
  2027  0417  3E1E               	addlw	01Eh
  2028  0418  0084               	movwf	fsr0
  2029  0419  3000               	movlw	low(0)
  2030  041A  0080               	movwf	indf
  2031  041B  0A84               	incf	fsr0,f
  2032  041C  3000               	movlw	high(0)
  2033  041D  0080               	movwf	indf
  2034                           	
  2035  041E                     l3130:	
  2036  041E  0823               	movf	(_PIR),w
  2037  041F  3E05               	addlw	05h
  2038  0420  0084               	movwf	fsr0
  2039  0421  300A               	movlw	(0Ah)
  2040  0422  0200               	subwf	indf,w
  2041  0423  1803               	skipnc
  2042  0424  2C26               	goto	u4071
  2043  0425  2C27               	goto	u4070
  2044  0426                     u4071:
  2045  0426  2C2F               	goto	l3134
  2046  0427                     u4070:
  2047                           	
  2048  0427                     l3132:	
  2049  0427  3001               	movlw	(01h)
  2050  0428  00DA               	movwf	(??_main+0)+0
  2051  0429  0823               	movf	(_PIR),w
  2052  042A  3E05               	addlw	05h
  2053  042B  0084               	movwf	fsr0
  2054  042C  085A               	movf	(??_main+0)+0,w
  2055  042D  0780               	addwf	indf,f
  2056  042E  2C49               	goto	l918
  2057                           	
  2058  042F                     l917:	
  2059                           	
  2060  042F                     l3134:	
  2061  042F  0823               	movf	(_PIR),w
  2062  0430  3E05               	addlw	05h
  2063  0431  0084               	movwf	fsr0
  2064  0432  0180               	clrf	indf
  2065  0433  0823               	movf	(_PIR),w
  2066  0434  3E06               	addlw	06h
  2067  0435  0084               	movwf	fsr0
  2068  0436  300A               	movlw	(0Ah)
  2069  0437  0200               	subwf	indf,w
  2070  0438  1803               	skipnc
  2071  0439  2C3B               	goto	u4081
  2072  043A  2C3C               	goto	u4080
  2073  043B                     u4081:
  2074  043B  2C44               	goto	l3138
  2075  043C                     u4080:
  2076                           	
  2077  043C                     l3136:	
  2078  043C  3001               	movlw	(01h)
  2079  043D  00DA               	movwf	(??_main+0)+0
  2080  043E  0823               	movf	(_PIR),w
  2081  043F  3E06               	addlw	06h
  2082  0440  0084               	movwf	fsr0
  2083  0441  085A               	movf	(??_main+0)+0,w
  2084  0442  0780               	addwf	indf,f
  2085  0443  2C49               	goto	l918
  2086                           	
  2087  0444                     l919:	
  2088                           	
  2089  0444                     l3138:	
  2090  0444  0823               	movf	(_PIR),w
  2091  0445  3E06               	addlw	06h
  2092  0446  0084               	movwf	fsr0
  2093  0447  0180               	clrf	indf
  2094  0448  2C49               	goto	l918
  2095                           	
  2096  0449                     l920:	
  2097                           	
  2098  0449                     l918:	
  2099  0449  0823               	movf	(_PIR),w
  2100  044A  3E20               	addlw	020h
  2101  044B  0084               	movwf	fsr0
  2102  044C  1900               	btfsc	indf,2
  2103  044D  2C4F               	goto	u4091
  2104  044E  2C50               	goto	u4090
  2105  044F                     u4091:
  2106  044F  2C6A               	goto	l3146
  2107  0450                     u4090:
  2108                           	
  2109  0450                     l3140:	
  2110  0450  0820               	movf	(_CDS),w
  2111  0451  3E02               	addlw	02h
  2112  0452  0084               	movwf	fsr0
  2113  0453  1C00               	btfss	indf,0
  2114  0454  2C56               	goto	u4101
  2115  0455  2C57               	goto	u4100
  2116  0456                     u4101:
  2117  0456  2CEF               	goto	l923
  2118  0457                     u4100:
  2119                           	
  2120  0457                     l3142:	
  2121  0457  0824               	movf	(_Temp),w
  2122  0458  0084               	movwf	fsr0
  2123  0459  1880               	btfsc	indf,1
  2124  045A  2C5C               	goto	u4111
  2125  045B  2C5D               	goto	u4110
  2126  045C                     u4111:
  2127  045C  2CEF               	goto	l923
  2128  045D                     u4110:
  2129                           	
  2130  045D                     l3144:	
  2131  045D  0823               	movf	(_PIR),w
  2132  045E  3E20               	addlw	020h
  2133  045F  0084               	movwf	fsr0
  2134  0460  1500               	bsf	indf,2
  2135  0461  3019               	movlw	(019h)
  2136  0462  00DA               	movwf	(??_main+0)+0
  2137  0463  0823               	movf	(_PIR),w
  2138  0464  3E2C               	addlw	02Ch
  2139  0465  0084               	movwf	fsr0
  2140  0466  085A               	movf	(??_main+0)+0,w
  2141  0467  0080               	movwf	indf
  2142  0468  2CEF               	goto	l923
  2143                           	
  2144  0469                     l922:	
  2145  0469  2CEF               	goto	l923
  2146                           	
  2147  046A                     l921:	
  2148                           	
  2149  046A                     l3146:	
  2150  046A  0820               	movf	(_CDS),w
  2151  046B  3E02               	addlw	02h
  2152  046C  0084               	movwf	fsr0
  2153  046D  1C00               	btfss	indf,0
  2154  046E  2C70               	goto	u4121
  2155  046F  2C71               	goto	u4120
  2156  0470                     u4121:
  2157  0470  2C78               	goto	l3150
  2158  0471                     u4120:
  2159                           	
  2160  0471                     l3148:	
  2161  0471  0824               	movf	(_Temp),w
  2162  0472  0084               	movwf	fsr0
  2163  0473  1C80               	btfss	indf,1
  2164  0474  2C76               	goto	u4131
  2165  0475  2C77               	goto	u4130
  2166  0476                     u4131:
  2167  0476  2CEF               	goto	l923
  2168  0477                     u4130:
  2169  0477  2C78               	goto	l3150
  2170                           	
  2171  0478                     l926:	
  2172                           	
  2173  0478                     l3150:	
  2174  0478  0823               	movf	(_PIR),w
  2175  0479  3E20               	addlw	020h
  2176  047A  0084               	movwf	fsr0
  2177  047B  1100               	bcf	indf,2
  2178  047C  0823               	movf	(_PIR),w
  2179  047D  3E20               	addlw	020h
  2180  047E  0084               	movwf	fsr0
  2181  047F  1C80               	btfss	indf,1
  2182  0480  2C82               	goto	u4141
  2183  0481  2C83               	goto	u4140
  2184  0482                     u4141:
  2185  0482  2CEF               	goto	l923
  2186  0483                     u4140:
  2187  0483  2C86               	goto	l928
  2188                           	
  2189  0484                     l3152:	
  2190  0484  2C86               	goto	l928
  2191                           	
  2192  0485                     l929:	
  2193  0485  1686               	bsf	(53/8),(53)&7
  2194                           	
  2195  0486                     l928:	
  2196  0486  1E86               	btfss	(53/8),(53)&7
  2197  0487  2C89               	goto	u4151
  2198  0488  2C8A               	goto	u4150
  2199  0489                     u4151:
  2200  0489  2C85               	goto	l929
  2201  048A                     u4150:
  2202  048A  2C8D               	goto	l931
  2203                           	
  2204  048B                     l930:	
  2205  048B  2C8D               	goto	l931
  2206                           	
  2207  048C                     l932:	
  2208  048C  1606               	bsf	(52/8),(52)&7
  2209                           	
  2210  048D                     l931:	
  2211  048D  1E06               	btfss	(52/8),(52)&7
  2212  048E  2C90               	goto	u4161
  2213  048F  2C91               	goto	u4160
  2214  0490                     u4161:
  2215  0490  2C8C               	goto	l932
  2216  0491                     u4160:
  2217  0491  2C92               	goto	l3154
  2218                           	
  2219  0492                     l933:	
  2220                           	
  2221  0492                     l3154:	
  2222  0492  0821               	movf	(_Dimmer),w
  2223  0493  3E0A               	addlw	0Ah
  2224  0494  0084               	movwf	fsr0
  2225  0495  1383               	bcf	status, 7	;select IRP bank0
  2226  0496  1880               	btfsc	indf,1
  2227  0497  2C99               	goto	u4171
  2228  0498  2C9A               	goto	u4170
  2229  0499                     u4171:
  2230  0499  2CA2               	goto	l3158
  2231  049A                     u4170:
  2232                           	
  2233  049A                     l3156:	
  2234  049A  0821               	movf	(_Dimmer),w
  2235  049B  3E0A               	addlw	0Ah
  2236  049C  0084               	movwf	fsr0
  2237  049D  1D80               	btfss	indf,3
  2238  049E  2CA0               	goto	u4181
  2239  049F  2CA1               	goto	u4180
  2240  04A0                     u4181:
  2241  04A0  2CEF               	goto	l923
  2242  04A1                     u4180:
  2243  04A1  2CA2               	goto	l3158
  2244                           	
  2245  04A2                     l936:	
  2246                           	
  2247  04A2                     l3158:	
  2248  04A2  0821               	movf	(_Dimmer),w
  2249  04A3  3E0A               	addlw	0Ah
  2250  04A4  0084               	movwf	fsr0
  2251  04A5  1080               	bcf	indf,1
  2252  04A6  0821               	movf	(_Dimmer),w
  2253  04A7  3E0A               	addlw	0Ah
  2254  04A8  0084               	movwf	fsr0
  2255  04A9  1400               	bsf	indf,0
  2256  04AA  0821               	movf	(_Dimmer),w
  2257  04AB  3E0A               	addlw	0Ah
  2258  04AC  0084               	movwf	fsr0
  2259  04AD  1D80               	btfss	indf,3
  2260  04AE  2CB0               	goto	u4191
  2261  04AF  2CB1               	goto	u4190
  2262  04B0                     u4191:
  2263  04B0  2CC0               	goto	l3162
  2264  04B1                     u4190:
  2265                           	
  2266  04B1                     l3160:	
  2267  04B1  30AF               	movlw	(0AFh)
  2268  04B2  00DA               	movwf	(??_main+0)+0
  2269  04B3  0821               	movf	(_Dimmer),w
  2270  04B4  3E0F               	addlw	0Fh
  2271  04B5  0084               	movwf	fsr0
  2272  04B6  085A               	movf	(??_main+0)+0,w
  2273  04B7  0080               	movwf	indf
  2274  04B8  3004               	movlw	(04h)
  2275  04B9  00DA               	movwf	(??_main+0)+0
  2276  04BA  0821               	movf	(_Dimmer),w
  2277  04BB  3E07               	addlw	07h
  2278  04BC  0084               	movwf	fsr0
  2279  04BD  085A               	movf	(??_main+0)+0,w
  2280  04BE  0080               	movwf	indf
  2281  04BF  2CEF               	goto	l923
  2282                           	
  2283  04C0                     l938:	
  2284                           	
  2285  04C0                     l3162:	
  2286  04C0  3002               	movlw	(02h)
  2287  04C1  00DA               	movwf	(??_main+0)+0
  2288  04C2  0821               	movf	(_Dimmer),w
  2289  04C3  3E07               	addlw	07h
  2290  04C4  0084               	movwf	fsr0
  2291  04C5  085A               	movf	(??_main+0)+0,w
  2292  04C6  0080               	movwf	indf
  2293  04C7  0823               	movf	(_PIR),w
  2294  04C8  3E20               	addlw	020h
  2295  04C9  0084               	movwf	fsr0
  2296  04CA  1900               	btfsc	indf,2
  2297  04CB  2CCD               	goto	u4201
  2298  04CC  2CCE               	goto	u4200
  2299  04CD                     u4201:
  2300  04CD  2CDA               	goto	l3166
  2301  04CE                     u4200:
  2302                           	
  2303  04CE                     l3164:	
  2304  04CE  0821               	movf	(_Dimmer),w
  2305  04CF  3E0A               	addlw	0Ah
  2306  04D0  0084               	movwf	fsr0
  2307  04D1  1580               	bsf	indf,3
  2308  04D2  30AF               	movlw	(0AFh)
  2309  04D3  00DA               	movwf	(??_main+0)+0
  2310  04D4  0821               	movf	(_Dimmer),w
  2311  04D5  3E0F               	addlw	0Fh
  2312  04D6  0084               	movwf	fsr0
  2313  04D7  085A               	movf	(??_main+0)+0,w
  2314  04D8  0080               	movwf	indf
  2315  04D9  2CEF               	goto	l923
  2316                           	
  2317  04DA                     l940:	
  2318                           	
  2319  04DA                     l3166:	
  2320  04DA  3065               	movlw	(065h)
  2321  04DB  00DA               	movwf	(??_main+0)+0
  2322  04DC  0821               	movf	(_Dimmer),w
  2323  04DD  3E0F               	addlw	0Fh
  2324  04DE  0084               	movwf	fsr0
  2325  04DF  085A               	movf	(??_main+0)+0,w
  2326  04E0  0080               	movwf	indf
  2327  04E1  2CEF               	goto	l923
  2328                           	
  2329  04E2                     l941:	
  2330  04E2  2CEF               	goto	l923
  2331                           	
  2332  04E3                     l939:	
  2333  04E3  2CEF               	goto	l923
  2334                           	
  2335  04E4                     l937:	
  2336                           	
  2337  04E4                     l3168:	
  2338  04E4  3004               	movlw	(04h)
  2339  04E5  00DA               	movwf	(??_main+0)+0
  2340  04E6  0821               	movf	(_Dimmer),w
  2341  04E7  3E07               	addlw	07h
  2342  04E8  0084               	movwf	fsr0
  2343  04E9  085A               	movf	(??_main+0)+0,w
  2344  04EA  0080               	movwf	indf
  2345  04EB  2CEF               	goto	l923
  2346                           	
  2347  04EC                     l942:	
  2348  04EC  2CEF               	goto	l923
  2349                           	
  2350  04ED                     l934:	
  2351  04ED  2CEF               	goto	l923
  2352                           	
  2353  04EE                     l927:	
  2354  04EE  2CEF               	goto	l923
  2355                           	
  2356  04EF                     l924:	
  2357                           	
  2358  04EF                     l923:	
  2359  04EF  0823               	movf	(_PIR),w
  2360  04F0  3E20               	addlw	020h
  2361  04F1  0084               	movwf	fsr0
  2362  04F2  1C80               	btfss	indf,1
  2363  04F3  2CF5               	goto	u4211
  2364  04F4  2CF6               	goto	u4210
  2365  04F5                     u4211:
  2366  04F5  2F60               	goto	l3254
  2367  04F6                     u4210:
  2368                           	
  2369  04F6                     l3170:	
  2370  04F6  0823               	movf	(_PIR),w
  2371  04F7  3E20               	addlw	020h
  2372  04F8  0084               	movwf	fsr0
  2373  04F9  1C00               	btfss	indf,0
  2374  04FA  2CFC               	goto	u4221
  2375  04FB  2CFD               	goto	u4220
  2376  04FC                     u4221:
  2377  04FC  28BA               	goto	l2938
  2378  04FD                     u4220:
  2379                           	
  2380  04FD                     l3172:	
  2381  04FD  0823               	movf	(_PIR),w
  2382  04FE  3E20               	addlw	020h
  2383  04FF  0084               	movwf	fsr0
  2384  0500  1000               	bcf	indf,0
  2385  0501  0823               	movf	(_PIR),w
  2386  0502  3E20               	addlw	020h
  2387  0503  0084               	movwf	fsr0
  2388  0504  1D00               	btfss	indf,2
  2389  0505  2D07               	goto	u4231
  2390  0506  2D08               	goto	u4230
  2391  0507                     u4231:
  2392  0507  28BA               	goto	l2938
  2393  0508                     u4230:
  2394                           	
  2395  0508                     l3174:	
  2396  0508  0823               	movf	(_PIR),w
  2397  0509  3E29               	addlw	029h
  2398  050A  0084               	movwf	fsr0
  2399  050B  3064               	movlw	(064h)
  2400  050C  0200               	subwf	indf,w
  2401  050D  1803               	skipnc
  2402  050E  2D10               	goto	u4241
  2403  050F  2D11               	goto	u4240
  2404  0510                     u4241:
  2405  0510  2D19               	goto	l3178
  2406  0511                     u4240:
  2407                           	
  2408  0511                     l3176:	
  2409  0511  3001               	movlw	(01h)
  2410  0512  00DA               	movwf	(??_main+0)+0
  2411  0513  0823               	movf	(_PIR),w
  2412  0514  3E29               	addlw	029h
  2413  0515  0084               	movwf	fsr0
  2414  0516  085A               	movf	(??_main+0)+0,w
  2415  0517  0780               	addwf	indf,f
  2416  0518  2DAC               	goto	l3206
  2417                           	
  2418  0519                     l946:	
  2419                           	
  2420  0519                     l3178:	
  2421  0519  0823               	movf	(_PIR),w
  2422  051A  3E29               	addlw	029h
  2423  051B  0084               	movwf	fsr0
  2424  051C  0180               	clrf	indf
  2425  051D  0823               	movf	(_PIR),w
  2426  051E  3E2B               	addlw	02Bh
  2427  051F  0084               	movwf	fsr0
  2428  0520  305A               	movlw	(05Ah)
  2429  0521  0200               	subwf	indf,w
  2430  0522  1C03               	skipc
  2431  0523  2D25               	goto	u4251
  2432  0524  2D26               	goto	u4250
  2433  0525                     u4251:
  2434  0525  2D56               	goto	l3188
  2435  0526                     u4250:
  2436                           	
  2437  0526                     l3180:	
  2438  0526  0823               	movf	(_PIR),w
  2439  0527  3E2B               	addlw	02Bh
  2440  0528  0084               	movwf	fsr0
  2441  0529  0180               	clrf	indf
  2442  052A  0823               	movf	(_PIR),w
  2443  052B  3E2A               	addlw	02Ah
  2444  052C  0084               	movwf	fsr0
  2445  052D  0180               	clrf	indf
  2446  052E  0823               	movf	(_PIR),w
  2447  052F  3E2D               	addlw	02Dh
  2448  0530  0084               	movwf	fsr0
  2449  0531  0180               	clrf	indf
  2450  0532  0823               	movf	(_PIR),w
  2451  0533  3E2C               	addlw	02Ch
  2452  0534  0084               	movwf	fsr0
  2453  0535  0800               	movf	indf,w
  2454  0536  3A19               	xorlw	019h
  2455  0537  1D03               	skipz
  2456  0538  2D3A               	goto	u4261
  2457  0539  2D3B               	goto	u4260
  2458  053A                     u4261:
  2459  053A  2D43               	goto	l3184
  2460  053B                     u4260:
  2461                           	
  2462  053B                     l3182:	
  2463  053B  3023               	movlw	(023h)
  2464  053C  00DA               	movwf	(??_main+0)+0
  2465  053D  0823               	movf	(_PIR),w
  2466  053E  3E2C               	addlw	02Ch
  2467  053F  0084               	movwf	fsr0
  2468  0540  085A               	movf	(??_main+0)+0,w
  2469  0541  0080               	movwf	indf
  2470  0542  2DAC               	goto	l3206
  2471                           	
  2472  0543                     l949:	
  2473                           	
  2474  0543                     l3184:	
  2475  0543  0823               	movf	(_PIR),w
  2476  0544  3E2C               	addlw	02Ch
  2477  0545  0084               	movwf	fsr0
  2478  0546  0800               	movf	indf,w
  2479  0547  3A23               	xorlw	023h
  2480  0548  1D03               	skipz
  2481  0549  2D4B               	goto	u4271
  2482  054A  2D4C               	goto	u4270
  2483  054B                     u4271:
  2484  054B  2DAC               	goto	l3206
  2485  054C                     u4270:
  2486                           	
  2487  054C                     l3186:	
  2488  054C  302D               	movlw	(02Dh)
  2489  054D  00DA               	movwf	(??_main+0)+0
  2490  054E  0823               	movf	(_PIR),w
  2491  054F  3E2C               	addlw	02Ch
  2492  0550  0084               	movwf	fsr0
  2493  0551  085A               	movf	(??_main+0)+0,w
  2494  0552  0080               	movwf	indf
  2495  0553  2DAC               	goto	l3206
  2496                           	
  2497  0554                     l951:	
  2498  0554  2DAC               	goto	l3206
  2499                           	
  2500  0555                     l950:	
  2501  0555  2DAC               	goto	l3206
  2502                           	
  2503  0556                     l948:	
  2504                           	
  2505  0556                     l3188:	
  2506  0556  0823               	movf	(_PIR),w
  2507  0557  3E2B               	addlw	02Bh
  2508  0558  0084               	movwf	fsr0
  2509  0559  0800               	movf	indf,w
  2510  055A  00DA               	movwf	(??_main+0)+0
  2511  055B  0823               	movf	(_PIR),w
  2512  055C  3E2D               	addlw	02Dh
  2513  055D  0084               	movwf	fsr0
  2514  055E  085A               	movf	(??_main+0)+0,w
  2515  055F  0780               	addwf	indf,f
  2516                           	
  2517  0560                     l3190:	
  2518  0560  0823               	movf	(_PIR),w
  2519  0561  3E2B               	addlw	02Bh
  2520  0562  0084               	movwf	fsr0
  2521  0563  0180               	clrf	indf
  2522                           	
  2523  0564                     l3192:	
  2524  0564  0823               	movf	(_PIR),w
  2525  0565  3E2A               	addlw	02Ah
  2526  0566  0084               	movwf	fsr0
  2527  0567  3006               	movlw	(06h)
  2528  0568  0200               	subwf	indf,w
  2529  0569  1803               	skipnc
  2530  056A  2D6C               	goto	u4281
  2531  056B  2D6D               	goto	u4280
  2532  056C                     u4281:
  2533  056C  2D75               	goto	l3196
  2534  056D                     u4280:
  2535                           	
  2536  056D                     l3194:	
  2537  056D  3001               	movlw	(01h)
  2538  056E  00DA               	movwf	(??_main+0)+0
  2539  056F  0823               	movf	(_PIR),w
  2540  0570  3E2A               	addlw	02Ah
  2541  0571  0084               	movwf	fsr0
  2542  0572  085A               	movf	(??_main+0)+0,w
  2543  0573  0780               	addwf	indf,f
  2544  0574  2DAC               	goto	l3206
  2545                           	
  2546  0575                     l953:	
  2547                           	
  2548  0575                     l3196:	
  2549  0575  0823               	movf	(_PIR),w
  2550  0576  3E2A               	addlw	02Ah
  2551  0577  0084               	movwf	fsr0
  2552  0578  0180               	clrf	indf
  2553  0579  0823               	movf	(_PIR),w
  2554  057A  3E2D               	addlw	02Dh
  2555  057B  0084               	movwf	fsr0
  2556  057C  300B               	movlw	(0Bh)
  2557  057D  0200               	subwf	indf,w
  2558  057E  1803               	skipnc
  2559  057F  2D81               	goto	u4291
  2560  0580  2D82               	goto	u4290
  2561  0581                     u4291:
  2562  0581  2DAC               	goto	l3206
  2563  0582                     u4290:
  2564                           	
  2565  0582                     l3198:	
  2566  0582  0823               	movf	(_PIR),w
  2567  0583  3E2C               	addlw	02Ch
  2568  0584  0084               	movwf	fsr0
  2569  0585  0800               	movf	indf,w
  2570  0586  3A2D               	xorlw	02Dh
  2571  0587  1D03               	skipz
  2572  0588  2D8A               	goto	u4301
  2573  0589  2D8B               	goto	u4300
  2574  058A                     u4301:
  2575  058A  2D93               	goto	l3202
  2576  058B                     u4300:
  2577                           	
  2578  058B                     l3200:	
  2579  058B  3023               	movlw	(023h)
  2580  058C  00DA               	movwf	(??_main+0)+0
  2581  058D  0823               	movf	(_PIR),w
  2582  058E  3E2C               	addlw	02Ch
  2583  058F  0084               	movwf	fsr0
  2584  0590  085A               	movf	(??_main+0)+0,w
  2585  0591  0080               	movwf	indf
  2586  0592  2DA4               	goto	l957
  2587                           	
  2588  0593                     l956:	
  2589                           	
  2590  0593                     l3202:	
  2591  0593  0823               	movf	(_PIR),w
  2592  0594  3E2C               	addlw	02Ch
  2593  0595  0084               	movwf	fsr0
  2594  0596  0800               	movf	indf,w
  2595  0597  3A23               	xorlw	023h
  2596  0598  1D03               	skipz
  2597  0599  2D9B               	goto	u4311
  2598  059A  2D9C               	goto	u4310
  2599  059B                     u4311:
  2600  059B  2DA4               	goto	l957
  2601  059C                     u4310:
  2602                           	
  2603  059C                     l3204:	
  2604  059C  3019               	movlw	(019h)
  2605  059D  00DA               	movwf	(??_main+0)+0
  2606  059E  0823               	movf	(_PIR),w
  2607  059F  3E2C               	addlw	02Ch
  2608  05A0  0084               	movwf	fsr0
  2609  05A1  085A               	movf	(??_main+0)+0,w
  2610  05A2  0080               	movwf	indf
  2611  05A3  2DA4               	goto	l957
  2612                           	
  2613  05A4                     l958:	
  2614                           	
  2615  05A4                     l957:	
  2616  05A4  0823               	movf	(_PIR),w
  2617  05A5  3E2D               	addlw	02Dh
  2618  05A6  0084               	movwf	fsr0
  2619  05A7  0180               	clrf	indf
  2620  05A8  2DAC               	goto	l3206
  2621                           	
  2622  05A9                     l955:	
  2623  05A9  2DAC               	goto	l3206
  2624                           	
  2625  05AA                     l954:	
  2626  05AA  2DAC               	goto	l3206
  2627                           	
  2628  05AB                     l952:	
  2629  05AB  2DAC               	goto	l3206
  2630                           	
  2631  05AC                     l947:	
  2632                           	
  2633  05AC                     l3206:	
  2634  05AC  0823               	movf	(_PIR),w
  2635  05AD  3E2E               	addlw	02Eh
  2636  05AE  0084               	movwf	fsr
  2637  05AF  0800               	movf	indf,w
  2638  05B0  00DA               	movwf	(??_main+0)+0
  2639  05B1  0823               	movf	(_PIR),w
  2640  05B2  3E2C               	addlw	02Ch
  2641  05B3  0084               	movwf	fsr0
  2642  05B4  0800               	movf	indf,w
  2643  05B5  075A               	addwf	(??_main+0)+0,w
  2644  05B6  00DB               	movwf	(??_main+1)+0
  2645  05B7  01DC               	clrf	(??_main+1)+0+1
  2646  05B8  0DDC               	rlf	1+(??_main+1)+0,f
  2647                           	
  2648  05B9  09DB               	comf	(??_main+1)+0,f
  2649  05BA  09DC               	comf	(??_main+1)+1,f
  2650  05BB  0ADB               	incf	(??_main+1)+0,f
  2651  05BC  1903               	skipnz
  2652  05BD  0ADC               	incf	(??_main+1)+1,f
  2653  05BE  0823               	movf	(_PIR),w
  2654  05BF  3E07               	addlw	07h
  2655  05C0  0084               	movwf	fsr0
  2656  05C1  0800               	movf	indf,w
  2657  05C2  075B               	addwf	0+(??_main+1)+0,w
  2658  05C3  00DD               	movwf	(??_main+3)+0
  2659  05C4  085C               	movf	1+(??_main+1)+0,w
  2660  05C5  1803               	skipnc
  2661  05C6  0A5C               	incf	1+(??_main+1)+0,w
  2662  05C7  00DE               	movwf	((??_main+3)+0)+1
  2663  05C8  0823               	movf	(_PIR),w
  2664  05C9  3E03               	addlw	03h
  2665  05CA  0084               	movwf	fsr0
  2666  05CB  085E               	movf	1+(??_main+3)+0,w
  2667  05CC  3A80               	xorlw	80h
  2668  05CD  3C80               	sublw	080h
  2669  05CE  1D03               	skipz
  2670  05CF  2DD2               	goto	u4325
  2671  05D0  085D               	movf	0+(??_main+3)+0,w
  2672  05D1  0200               	subwf	indf,w
  2673  05D2                     u4325:
  2674                           
  2675  05D2  1C03               	skipc
  2676  05D3  2DD5               	goto	u4321
  2677  05D4  2DD6               	goto	u4320
  2678  05D5                     u4321:
  2679  05D5  2EA1               	goto	l3232
  2680  05D6                     u4320:
  2681                           	
  2682  05D6                     l3208:	
  2683  05D6  1283               	bcf	status, 5	;RP0=0, select bank0
  2684  05D7  1303               	bcf	status, 6	;RP1=0, select bank0
  2685  05D8  0823               	movf	(_PIR),w
  2686  05D9  3E2E               	addlw	02Eh
  2687  05DA  0084               	movwf	fsr
  2688  05DB  1383               	bcf	status, 7	;select IRP bank0
  2689  05DC  0800               	movf	indf,w
  2690  05DD  00DA               	movwf	(??_main+0)+0
  2691  05DE  0823               	movf	(_PIR),w
  2692  05DF  3E2C               	addlw	02Ch
  2693  05E0  0084               	movwf	fsr0
  2694  05E1  0800               	movf	indf,w
  2695  05E2  075A               	addwf	(??_main+0)+0,w
  2696  05E3  00DB               	movwf	(??_main+1)+0
  2697  05E4  01DC               	clrf	(??_main+1)+0+1
  2698  05E5  0DDC               	rlf	1+(??_main+1)+0,f
  2699                           	
  2700  05E6  0823               	movf	(_PIR),w
  2701  05E7  3E07               	addlw	07h
  2702  05E8  0084               	movwf	fsr0
  2703  05E9  0800               	movf	indf,w
  2704  05EA  075B               	addwf	0+(??_main+1)+0,w
  2705  05EB  00DD               	movwf	(??_main+3)+0
  2706  05EC  3000               	movlw	0
  2707  05ED  1803               	skipnc
  2708  05EE  3001               	movlw	1
  2709  05EF  075C               	addwf	1+(??_main+1)+0,w
  2710  05F0  00DE               	movwf	1+(??_main+3)+0
  2711  05F1  0823               	movf	(_PIR),w
  2712  05F2  3E03               	addlw	03h
  2713  05F3  0084               	movwf	fsr0
  2714  05F4  085E               	movf	1+(??_main+3)+0,w
  2715  05F5  3A80               	xorlw	80h
  2716  05F6  00DF               	movwf	(??_main+5)+0
  2717  05F7  3080               	movlw	80h
  2718  05F8  025F               	subwf	(??_main+5)+0,w
  2719  05F9  1D03               	skipz
  2720  05FA  2DFD               	goto	u4335
  2721  05FB  0800               	movf	indf,w
  2722  05FC  025D               	subwf	0+(??_main+3)+0,w
  2723  05FD                     u4335:
  2724                           
  2725  05FD  1C03               	skipc
  2726  05FE  2E00               	goto	u4331
  2727  05FF  2E01               	goto	u4330
  2728  0600                     u4331:
  2729  0600  2EA1               	goto	l3232
  2730  0601                     u4330:
  2731                           	
  2732  0601                     l3210:	
  2733  0601  1283               	bcf	status, 5	;RP0=0, select bank0
  2734  0602  1303               	bcf	status, 6	;RP1=0, select bank0
  2735  0603  0823               	movf	(_PIR),w
  2736  0604  3E21               	addlw	021h
  2737  0605  0084               	movwf	fsr0
  2738  0606  3000               	movlw	low(0)
  2739  0607  1383               	bcf	status, 7	;select IRP bank0
  2740  0608  0080               	movwf	indf
  2741  0609  0A84               	incf	fsr0,f
  2742  060A  3000               	movlw	high(0)
  2743  060B  0080               	movwf	indf
  2744  060C  2E0E               	goto	l960
  2745                           	
  2746  060D                     l961:	
  2747  060D  1686               	bsf	(53/8),(53)&7
  2748                           	
  2749  060E                     l960:	
  2750  060E  1E86               	btfss	(53/8),(53)&7
  2751  060F  2E11               	goto	u4341
  2752  0610  2E12               	goto	u4340
  2753  0611                     u4341:
  2754  0611  2E0D               	goto	l961
  2755  0612                     u4340:
  2756  0612  2E15               	goto	l963
  2757                           	
  2758  0613                     l962:	
  2759  0613  2E15               	goto	l963
  2760                           	
  2761  0614                     l964:	
  2762  0614  1606               	bsf	(52/8),(52)&7
  2763                           	
  2764  0615                     l963:	
  2765  0615  1E06               	btfss	(52/8),(52)&7
  2766  0616  2E18               	goto	u4351
  2767  0617  2E19               	goto	u4350
  2768  0618                     u4351:
  2769  0618  2E14               	goto	l964
  2770  0619                     u4350:
  2771  0619  2E1A               	goto	l3212
  2772                           	
  2773  061A                     l965:	
  2774                           	
  2775  061A                     l3212:	
  2776  061A  0823               	movf	(_PIR),w
  2777  061B  3E24               	addlw	024h
  2778  061C  0084               	movwf	fsr0
  2779  061D  3001               	movlw	01h
  2780  061E  1383               	bcf	status, 7	;select IRP bank0
  2781  061F  0780               	addwf	indf,f
  2782  0620  0A84               	incf	fsr0,f
  2783  0621  1803               	skipnc
  2784  0622  0A80               	incf	indf,f
  2785                           	
  2786  0623                     l3214:	
  2787  0623  0823               	movf	(_PIR),w
  2788  0624  3E26               	addlw	026h
  2789  0625  0084               	movwf	fsr0
  2790  0626  0800               	movf	indf,w
  2791  0627  00DA               	movwf	(??_main+0)+0+0
  2792  0628  0A84               	incf	fsr0,f
  2793  0629  0800               	movf	indf,w
  2794  062A  00DB               	movwf	(??_main+0)+0+1
  2795  062B  0823               	movf	(_PIR),w
  2796  062C  3E24               	addlw	024h
  2797  062D  0084               	movwf	fsr0
  2798  062E  0800               	movf	indf,w
  2799  062F  00DC               	movwf	(??_main+2)+0+0
  2800  0630  0A84               	incf	fsr0,f
  2801  0631  0800               	movf	indf,w
  2802  0632  00DD               	movwf	(??_main+2)+0+1
  2803  0633  085B               	movf	1+(??_main+0)+0,w
  2804  0634  065D               	xorwf	1+(??_main+2)+0,w
  2805  0635  1D03               	skipz
  2806  0636  2E39               	goto	u4365
  2807  0637  085A               	movf	0+(??_main+0)+0,w
  2808  0638  065C               	xorwf	0+(??_main+2)+0,w
  2809  0639                     u4365:
  2810                           
  2811  0639  1D03               	skipz
  2812  063A  2E3C               	goto	u4361
  2813  063B  2E3D               	goto	u4360
  2814  063C                     u4361:
  2815  063C  28BA               	goto	l2938
  2816  063D                     u4360:
  2817                           	
  2818  063D                     l3216:	
  2819  063D  0823               	movf	(_PIR),w
  2820  063E  3E24               	addlw	024h
  2821  063F  0084               	movwf	fsr0
  2822  0640  3000               	movlw	low(0)
  2823  0641  0080               	movwf	indf
  2824  0642  0A84               	incf	fsr0,f
  2825  0643  3000               	movlw	high(0)
  2826  0644  0080               	movwf	indf
  2827  0645  0821               	movf	(_Dimmer),w
  2828  0646  3E0A               	addlw	0Ah
  2829  0647  0084               	movwf	fsr0
  2830  0648  1880               	btfsc	indf,1
  2831  0649  2E4B               	goto	u4371
  2832  064A  2E4C               	goto	u4370
  2833  064B                     u4371:
  2834  064B  2E54               	goto	l3220
  2835  064C                     u4370:
  2836                           	
  2837  064C                     l3218:	
  2838  064C  0821               	movf	(_Dimmer),w
  2839  064D  3E0A               	addlw	0Ah
  2840  064E  0084               	movwf	fsr0
  2841  064F  1D80               	btfss	indf,3
  2842  0650  2E52               	goto	u4381
  2843  0651  2E53               	goto	u4380
  2844  0652                     u4381:
  2845  0652  28BA               	goto	l2938
  2846  0653                     u4380:
  2847  0653  2E54               	goto	l3220
  2848                           	
  2849  0654                     l969:	
  2850                           	
  2851  0654                     l3220:	
  2852  0654  0821               	movf	(_Dimmer),w
  2853  0655  3E0A               	addlw	0Ah
  2854  0656  0084               	movwf	fsr0
  2855  0657  1080               	bcf	indf,1
  2856  0658  0821               	movf	(_Dimmer),w
  2857  0659  3E0A               	addlw	0Ah
  2858  065A  0084               	movwf	fsr0
  2859  065B  1400               	bsf	indf,0
  2860  065C  0821               	movf	(_Dimmer),w
  2861  065D  3E0A               	addlw	0Ah
  2862  065E  0084               	movwf	fsr0
  2863  065F  1D80               	btfss	indf,3
  2864  0660  2E62               	goto	u4391
  2865  0661  2E63               	goto	u4390
  2866  0662                     u4391:
  2867  0662  2E72               	goto	l3224
  2868  0663                     u4390:
  2869                           	
  2870  0663                     l3222:	
  2871  0663  30AF               	movlw	(0AFh)
  2872  0664  00DA               	movwf	(??_main+0)+0
  2873  0665  0821               	movf	(_Dimmer),w
  2874  0666  3E0F               	addlw	0Fh
  2875  0667  0084               	movwf	fsr0
  2876  0668  085A               	movf	(??_main+0)+0,w
  2877  0669  0080               	movwf	indf
  2878  066A  3004               	movlw	(04h)
  2879  066B  00DA               	movwf	(??_main+0)+0
  2880  066C  0821               	movf	(_Dimmer),w
  2881  066D  3E07               	addlw	07h
  2882  066E  0084               	movwf	fsr0
  2883  066F  085A               	movf	(??_main+0)+0,w
  2884  0670  0080               	movwf	indf
  2885  0671  28BA               	goto	l2938
  2886                           	
  2887  0672                     l971:	
  2888                           	
  2889  0672                     l3224:	
  2890  0672  3002               	movlw	(02h)
  2891  0673  00DA               	movwf	(??_main+0)+0
  2892  0674  0821               	movf	(_Dimmer),w
  2893  0675  3E07               	addlw	07h
  2894  0676  0084               	movwf	fsr0
  2895  0677  085A               	movf	(??_main+0)+0,w
  2896  0678  0080               	movwf	indf
  2897  0679  0823               	movf	(_PIR),w
  2898  067A  3E20               	addlw	020h
  2899  067B  0084               	movwf	fsr0
  2900  067C  1900               	btfsc	indf,2
  2901  067D  2E7F               	goto	u4401
  2902  067E  2E80               	goto	u4400
  2903  067F                     u4401:
  2904  067F  2E8C               	goto	l3228
  2905  0680                     u4400:
  2906                           	
  2907  0680                     l3226:	
  2908  0680  0821               	movf	(_Dimmer),w
  2909  0681  3E0A               	addlw	0Ah
  2910  0682  0084               	movwf	fsr0
  2911  0683  1580               	bsf	indf,3
  2912  0684  30AF               	movlw	(0AFh)
  2913  0685  00DA               	movwf	(??_main+0)+0
  2914  0686  0821               	movf	(_Dimmer),w
  2915  0687  3E0F               	addlw	0Fh
  2916  0688  0084               	movwf	fsr0
  2917  0689  085A               	movf	(??_main+0)+0,w
  2918  068A  0080               	movwf	indf
  2919  068B  28BA               	goto	l2938
  2920                           	
  2921  068C                     l973:	
  2922                           	
  2923  068C                     l3228:	
  2924  068C  3065               	movlw	(065h)
  2925  068D  00DA               	movwf	(??_main+0)+0
  2926  068E  0821               	movf	(_Dimmer),w
  2927  068F  3E0F               	addlw	0Fh
  2928  0690  0084               	movwf	fsr0
  2929  0691  085A               	movf	(??_main+0)+0,w
  2930  0692  0080               	movwf	indf
  2931  0693  28BA               	goto	l2938
  2932                           	
  2933  0694                     l974:	
  2934  0694  28BA               	goto	l2938
  2935                           	
  2936  0695                     l972:	
  2937  0695  28BA               	goto	l2938
  2938                           	
  2939  0696                     l970:	
  2940                           	
  2941  0696                     l3230:	
  2942  0696  3004               	movlw	(04h)
  2943  0697  00DA               	movwf	(??_main+0)+0
  2944  0698  0821               	movf	(_Dimmer),w
  2945  0699  3E07               	addlw	07h
  2946  069A  0084               	movwf	fsr0
  2947  069B  085A               	movf	(??_main+0)+0,w
  2948  069C  0080               	movwf	indf
  2949  069D  28BA               	goto	l2938
  2950                           	
  2951  069E                     l975:	
  2952  069E  28BA               	goto	l2938
  2953                           	
  2954  069F                     l967:	
  2955  069F  28BA               	goto	l2938
  2956                           	
  2957  06A0                     l966:	
  2958  06A0  28BA               	goto	l2938
  2959                           	
  2960  06A1                     l959:	
  2961                           	
  2962  06A1                     l3232:	
  2963  06A1  3001               	movlw	(01h)
  2964  06A2  1283               	bcf	status, 5	;RP0=0, select bank0
  2965  06A3  1303               	bcf	status, 6	;RP1=0, select bank0
  2966  06A4  00DA               	movwf	(??_main+0)+0
  2967  06A5  0823               	movf	(_PIR),w
  2968  06A6  3E2B               	addlw	02Bh
  2969  06A7  0084               	movwf	fsr0
  2970  06A8  085A               	movf	(??_main+0)+0,w
  2971  06A9  1383               	bcf	status, 7	;select IRP bank0
  2972  06AA  0780               	addwf	indf,f
  2973  06AB  0823               	movf	(_PIR),w
  2974  06AC  3E21               	addlw	021h
  2975  06AD  0084               	movwf	fsr0
  2976  06AE  3001               	movlw	01h
  2977  06AF  0780               	addwf	indf,f
  2978  06B0  0A84               	incf	fsr0,f
  2979  06B1  1803               	skipnc
  2980  06B2  0A80               	incf	indf,f
  2981                           	
  2982  06B3                     l3234:	
  2983  06B3  0823               	movf	(_PIR),w
  2984  06B4  3E21               	addlw	021h
  2985  06B5  0084               	movwf	fsr0
  2986  06B6  0800               	movf	indf,w
  2987  06B7  00DA               	movwf	(??_main+0)+0+0
  2988  06B8  0A84               	incf	fsr0,f
  2989  06B9  0800               	movf	indf,w
  2990  06BA  00DB               	movwf	(??_main+0)+0+1
  2991  06BB  0823               	movf	(_PIR),w
  2992  06BC  3E23               	addlw	023h
  2993  06BD  0084               	movwf	fsr0
  2994  06BE  0800               	movf	indf,w
  2995  06BF  00DC               	movwf	(??_main+2)+0
  2996  06C0  01DD               	clrf	(??_main+2)+0+1
  2997  06C1  085B               	movf	1+(??_main+0)+0,w
  2998  06C2  065D               	xorwf	1+(??_main+2)+0,w
  2999  06C3  1D03               	skipz
  3000  06C4  2EC7               	goto	u4415
  3001  06C5  085A               	movf	0+(??_main+0)+0,w
  3002  06C6  065C               	xorwf	0+(??_main+2)+0,w
  3003  06C7                     u4415:
  3004                           
  3005  06C7  1D03               	skipz
  3006  06C8  2ECA               	goto	u4411
  3007  06C9  2ECB               	goto	u4410
  3008  06CA                     u4411:
  3009  06CA  2F02               	goto	l977
  3010  06CB                     u4410:
  3011                           	
  3012  06CB                     l3236:	
  3013  06CB  0823               	movf	(_PIR),w
  3014  06CC  3E21               	addlw	021h
  3015  06CD  0084               	movwf	fsr0
  3016  06CE  3000               	movlw	low(0)
  3017  06CF  0080               	movwf	indf
  3018  06D0  0A84               	incf	fsr0,f
  3019  06D1  3000               	movlw	high(0)
  3020  06D2  0080               	movwf	indf
  3021  06D3  0823               	movf	(_PIR),w
  3022  06D4  3E24               	addlw	024h
  3023  06D5  0084               	movwf	fsr0
  3024  06D6  3000               	movlw	low(0)
  3025  06D7  0080               	movwf	indf
  3026  06D8  0A84               	incf	fsr0,f
  3027  06D9  3000               	movlw	high(0)
  3028  06DA  0080               	movwf	indf
  3029  06DB  0821               	movf	(_Dimmer),w
  3030  06DC  3E0A               	addlw	0Ah
  3031  06DD  0084               	movwf	fsr0
  3032  06DE  1880               	btfsc	indf,1
  3033  06DF  2EE1               	goto	u4421
  3034  06E0  2EE2               	goto	u4420
  3035  06E1                     u4421:
  3036  06E1  2F02               	goto	l977
  3037  06E2                     u4420:
  3038                           	
  3039  06E2                     l3238:	
  3040  06E2  0821               	movf	(_Dimmer),w
  3041  06E3  3E0A               	addlw	0Ah
  3042  06E4  0084               	movwf	fsr0
  3043  06E5  1480               	bsf	indf,1
  3044  06E6  0821               	movf	(_Dimmer),w
  3045  06E7  3E0A               	addlw	0Ah
  3046  06E8  0084               	movwf	fsr0
  3047  06E9  1400               	bsf	indf,0
  3048                           	
  3049  06EA                     l3240:	
  3050  06EA  0821               	movf	(_Dimmer),w
  3051  06EB  3E07               	addlw	07h
  3052  06EC  0084               	movwf	fsr0
  3053  06ED  0180               	clrf	indf
  3054  06EE  1403               	bsf	status,0
  3055  06EF  0D80               	rlf	indf,f
  3056  06F0  2EF1               	goto	l3242
  3057                           	
  3058  06F1                     l981:	
  3059                           	
  3060  06F1                     l3242:	
  3061  06F1  0821               	movf	(_Dimmer),w
  3062  06F2  3E0A               	addlw	0Ah
  3063  06F3  0084               	movwf	fsr0
  3064  06F4  1500               	bsf	indf,2
  3065  06F5  2EF6               	goto	l3244
  3066                           	
  3067  06F6                     l979:	
  3068                           	
  3069  06F6                     l3244:	
  3070  06F6  0823               	movf	(_PIR),w
  3071  06F7  3E2E               	addlw	02Eh
  3072  06F8  0084               	movwf	fsr0
  3073  06F9  0180               	clrf	indf
  3074                           	
  3075  06FA                     l3246:	
  3076  06FA  3002               	movlw	(02h)
  3077  06FB  00DA               	movwf	(??_main+0)+0
  3078  06FC  0823               	movf	(_PIR),w
  3079  06FD  3E23               	addlw	023h
  3080  06FE  0084               	movwf	fsr0
  3081  06FF  085A               	movf	(??_main+0)+0,w
  3082  0700  0080               	movwf	indf
  3083  0701  2F02               	goto	l977
  3084                           	
  3085  0702                     l978:	
  3086                           	
  3087  0702                     l977:	
  3088  0702  0823               	movf	(_PIR),w
  3089  0703  3E2C               	addlw	02Ch
  3090  0704  0084               	movwf	fsr0
  3091  0705  0800               	movf	indf,w
  3092  0706  00DA               	movwf	(??_main+0)+0
  3093  0707  01DB               	clrf	(??_main+0)+0+1
  3094  0708  09DA               	comf	(??_main+0)+0,f
  3095  0709  09DB               	comf	(??_main+0)+1,f
  3096  070A  0ADA               	incf	(??_main+0)+0,f
  3097  070B  1903               	skipnz
  3098  070C  0ADB               	incf	(??_main+0)+1,f
  3099  070D  0823               	movf	(_PIR),w
  3100  070E  3E07               	addlw	07h
  3101  070F  0084               	movwf	fsr0
  3102  0710  0800               	movf	indf,w
  3103  0711  075A               	addwf	0+(??_main+0)+0,w
  3104  0712  00DC               	movwf	(??_main+2)+0
  3105  0713  085B               	movf	1+(??_main+0)+0,w
  3106  0714  1803               	skipnc
  3107  0715  0A5B               	incf	1+(??_main+0)+0,w
  3108  0716  00DD               	movwf	((??_main+2)+0)+1
  3109  0717  0823               	movf	(_PIR),w
  3110  0718  3E03               	addlw	03h
  3111  0719  0084               	movwf	fsr0
  3112  071A  085D               	movf	1+(??_main+2)+0,w
  3113  071B  3A80               	xorlw	80h
  3114  071C  3C80               	sublw	080h
  3115  071D  1D03               	skipz
  3116  071E  2F21               	goto	u4435
  3117  071F  085C               	movf	0+(??_main+2)+0,w
  3118  0720  0200               	subwf	indf,w
  3119  0721                     u4435:
  3120                           
  3121  0721  1803               	skipnc
  3122  0722  2F24               	goto	u4431
  3123  0723  2F25               	goto	u4430
  3124  0724                     u4431:
  3125  0724  2F30               	goto	l3250
  3126  0725                     u4430:
  3127  0725  2F28               	goto	l983
  3128                           	
  3129  0726                     l3248:	
  3130  0726  2F28               	goto	l983
  3131                           	
  3132  0727                     l984:	
  3133  0727  1606               	bsf	(52/8),(52)&7
  3134                           	
  3135  0728                     l983:	
  3136  0728  1283               	bcf	status, 5	;RP0=0, select bank0
  3137  0729  1303               	bcf	status, 6	;RP1=0, select bank0
  3138  072A  1E06               	btfss	(52/8),(52)&7
  3139  072B  2F2D               	goto	u4441
  3140  072C  2F2E               	goto	u4440
  3141  072D                     u4441:
  3142  072D  2F27               	goto	l984
  3143  072E                     u4440:
  3144                           	
  3145  072E                     l985:	
  3146  072E  1286               	bcf	(53/8),(53)&7
  3147  072F  28BA               	goto	l2938
  3148                           	
  3149  0730                     l982:	
  3150                           	
  3151  0730                     l3250:	
  3152  0730  1283               	bcf	status, 5	;RP0=0, select bank0
  3153  0731  1303               	bcf	status, 6	;RP1=0, select bank0
  3154  0732  0823               	movf	(_PIR),w
  3155  0733  3E2C               	addlw	02Ch
  3156  0734  0084               	movwf	fsr
  3157  0735  1383               	bcf	status, 7	;select IRP bank0
  3158  0736  0800               	movf	indf,w
  3159  0737  00DA               	movwf	(??_main+0)+0
  3160  0738  0823               	movf	(_PIR),w
  3161  0739  3E07               	addlw	07h
  3162  073A  0084               	movwf	fsr0
  3163  073B  0800               	movf	indf,w
  3164  073C  075A               	addwf	(??_main+0)+0,w
  3165  073D  00DB               	movwf	(??_main+1)+0
  3166  073E  01DC               	clrf	(??_main+1)+0+1
  3167  073F  0DDC               	rlf	1+(??_main+1)+0,f
  3168                           	
  3169  0740  0823               	movf	(_PIR),w
  3170  0741  3E03               	addlw	03h
  3171  0742  0084               	movwf	fsr0
  3172  0743  085C               	movf	1+(??_main+1)+0,w
  3173  0744  3A80               	xorlw	80h
  3174  0745  00DD               	movwf	(??_main+3)+0
  3175  0746  3080               	movlw	80h
  3176  0747  025D               	subwf	(??_main+3)+0,w
  3177  0748  1D03               	skipz
  3178  0749  2F4C               	goto	u4455
  3179  074A  0800               	movf	indf,w
  3180  074B  025B               	subwf	0+(??_main+1)+0,w
  3181  074C                     u4455:
  3182                           
  3183  074C  1803               	skipnc
  3184  074D  2F4F               	goto	u4451
  3185  074E  2F50               	goto	u4450
  3186  074F                     u4451:
  3187  074F  28BA               	goto	l2938
  3188  0750                     u4450:
  3189  0750  2F53               	goto	l988
  3190                           	
  3191  0751                     l3252:	
  3192  0751  2F53               	goto	l988
  3193                           	
  3194  0752                     l989:	
  3195  0752  1686               	bsf	(53/8),(53)&7
  3196                           	
  3197  0753                     l988:	
  3198  0753  1283               	bcf	status, 5	;RP0=0, select bank0
  3199  0754  1303               	bcf	status, 6	;RP1=0, select bank0
  3200  0755  1E86               	btfss	(53/8),(53)&7
  3201  0756  2F58               	goto	u4461
  3202  0757  2F59               	goto	u4460
  3203  0758                     u4461:
  3204  0758  2F52               	goto	l989
  3205  0759                     u4460:
  3206                           	
  3207  0759                     l990:	
  3208  0759  1206               	bcf	(52/8),(52)&7
  3209  075A  28BA               	goto	l2938
  3210                           	
  3211  075B                     l987:	
  3212  075B  28BA               	goto	l2938
  3213                           	
  3214  075C                     l986:	
  3215  075C  28BA               	goto	l2938
  3216                           	
  3217  075D                     l976:	
  3218  075D  28BA               	goto	l2938
  3219                           	
  3220  075E                     l945:	
  3221  075E  28BA               	goto	l2938
  3222                           	
  3223  075F                     l944:	
  3224  075F  28BA               	goto	l2938
  3225                           	
  3226  0760                     l943:	
  3227                           	
  3228  0760                     l3254:	
  3229  0760  0823               	movf	(_PIR),w
  3230  0761  3E21               	addlw	021h
  3231  0762  0084               	movwf	fsr0
  3232  0763  3001               	movlw	01h
  3233  0764  1383               	bcf	status, 7	;select IRP bank0
  3234  0765  0780               	addwf	indf,f
  3235  0766  0A84               	incf	fsr0,f
  3236  0767  1803               	skipnc
  3237  0768  0A80               	incf	indf,f
  3238                           	
  3239  0769                     l3256:	
  3240  0769  0823               	movf	(_PIR),w
  3241  076A  3E21               	addlw	021h
  3242  076B  0084               	movwf	fsr0
  3243  076C  0800               	movf	indf,w
  3244  076D  00DA               	movwf	(??_main+0)+0+0
  3245  076E  0A84               	incf	fsr0,f
  3246  076F  0800               	movf	indf,w
  3247  0770  00DB               	movwf	(??_main+0)+0+1
  3248  0771  3001               	movlw	high(012Ch)
  3249  0772  065B               	xorwf	1+(??_main+0)+0,w
  3250  0773  1D03               	skipz
  3251  0774  2F77               	goto	u4475
  3252  0775  302C               	movlw	low(012Ch)
  3253  0776  065A               	xorwf	0+(??_main+0)+0,w
  3254  0777                     u4475:
  3255                           
  3256  0777  1D03               	skipz
  3257  0778  2F7A               	goto	u4471
  3258  0779  2F7B               	goto	u4470
  3259  077A                     u4471:
  3260  077A  28BA               	goto	l2938
  3261  077B                     u4470:
  3262                           	
  3263  077B                     l3258:	
  3264  077B  0823               	movf	(_PIR),w
  3265  077C  3E21               	addlw	021h
  3266  077D  0084               	movwf	fsr0
  3267  077E  3000               	movlw	low(0)
  3268  077F  0080               	movwf	indf
  3269  0780  0A84               	incf	fsr0,f
  3270  0781  3000               	movlw	high(0)
  3271  0782  0080               	movwf	indf
  3272  0783  0823               	movf	(_PIR),w
  3273  0784  3E20               	addlw	020h
  3274  0785  0084               	movwf	fsr0
  3275  0786  1480               	bsf	indf,1
  3276  0787  2F89               	goto	l993
  3277                           	
  3278  0788                     l994:	
  3279  0788  1686               	bsf	(53/8),(53)&7
  3280                           	
  3281  0789                     l993:	
  3282  0789  1E86               	btfss	(53/8),(53)&7
  3283  078A  2F8C               	goto	u4481
  3284  078B  2F8D               	goto	u4480
  3285  078C                     u4481:
  3286  078C  2F88               	goto	l994
  3287  078D                     u4480:
  3288  078D  28BA               	goto	l2938
  3289                           	
  3290  078E                     l995:	
  3291  078E  28BA               	goto	l2938
  3292                           	
  3293  078F                     l992:	
  3294  078F  28BA               	goto	l2938
  3295                           	
  3296  0790                     l991:	
  3297  0790  28BA               	goto	l2938
  3298                           	
  3299  0791                     l897:	
  3300  0791  28BA               	goto	l2938
  3301                           	
  3302  0792                     l896:	
  3303  0792  28BA               	goto	l2938
  3304                           	line	165
  3305                           	
  3306  0793                     l850:	
  3307  0793  28BA               	goto	l2938
  3308                           	line	166
  3309                           	
  3310  0794                     l996:	
  3311                           	line	148
  3312  0794  28BA               	goto	l2938
  3313                           	
  3314  0795                     l997:	
  3315                           	line	167
  3316                           	
  3317  0795                     l998:	
  3318                           	global	start
  3319  0795  118A  2811         	ljmp	start
  3320                           	opt stack 0
  3321                           GLOBAL	__end_of_main
  3322  0797                     	__end_of_main:
  3323 ;; =============== function _main ends ============
  3324                           
  3325                           	signat	_main,88
  3326                           	global	___awdiv
  3327                           psect	text155,local,class=CODE,delta=2
  3328                           global __ptext155
  3329  0E4A                     __ptext155:
  3330                           
  3331 ;; *************** function ___awdiv *****************
  3332 ;; Defined at:
  3333 ;;		line 5 in file "C:\Program Files (x86)\HI-TECH Software\PICC\9.83\sources\awdiv.c"
  3334 ;; Parameters:    Size  Location     Type
  3335 ;;  divisor         2    0[BANK0 ] int 
  3336 ;;  dividend        2    2[BANK0 ] int 
  3337 ;; Auto vars:     Size  Location     Type
  3338 ;;  quotient        2    6[BANK0 ] int 
  3339 ;;  sign            1    5[BANK0 ] unsigned char 
  3340 ;;  counter         1    4[BANK0 ] unsigned char 
  3341 ;; Return value:  Size  Location     Type
  3342 ;;                  2    0[BANK0 ] int 
  3343 ;; Registers used:
  3344 ;;		wreg, status,2, status,0
  3345 ;; Tracked objects:
  3346 ;;		On entry : 0/0
  3347 ;;		On exit  : 0/0
  3348 ;;		Unchanged: 0/0
  3349 ;; Data sizes:     COMMON   BANK0   BANK1   BANK2
  3350 ;;      Params:         0       4       0       0
  3351 ;;      Locals:         0       4       0       0
  3352 ;;      Temps:          1       0       0       0
  3353 ;;      Totals:         1       8       0       0
  3354 ;;Total ram usage:        9 bytes
  3355 ;; Hardware stack levels used:    1
  3356 ;; Hardware stack levels required when called:    1
  3357 ;; This function calls:
  3358 ;;		Nothing
  3359 ;; This function is called by:
  3360 ;;		_main
  3361 ;; This function uses a non-reentrant model
  3362 ;;
  3363                           psect	text155
  3364                           	file	"C:\Program Files (x86)\HI-TECH Software\PICC\9.83\sources\awdiv.c"
  3365                           	line	5
  3366                           	global	__size_of___awdiv
  3367  0076                     	__size_of___awdiv	equ	__end_of___awdiv-___awdiv
  3368                           	
  3369  0E4A                     ___awdiv:	
  3370                           	opt	stack 6
  3371                           ; Regs used in ___awdiv: [wreg+status,2+status,0]
  3372                           	line	9
  3373                           	
  3374  0E4A                     l2824:	
  3375  0E4A  1283               	bcf	status, 5	;RP0=0, select bank0
  3376  0E4B  1303               	bcf	status, 6	;RP1=0, select bank0
  3377  0E4C  01D7               	clrf	(___awdiv@sign)
  3378                           	line	10
  3379  0E4D  1FD3               	btfss	(___awdiv@divisor+1),7
  3380  0E4E  2E50               	goto	u3531
  3381  0E4F  2E51               	goto	u3530
  3382  0E50                     u3531:
  3383  0E50  2E5A               	goto	l2828
  3384  0E51                     u3530:
  3385                           	line	11
  3386                           	
  3387  0E51                     l2826:	
  3388  0E51  09D2               	comf	(___awdiv@divisor),f
  3389  0E52  09D3               	comf	(___awdiv@divisor+1),f
  3390  0E53  0AD2               	incf	(___awdiv@divisor),f
  3391  0E54  1903               	skipnz
  3392  0E55  0AD3               	incf	(___awdiv@divisor+1),f
  3393                           	line	12
  3394  0E56  01D7               	clrf	(___awdiv@sign)
  3395  0E57  1403               	bsf	status,0
  3396  0E58  0DD7               	rlf	(___awdiv@sign),f
  3397  0E59  2E5A               	goto	l2828
  3398                           	line	13
  3399                           	
  3400  0E5A                     l1186:	
  3401                           	line	14
  3402                           	
  3403  0E5A                     l2828:	
  3404  0E5A  1FD5               	btfss	(___awdiv@dividend+1),7
  3405  0E5B  2E5D               	goto	u3541
  3406  0E5C  2E5E               	goto	u3540
  3407  0E5D                     u3541:
  3408  0E5D  2E68               	goto	l2834
  3409  0E5E                     u3540:
  3410                           	line	15
  3411                           	
  3412  0E5E                     l2830:	
  3413  0E5E  09D4               	comf	(___awdiv@dividend),f
  3414  0E5F  09D5               	comf	(___awdiv@dividend+1),f
  3415  0E60  0AD4               	incf	(___awdiv@dividend),f
  3416  0E61  1903               	skipnz
  3417  0E62  0AD5               	incf	(___awdiv@dividend+1),f
  3418                           	line	16
  3419                           	
  3420  0E63                     l2832:	
  3421  0E63  3001               	movlw	(01h)
  3422  0E64  00F6               	movwf	(??___awdiv+0)+0
  3423  0E65  0876               	movf	(??___awdiv+0)+0,w
  3424  0E66  06D7               	xorwf	(___awdiv@sign),f
  3425  0E67  2E68               	goto	l2834
  3426                           	line	17
  3427                           	
  3428  0E68                     l1187:	
  3429                           	line	18
  3430                           	
  3431  0E68                     l2834:	
  3432  0E68  01D8               	clrf	(___awdiv@quotient)
  3433  0E69  01D9               	clrf	(___awdiv@quotient+1)
  3434                           	line	19
  3435                           	
  3436  0E6A                     l2836:	
  3437  0E6A  0853               	movf	(___awdiv@divisor+1),w
  3438  0E6B  0452               	iorwf	(___awdiv@divisor),w
  3439  0E6C  1903               	skipnz
  3440  0E6D  2E6F               	goto	u3551
  3441  0E6E  2E70               	goto	u3550
  3442  0E6F                     u3551:
  3443  0E6F  2EAE               	goto	l2856
  3444  0E70                     u3550:
  3445                           	line	20
  3446                           	
  3447  0E70                     l2838:	
  3448  0E70  01D6               	clrf	(___awdiv@counter)
  3449  0E71  1403               	bsf	status,0
  3450  0E72  0DD6               	rlf	(___awdiv@counter),f
  3451                           	line	21
  3452  0E73  2E80               	goto	l2844
  3453                           	
  3454  0E74                     l1190:	
  3455                           	line	22
  3456                           	
  3457  0E74                     l2840:	
  3458  0E74  3001               	movlw	01h
  3459                           	
  3460  0E75                     u3565:
  3461  0E75  1003               	clrc
  3462  0E76  0DD2               	rlf	(___awdiv@divisor),f
  3463  0E77  0DD3               	rlf	(___awdiv@divisor+1),f
  3464  0E78  3EFF               	addlw	-1
  3465  0E79  1D03               	skipz
  3466  0E7A  2E75               	goto	u3565
  3467                           	line	23
  3468                           	
  3469  0E7B                     l2842:	
  3470  0E7B  3001               	movlw	(01h)
  3471  0E7C  00F6               	movwf	(??___awdiv+0)+0
  3472  0E7D  0876               	movf	(??___awdiv+0)+0,w
  3473  0E7E  07D6               	addwf	(___awdiv@counter),f
  3474  0E7F  2E80               	goto	l2844
  3475                           	line	24
  3476                           	
  3477  0E80                     l1189:	
  3478                           	line	21
  3479                           	
  3480  0E80                     l2844:	
  3481  0E80  1FD3               	btfss	(___awdiv@divisor+1),(15)&7
  3482  0E81  2E83               	goto	u3571
  3483  0E82  2E84               	goto	u3570
  3484  0E83                     u3571:
  3485  0E83  2E74               	goto	l2840
  3486  0E84                     u3570:
  3487  0E84  2E86               	goto	l2846
  3488                           	
  3489  0E85                     l1191:	
  3490  0E85  2E86               	goto	l2846
  3491                           	line	25
  3492                           	
  3493  0E86                     l1192:	
  3494                           	line	26
  3495                           	
  3496  0E86                     l2846:	
  3497  0E86  3001               	movlw	01h
  3498                           	
  3499  0E87                     u3585:
  3500  0E87  1003               	clrc
  3501  0E88  0DD8               	rlf	(___awdiv@quotient),f
  3502  0E89  0DD9               	rlf	(___awdiv@quotient+1),f
  3503  0E8A  3EFF               	addlw	-1
  3504  0E8B  1D03               	skipz
  3505  0E8C  2E87               	goto	u3585
  3506                           	line	27
  3507  0E8D  0853               	movf	(___awdiv@divisor+1),w
  3508  0E8E  0255               	subwf	(___awdiv@dividend+1),w
  3509  0E8F  1D03               	skipz
  3510  0E90  2E93               	goto	u3595
  3511  0E91  0852               	movf	(___awdiv@divisor),w
  3512  0E92  0254               	subwf	(___awdiv@dividend),w
  3513  0E93                     u3595:
  3514  0E93  1C03               	skipc
  3515  0E94  2E96               	goto	u3591
  3516  0E95  2E97               	goto	u3590
  3517  0E96                     u3591:
  3518  0E96  2E9F               	goto	l2852
  3519  0E97                     u3590:
  3520                           	line	28
  3521                           	
  3522  0E97                     l2848:	
  3523  0E97  0852               	movf	(___awdiv@divisor),w
  3524  0E98  02D4               	subwf	(___awdiv@dividend),f
  3525  0E99  0853               	movf	(___awdiv@divisor+1),w
  3526  0E9A  1C03               	skipc
  3527  0E9B  03D5               	decf	(___awdiv@dividend+1),f
  3528  0E9C  02D5               	subwf	(___awdiv@dividend+1),f
  3529                           	line	29
  3530                           	
  3531  0E9D                     l2850:	
  3532  0E9D  1458               	bsf	(___awdiv@quotient)+(0/8),(0)&7
  3533  0E9E  2E9F               	goto	l2852
  3534                           	line	30
  3535                           	
  3536  0E9F                     l1193:	
  3537                           	line	31
  3538                           	
  3539  0E9F                     l2852:	
  3540  0E9F  3001               	movlw	01h
  3541                           	
  3542  0EA0                     u3605:
  3543  0EA0  1003               	clrc
  3544  0EA1  0CD3               	rrf	(___awdiv@divisor+1),f
  3545  0EA2  0CD2               	rrf	(___awdiv@divisor),f
  3546  0EA3  3EFF               	addlw	-1
  3547  0EA4  1D03               	skipz
  3548  0EA5  2EA0               	goto	u3605
  3549                           	line	32
  3550                           	
  3551  0EA6                     l2854:	
  3552  0EA6  3001               	movlw	low(01h)
  3553  0EA7  02D6               	subwf	(___awdiv@counter),f
  3554  0EA8  1D03               	btfss	status,2
  3555  0EA9  2EAB               	goto	u3611
  3556  0EAA  2EAC               	goto	u3610
  3557  0EAB                     u3611:
  3558  0EAB  2E86               	goto	l2846
  3559  0EAC                     u3610:
  3560  0EAC  2EAE               	goto	l2856
  3561                           	
  3562  0EAD                     l1194:	
  3563  0EAD  2EAE               	goto	l2856
  3564                           	line	33
  3565                           	
  3566  0EAE                     l1188:	
  3567                           	line	34
  3568                           	
  3569  0EAE                     l2856:	
  3570  0EAE  0857               	movf	(___awdiv@sign),w
  3571  0EAF  1D03               	skipz
  3572  0EB0  2EB2               	goto	u3620
  3573  0EB1  2EB8               	goto	l2860
  3574  0EB2                     u3620:
  3575                           	line	35
  3576                           	
  3577  0EB2                     l2858:	
  3578  0EB2  09D8               	comf	(___awdiv@quotient),f
  3579  0EB3  09D9               	comf	(___awdiv@quotient+1),f
  3580  0EB4  0AD8               	incf	(___awdiv@quotient),f
  3581  0EB5  1903               	skipnz
  3582  0EB6  0AD9               	incf	(___awdiv@quotient+1),f
  3583  0EB7  2EB8               	goto	l2860
  3584                           	
  3585  0EB8                     l1195:	
  3586                           	line	36
  3587                           	
  3588  0EB8                     l2860:	
  3589  0EB8  0859               	movf	(___awdiv@quotient+1),w
  3590  0EB9  01D3               	clrf	(?___awdiv+1)
  3591  0EBA  07D3               	addwf	(?___awdiv+1)
  3592  0EBB  0858               	movf	(___awdiv@quotient),w
  3593  0EBC  01D2               	clrf	(?___awdiv)
  3594  0EBD  07D2               	addwf	(?___awdiv)
  3595                           
  3596  0EBE  2EBF               	goto	l1196
  3597                           	
  3598  0EBF                     l2862:	
  3599                           	line	37
  3600                           	
  3601  0EBF                     l1196:	
  3602  0EBF  0008               	return
  3603                           	opt stack 0
  3604                           GLOBAL	__end_of___awdiv
  3605  0EC0                     	__end_of___awdiv:
  3606 ;; =============== function ___awdiv ends ============
  3607                           
  3608                           	signat	___awdiv,8314
  3609                           	global	___lwdiv
  3610                           psect	text156,local,class=CODE,delta=2
  3611                           global __ptext156
  3612  0797                     __ptext156:
  3613                           
  3614 ;; *************** function ___lwdiv *****************
  3615 ;; Defined at:
  3616 ;;		line 5 in file "C:\Program Files (x86)\HI-TECH Software\PICC\9.83\sources\lwdiv.c"
  3617 ;; Parameters:    Size  Location     Type
  3618 ;;  divisor         2    0[BANK0 ] unsigned int 
  3619 ;;  dividend        2    2[BANK0 ] unsigned int 
  3620 ;; Auto vars:     Size  Location     Type
  3621 ;;  quotient        2    4[BANK0 ] unsigned int 
  3622 ;;  counter         1    6[BANK0 ] unsigned char 
  3623 ;; Return value:  Size  Location     Type
  3624 ;;                  2    0[BANK0 ] unsigned int 
  3625 ;; Registers used:
  3626 ;;		wreg, status,2, status,0
  3627 ;; Tracked objects:
  3628 ;;		On entry : 0/0
  3629 ;;		On exit  : 0/0
  3630 ;;		Unchanged: 0/0
  3631 ;; Data sizes:     COMMON   BANK0   BANK1   BANK2
  3632 ;;      Params:         0       4       0       0
  3633 ;;      Locals:         0       3       0       0
  3634 ;;      Temps:          1       0       0       0
  3635 ;;      Totals:         1       7       0       0
  3636 ;;Total ram usage:        8 bytes
  3637 ;; Hardware stack levels used:    1
  3638 ;; Hardware stack levels required when called:    1
  3639 ;; This function calls:
  3640 ;;		Nothing
  3641 ;; This function is called by:
  3642 ;;		_main
  3643 ;; This function uses a non-reentrant model
  3644 ;;
  3645                           psect	text156
  3646                           	file	"C:\Program Files (x86)\HI-TECH Software\PICC\9.83\sources\lwdiv.c"
  3647                           	line	5
  3648                           	global	__size_of___lwdiv
  3649  0050                     	__size_of___lwdiv	equ	__end_of___lwdiv-___lwdiv
  3650                           	
  3651  0797                     ___lwdiv:	
  3652                           	opt	stack 6
  3653                           ; Regs used in ___lwdiv: [wreg+status,2+status,0]
  3654                           	line	9
  3655                           	
  3656  0797                     l2798:	
  3657  0797  1283               	bcf	status, 5	;RP0=0, select bank0
  3658  0798  1303               	bcf	status, 6	;RP1=0, select bank0
  3659  0799  01D6               	clrf	(___lwdiv@quotient)
  3660  079A  01D7               	clrf	(___lwdiv@quotient+1)
  3661                           	line	10
  3662                           	
  3663  079B                     l2800:	
  3664  079B  0853               	movf	(___lwdiv@divisor+1),w
  3665  079C  0452               	iorwf	(___lwdiv@divisor),w
  3666  079D  1903               	skipnz
  3667  079E  2FA0               	goto	u3461
  3668  079F  2FA1               	goto	u3460
  3669  07A0                     u3461:
  3670  07A0  2FDF               	goto	l2820
  3671  07A1                     u3460:
  3672                           	line	11
  3673                           	
  3674  07A1                     l2802:	
  3675  07A1  01D8               	clrf	(___lwdiv@counter)
  3676  07A2  1403               	bsf	status,0
  3677  07A3  0DD8               	rlf	(___lwdiv@counter),f
  3678                           	line	12
  3679  07A4  2FB1               	goto	l2808
  3680                           	
  3681  07A5                     l1054:	
  3682                           	line	13
  3683                           	
  3684  07A5                     l2804:	
  3685  07A5  3001               	movlw	01h
  3686                           	
  3687  07A6                     u3475:
  3688  07A6  1003               	clrc
  3689  07A7  0DD2               	rlf	(___lwdiv@divisor),f
  3690  07A8  0DD3               	rlf	(___lwdiv@divisor+1),f
  3691  07A9  3EFF               	addlw	-1
  3692  07AA  1D03               	skipz
  3693  07AB  2FA6               	goto	u3475
  3694                           	line	14
  3695                           	
  3696  07AC                     l2806:	
  3697  07AC  3001               	movlw	(01h)
  3698  07AD  00F6               	movwf	(??___lwdiv+0)+0
  3699  07AE  0876               	movf	(??___lwdiv+0)+0,w
  3700  07AF  07D8               	addwf	(___lwdiv@counter),f
  3701  07B0  2FB1               	goto	l2808
  3702                           	line	15
  3703                           	
  3704  07B1                     l1053:	
  3705                           	line	12
  3706                           	
  3707  07B1                     l2808:	
  3708  07B1  1FD3               	btfss	(___lwdiv@divisor+1),(15)&7
  3709  07B2  2FB4               	goto	u3481
  3710  07B3  2FB5               	goto	u3480
  3711  07B4                     u3481:
  3712  07B4  2FA5               	goto	l2804
  3713  07B5                     u3480:
  3714  07B5  2FB7               	goto	l2810
  3715                           	
  3716  07B6                     l1055:	
  3717  07B6  2FB7               	goto	l2810
  3718                           	line	16
  3719                           	
  3720  07B7                     l1056:	
  3721                           	line	17
  3722                           	
  3723  07B7                     l2810:	
  3724  07B7  3001               	movlw	01h
  3725                           	
  3726  07B8                     u3495:
  3727  07B8  1003               	clrc
  3728  07B9  0DD6               	rlf	(___lwdiv@quotient),f
  3729  07BA  0DD7               	rlf	(___lwdiv@quotient+1),f
  3730  07BB  3EFF               	addlw	-1
  3731  07BC  1D03               	skipz
  3732  07BD  2FB8               	goto	u3495
  3733                           	line	18
  3734  07BE  0853               	movf	(___lwdiv@divisor+1),w
  3735  07BF  0255               	subwf	(___lwdiv@dividend+1),w
  3736  07C0  1D03               	skipz
  3737  07C1  2FC4               	goto	u3505
  3738  07C2  0852               	movf	(___lwdiv@divisor),w
  3739  07C3  0254               	subwf	(___lwdiv@dividend),w
  3740  07C4                     u3505:
  3741  07C4  1C03               	skipc
  3742  07C5  2FC7               	goto	u3501
  3743  07C6  2FC8               	goto	u3500
  3744  07C7                     u3501:
  3745  07C7  2FD0               	goto	l2816
  3746  07C8                     u3500:
  3747                           	line	19
  3748                           	
  3749  07C8                     l2812:	
  3750  07C8  0852               	movf	(___lwdiv@divisor),w
  3751  07C9  02D4               	subwf	(___lwdiv@dividend),f
  3752  07CA  0853               	movf	(___lwdiv@divisor+1),w
  3753  07CB  1C03               	skipc
  3754  07CC  03D5               	decf	(___lwdiv@dividend+1),f
  3755  07CD  02D5               	subwf	(___lwdiv@dividend+1),f
  3756                           	line	20
  3757                           	
  3758  07CE                     l2814:	
  3759  07CE  1456               	bsf	(___lwdiv@quotient)+(0/8),(0)&7
  3760  07CF  2FD0               	goto	l2816
  3761                           	line	21
  3762                           	
  3763  07D0                     l1057:	
  3764                           	line	22
  3765                           	
  3766  07D0                     l2816:	
  3767  07D0  3001               	movlw	01h
  3768                           	
  3769  07D1                     u3515:
  3770  07D1  1003               	clrc
  3771  07D2  0CD3               	rrf	(___lwdiv@divisor+1),f
  3772  07D3  0CD2               	rrf	(___lwdiv@divisor),f
  3773  07D4  3EFF               	addlw	-1
  3774  07D5  1D03               	skipz
  3775  07D6  2FD1               	goto	u3515
  3776                           	line	23
  3777                           	
  3778  07D7                     l2818:	
  3779  07D7  3001               	movlw	low(01h)
  3780  07D8  02D8               	subwf	(___lwdiv@counter),f
  3781  07D9  1D03               	btfss	status,2
  3782  07DA  2FDC               	goto	u3521
  3783  07DB  2FDD               	goto	u3520
  3784  07DC                     u3521:
  3785  07DC  2FB7               	goto	l2810
  3786  07DD                     u3520:
  3787  07DD  2FDF               	goto	l2820
  3788                           	
  3789  07DE                     l1058:	
  3790  07DE  2FDF               	goto	l2820
  3791                           	line	24
  3792                           	
  3793  07DF                     l1052:	
  3794                           	line	25
  3795                           	
  3796  07DF                     l2820:	
  3797  07DF  0857               	movf	(___lwdiv@quotient+1),w
  3798  07E0  01D3               	clrf	(?___lwdiv+1)
  3799  07E1  07D3               	addwf	(?___lwdiv+1)
  3800  07E2  0856               	movf	(___lwdiv@quotient),w
  3801  07E3  01D2               	clrf	(?___lwdiv)
  3802  07E4  07D2               	addwf	(?___lwdiv)
  3803                           
  3804  07E5  2FE6               	goto	l1059
  3805                           	
  3806  07E6                     l2822:	
  3807                           	line	26
  3808                           	
  3809  07E6                     l1059:	
  3810  07E6  0008               	return
  3811                           	opt stack 0
  3812                           GLOBAL	__end_of___lwdiv
  3813  07E7                     	__end_of___lwdiv:
  3814 ;; =============== function ___lwdiv ends ============
  3815                           
  3816                           	signat	___lwdiv,8314
  3817                           	global	_MainT
  3818                           psect	text157,local,class=CODE,delta=2
  3819                           global __ptext157
  3820  0DDB                     __ptext157:
  3821                           
  3822 ;; *************** function _MainT *****************
  3823 ;; Defined at:
  3824 ;;		line 187 in file "E:\PIC\4.PIR_Dimmer\Release\PIR-Ceiling-PV02-3(20140517).c"
  3825 ;; Parameters:    Size  Location     Type
  3826 ;;		None
  3827 ;; Auto vars:     Size  Location     Type
  3828 ;;		None
  3829 ;; Return value:  Size  Location     Type
  3830 ;;		None               void
  3831 ;; Registers used:
  3832 ;;		wreg, fsr0l, fsr0h, status,2, status,0
  3833 ;; Tracked objects:
  3834 ;;		On entry : 0/0
  3835 ;;		On exit  : 0/0
  3836 ;;		Unchanged: 0/0
  3837 ;; Data sizes:     COMMON   BANK0   BANK1   BANK2
  3838 ;;      Params:         0       0       0       0
  3839 ;;      Locals:         0       0       0       0
  3840 ;;      Temps:          2       0       0       0
  3841 ;;      Totals:         2       0       0       0
  3842 ;;Total ram usage:        2 bytes
  3843 ;; Hardware stack levels used:    1
  3844 ;; Hardware stack levels required when called:    1
  3845 ;; This function calls:
  3846 ;;		Nothing
  3847 ;; This function is called by:
  3848 ;;		_main
  3849 ;; This function uses a non-reentrant model
  3850 ;;
  3851                           psect	text157
  3852                           	file	"E:\PIC\4.PIR_Dimmer\Release\PIR-Ceiling-PV02-3(20140517).c"
  3853                           	line	187
  3854                           	global	__size_of_MainT
  3855  006F                     	__size_of_MainT	equ	__end_of_MainT-_MainT
  3856                           	
  3857  0DDB                     _MainT:	
  3858                           	opt	stack 6
  3859                           ; Regs used in _MainT: [wreg-fsr0h+status,2+status,0]
  3860                           	line	188
  3861                           	
  3862  0DDB                     l2714:	
  3863                           ;PIR-Ceiling-PV02-3(20140517).c: 188: TMain->Count++;
  3864  0DDB  1283               	bcf	status, 5	;RP0=0, select bank0
  3865  0DDC  1303               	bcf	status, 6	;RP1=0, select bank0
  3866  0DDD  0861               	movf	(_TMain),w
  3867  0DDE  3E01               	addlw	01h
  3868  0DDF  0084               	movwf	fsr0
  3869  0DE0  3001               	movlw	01h
  3870  0DE1  1383               	bcf	status, 7	;select IRP bank0
  3871  0DE2  0780               	addwf	indf,f
  3872  0DE3  0A84               	incf	fsr0,f
  3873  0DE4  1803               	skipnc
  3874  0DE5  0A80               	incf	indf,f
  3875                           	line	189
  3876                           ;PIR-Ceiling-PV02-3(20140517).c: 189: TMain->Count1++;
  3877  0DE6  0861               	movf	(_TMain),w
  3878  0DE7  3E03               	addlw	03h
  3879  0DE8  0084               	movwf	fsr0
  3880  0DE9  3001               	movlw	01h
  3881  0DEA  0780               	addwf	indf,f
  3882  0DEB  0A84               	incf	fsr0,f
  3883  0DEC  1803               	skipnc
  3884  0DED  0A80               	incf	indf,f
  3885                           	line	190
  3886                           	
  3887  0DEE                     l2716:	
  3888                           ;PIR-Ceiling-PV02-3(20140517).c: 190: if(TMain->PowerON==0)
  3889  0DEE  0861               	movf	(_TMain),w
  3890  0DEF  0084               	movwf	fsr0
  3891  0DF0  1800               	btfsc	indf,0
  3892  0DF1  2DF3               	goto	u3231
  3893  0DF2  2DF4               	goto	u3230
  3894  0DF3                     u3231:
  3895  0DF3  2E13               	goto	l2722
  3896  0DF4                     u3230:
  3897                           	line	192
  3898                           	
  3899  0DF4                     l2718:	
  3900                           ;PIR-Ceiling-PV02-3(20140517).c: 191: {
  3901                           ;PIR-Ceiling-PV02-3(20140517).c: 192: if(TMain->Count == 1000)
  3902  0DF4  0861               	movf	(_TMain),w
  3903  0DF5  3E01               	addlw	01h
  3904  0DF6  0084               	movwf	fsr0
  3905  0DF7  0800               	movf	indf,w
  3906  0DF8  00F6               	movwf	(??_MainT+0)+0+0
  3907  0DF9  0A84               	incf	fsr0,f
  3908  0DFA  0800               	movf	indf,w
  3909  0DFB  00F7               	movwf	(??_MainT+0)+0+1
  3910  0DFC  3003               	movlw	high(03E8h)
  3911  0DFD  0677               	xorwf	1+(??_MainT+0)+0,w
  3912  0DFE  1D03               	skipz
  3913  0DFF  2E02               	goto	u3245
  3914  0E00  30E8               	movlw	low(03E8h)
  3915  0E01  0676               	xorwf	0+(??_MainT+0)+0,w
  3916  0E02                     u3245:
  3917                           
  3918  0E02  1D03               	skipz
  3919  0E03  2E05               	goto	u3241
  3920  0E04  2E06               	goto	u3240
  3921  0E05                     u3241:
  3922  0E05  2E2E               	goto	l1034
  3923  0E06                     u3240:
  3924                           	line	194
  3925                           	
  3926  0E06                     l2720:	
  3927                           ;PIR-Ceiling-PV02-3(20140517).c: 193: {
  3928                           ;PIR-Ceiling-PV02-3(20140517).c: 194: TMain->Count=0;
  3929  0E06  0861               	movf	(_TMain),w
  3930  0E07  3E01               	addlw	01h
  3931  0E08  0084               	movwf	fsr0
  3932  0E09  3000               	movlw	low(0)
  3933  0E0A  0080               	movwf	indf
  3934  0E0B  0A84               	incf	fsr0,f
  3935  0E0C  3000               	movlw	high(0)
  3936  0E0D  0080               	movwf	indf
  3937                           	line	195
  3938                           ;PIR-Ceiling-PV02-3(20140517).c: 195: TMain->PowerON=1;
  3939  0E0E  0861               	movf	(_TMain),w
  3940  0E0F  0084               	movwf	fsr0
  3941  0E10  1400               	bsf	indf,0
  3942  0E11  2E2E               	goto	l1034
  3943                           	line	196
  3944                           	
  3945  0E12                     l1033:	
  3946                           	line	197
  3947                           ;PIR-Ceiling-PV02-3(20140517).c: 196: }
  3948                           ;PIR-Ceiling-PV02-3(20140517).c: 197: }
  3949  0E12  2E2E               	goto	l1034
  3950                           	line	198
  3951                           	
  3952  0E13                     l1032:	
  3953                           	line	200
  3954                           	
  3955  0E13                     l2722:	
  3956                           ;PIR-Ceiling-PV02-3(20140517).c: 198: else
  3957                           ;PIR-Ceiling-PV02-3(20140517).c: 199: {
  3958                           ;PIR-Ceiling-PV02-3(20140517).c: 200: if(TMain->Count == 1000)
  3959  0E13  0861               	movf	(_TMain),w
  3960  0E14  3E01               	addlw	01h
  3961  0E15  0084               	movwf	fsr0
  3962  0E16  0800               	movf	indf,w
  3963  0E17  00F6               	movwf	(??_MainT+0)+0+0
  3964  0E18  0A84               	incf	fsr0,f
  3965  0E19  0800               	movf	indf,w
  3966  0E1A  00F7               	movwf	(??_MainT+0)+0+1
  3967  0E1B  3003               	movlw	high(03E8h)
  3968  0E1C  0677               	xorwf	1+(??_MainT+0)+0,w
  3969  0E1D  1D03               	skipz
  3970  0E1E  2E21               	goto	u3255
  3971  0E1F  30E8               	movlw	low(03E8h)
  3972  0E20  0676               	xorwf	0+(??_MainT+0)+0,w
  3973  0E21                     u3255:
  3974                           
  3975  0E21  1D03               	skipz
  3976  0E22  2E24               	goto	u3251
  3977  0E23  2E25               	goto	u3250
  3978  0E24                     u3251:
  3979  0E24  2E2E               	goto	l1034
  3980  0E25                     u3250:
  3981                           	line	202
  3982                           	
  3983  0E25                     l2724:	
  3984                           ;PIR-Ceiling-PV02-3(20140517).c: 201: {
  3985                           ;PIR-Ceiling-PV02-3(20140517).c: 202: TMain->Count=0;
  3986  0E25  0861               	movf	(_TMain),w
  3987  0E26  3E01               	addlw	01h
  3988  0E27  0084               	movwf	fsr0
  3989  0E28  3000               	movlw	low(0)
  3990  0E29  0080               	movwf	indf
  3991  0E2A  0A84               	incf	fsr0,f
  3992  0E2B  3000               	movlw	high(0)
  3993  0E2C  0080               	movwf	indf
  3994  0E2D  2E2E               	goto	l1034
  3995                           	line	203
  3996                           	
  3997  0E2E                     l1035:	
  3998                           	line	204
  3999                           	
  4000  0E2E                     l1034:	
  4001                           	line	205
  4002                           ;PIR-Ceiling-PV02-3(20140517).c: 203: }
  4003                           ;PIR-Ceiling-PV02-3(20140517).c: 204: }
  4004                           ;PIR-Ceiling-PV02-3(20140517).c: 205: if(TMain->Count1 == 1000)
  4005  0E2E  0861               	movf	(_TMain),w
  4006  0E2F  3E03               	addlw	03h
  4007  0E30  0084               	movwf	fsr0
  4008  0E31  0800               	movf	indf,w
  4009  0E32  00F6               	movwf	(??_MainT+0)+0+0
  4010  0E33  0A84               	incf	fsr0,f
  4011  0E34  0800               	movf	indf,w
  4012  0E35  00F7               	movwf	(??_MainT+0)+0+1
  4013  0E36  3003               	movlw	high(03E8h)
  4014  0E37  0677               	xorwf	1+(??_MainT+0)+0,w
  4015  0E38  1D03               	skipz
  4016  0E39  2E3C               	goto	u3265
  4017  0E3A  30E8               	movlw	low(03E8h)
  4018  0E3B  0676               	xorwf	0+(??_MainT+0)+0,w
  4019  0E3C                     u3265:
  4020                           
  4021  0E3C  1D03               	skipz
  4022  0E3D  2E3F               	goto	u3261
  4023  0E3E  2E40               	goto	u3260
  4024  0E3F                     u3261:
  4025  0E3F  2E49               	goto	l1037
  4026  0E40                     u3260:
  4027                           	line	207
  4028                           	
  4029  0E40                     l2726:	
  4030                           ;PIR-Ceiling-PV02-3(20140517).c: 206: {
  4031                           ;PIR-Ceiling-PV02-3(20140517).c: 207: TMain->Count1=0;
  4032  0E40  0861               	movf	(_TMain),w
  4033  0E41  3E03               	addlw	03h
  4034  0E42  0084               	movwf	fsr0
  4035  0E43  3000               	movlw	low(0)
  4036  0E44  0080               	movwf	indf
  4037  0E45  0A84               	incf	fsr0,f
  4038  0E46  3000               	movlw	high(0)
  4039  0E47  0080               	movwf	indf
  4040  0E48  2E49               	goto	l1037
  4041                           	line	208
  4042                           	
  4043  0E49                     l1036:	
  4044                           	line	209
  4045                           	
  4046  0E49                     l1037:	
  4047  0E49  0008               	return
  4048                           	opt stack 0
  4049                           GLOBAL	__end_of_MainT
  4050  0E4A                     	__end_of_MainT:
  4051 ;; =============== function _MainT ends ============
  4052                           
  4053                           	signat	_MainT,88
  4054                           	global	_MainT_Initial
  4055                           psect	text158,local,class=CODE,delta=2
  4056                           global __ptext158
  4057  0DD4                     __ptext158:
  4058                           
  4059 ;; *************** function _MainT_Initial *****************
  4060 ;; Defined at:
  4061 ;;		line 181 in file "E:\PIC\4.PIR_Dimmer\Release\PIR-Ceiling-PV02-3(20140517).c"
  4062 ;; Parameters:    Size  Location     Type
  4063 ;;		None
  4064 ;; Auto vars:     Size  Location     Type
  4065 ;;		None
  4066 ;; Return value:  Size  Location     Type
  4067 ;;		None               void
  4068 ;; Registers used:
  4069 ;;		wreg
  4070 ;; Tracked objects:
  4071 ;;		On entry : 0/0
  4072 ;;		On exit  : 0/0
  4073 ;;		Unchanged: 0/0
  4074 ;; Data sizes:     COMMON   BANK0   BANK1   BANK2
  4075 ;;      Params:         0       0       0       0
  4076 ;;      Locals:         0       0       0       0
  4077 ;;      Temps:          1       0       0       0
  4078 ;;      Totals:         1       0       0       0
  4079 ;;Total ram usage:        1 bytes
  4080 ;; Hardware stack levels used:    1
  4081 ;; Hardware stack levels required when called:    1
  4082 ;; This function calls:
  4083 ;;		Nothing
  4084 ;; This function is called by:
  4085 ;;		_main
  4086 ;; This function uses a non-reentrant model
  4087 ;;
  4088                           psect	text158
  4089                           	file	"E:\PIC\4.PIR_Dimmer\Release\PIR-Ceiling-PV02-3(20140517).c"
  4090                           	line	181
  4091                           	global	__size_of_MainT_Initial
  4092  0007                     	__size_of_MainT_Initial	equ	__end_of_MainT_Initial-_MainT_Initial
  4093                           	
  4094  0DD4                     _MainT_Initial:	
  4095                           	opt	stack 6
  4096                           ; Regs used in _MainT_Initial: [wreg]
  4097                           	line	182
  4098                           	
  4099  0DD4                     l2712:	
  4100                           ;PIR-Ceiling-PV02-3(20140517).c: 182: TMain = &VarTMain;
  4101  0DD4  3037               	movlw	(_VarTMain)&0ffh
  4102  0DD5  00F6               	movwf	(??_MainT_Initial+0)+0
  4103  0DD6  0876               	movf	(??_MainT_Initial+0)+0,w
  4104  0DD7  1283               	bcf	status, 5	;RP0=0, select bank0
  4105  0DD8  1303               	bcf	status, 6	;RP1=0, select bank0
  4106  0DD9  00E1               	movwf	(_TMain)
  4107                           	line	183
  4108                           	
  4109  0DDA                     l1029:	
  4110  0DDA  0008               	return
  4111                           	opt stack 0
  4112                           GLOBAL	__end_of_MainT_Initial
  4113  0DDB                     	__end_of_MainT_Initial:
  4114 ;; =============== function _MainT_Initial ends ============
  4115                           
  4116                           	signat	_MainT_Initial,88
  4117                           	global	_ISR
  4118                           psect	text159,local,class=CODE,delta=2
  4119                           global __ptext159
  4120  0EC0                     __ptext159:
  4121                           
  4122 ;; *************** function _ISR *****************
  4123 ;; Defined at:
  4124 ;;		line 171 in file "E:\PIC\4.PIR_Dimmer\Release\PIR-Ceiling-PV02-3(20140517).c"
  4125 ;; Parameters:    Size  Location     Type
  4126 ;;		None
  4127 ;; Auto vars:     Size  Location     Type
  4128 ;;		None
  4129 ;; Return value:  Size  Location     Type
  4130 ;;		None               void
  4131 ;; Registers used:
  4132 ;;		wreg, fsr0l, fsr0h, status,2, status,0
  4133 ;; Tracked objects:
  4134 ;;		On entry : 0/0
  4135 ;;		On exit  : 0/0
  4136 ;;		Unchanged: 0/0
  4137 ;; Data sizes:     COMMON   BANK0   BANK1   BANK2
  4138 ;;      Params:         0       0       0       0
  4139 ;;      Locals:         0       0       0       0
  4140 ;;      Temps:          6       0       0       0
  4141 ;;      Totals:         6       0       0       0
  4142 ;;Total ram usage:        6 bytes
  4143 ;; Hardware stack levels used:    1
  4144 ;; This function calls:
  4145 ;;		Nothing
  4146 ;; This function is called by:
  4147 ;;		Interrupt level 1
  4148 ;; This function uses a non-reentrant model
  4149 ;;
  4150                           psect	text159
  4151                           	file	"E:\PIC\4.PIR_Dimmer\Release\PIR-Ceiling-PV02-3(20140517).c"
  4152                           	line	171
  4153                           	global	__size_of_ISR
  4154  0140                     	__size_of_ISR	equ	__end_of_ISR-_ISR
  4155                           	
  4156  0EC0                     _ISR:	
  4157                           	opt	stack 6
  4158                           ; Regs used in _ISR: [wreg-fsr0h+status,2+status,0]
  4159                           psect	intentry,class=CODE,delta=2
  4160                           global __pintentry
  4161  0004                     __pintentry:
  4162                           global interrupt_function
  4163  0004                     interrupt_function:
  4164                           	global saved_w
  4165  007E                     	saved_w	set	btemp+0
  4166  0004  00FE               	movwf	saved_w
  4167  0005  0E03               	swapf	status,w
  4168  0006  00F2               	movwf	(??_ISR+2)
  4169  0007  0804               	movf	fsr0,w
  4170  0008  00F3               	movwf	(??_ISR+3)
  4171  0009  080A               	movf	pclath,w
  4172  000A  00F4               	movwf	(??_ISR+4)
  4173  000B  1283               	bcf	status, 5	;RP0=0, select bank0
  4174  000C  1303               	bcf	status, 6	;RP1=0, select bank0
  4175  000D  087F               	movf	btemp+1,w
  4176  000E  00F5               	movwf	(??_ISR+5)
  4177  000F  158A  2EC0         	ljmp	_ISR
  4178                           psect	text159
  4179                           	line	172
  4180                           	
  4181  0EC0                     i1l2728:	
  4182                           ;PIR-Ceiling-PV02-3(20140517).c: 172: _nop();
  4183  0EC0  0000               	nop
  4184                           	line	174
  4185                           ;PIR-Ceiling-PV02-3(20140517).c: 174: if(TMR1IE && TMR1IF) { TMR1H=((65536-550)/256); TM
                                 R1L=((65536-550)%256); TMR1IF=0; if(TMain->PowerON==1) { Dimmer->Count++; if(RA7==1) { i
                                 f(Dimmer->Input==0) { Dimmer->Input=1; } } else { if(Dimmer->Input==1) { Dimmer->Input=0
                                 ; Dimmer->Count=0; if(Te
  4186  0EC1  1683               	bsf	status, 5	;RP0=1, select bank1
  4187  0EC2  1303               	bcf	status, 6	;RP1=0, select bank1
  4188  0EC3  1C0C               	btfss	(1120/8)^080h,(1120)&7
  4189  0EC4  2EC6               	goto	u327_21
  4190  0EC5  2EC7               	goto	u327_20
  4191  0EC6                     u327_21:
  4192  0EC6  2FF2               	goto	i1l2796
  4193  0EC7                     u327_20:
  4194                           	
  4195  0EC7                     i1l2730:	
  4196  0EC7  1283               	bcf	status, 5	;RP0=0, select bank0
  4197  0EC8  1303               	bcf	status, 6	;RP1=0, select bank0
  4198  0EC9  1C0C               	btfss	(96/8),(96)&7
  4199  0ECA  2ECC               	goto	u328_21
  4200  0ECB  2ECD               	goto	u328_20
  4201  0ECC                     u328_21:
  4202  0ECC  2FF2               	goto	i1l2796
  4203  0ECD                     u328_20:
  4204                           	
  4205  0ECD                     i1l2732:	
  4206  0ECD  30FD               	movlw	(0FDh)
  4207  0ECE  008F               	movwf	(15)	;volatile
  4208  0ECF  30DA               	movlw	(0DAh)
  4209  0ED0  008E               	movwf	(14)	;volatile
  4210                           	
  4211  0ED1                     i1l2734:	
  4212  0ED1  100C               	bcf	(96/8),(96)&7
  4213                           	
  4214  0ED2                     i1l2736:	
  4215  0ED2  0861               	movf	(_TMain),w
  4216  0ED3  0084               	movwf	fsr0
  4217  0ED4  1383               	bcf	status, 7	;select IRP bank0
  4218  0ED5  1C00               	btfss	indf,0
  4219  0ED6  2ED8               	goto	u329_21
  4220  0ED7  2ED9               	goto	u329_20
  4221  0ED8                     u329_21:
  4222  0ED8  2FCE               	goto	i1l2790
  4223  0ED9                     u329_20:
  4224                           	
  4225  0ED9                     i1l2738:	
  4226  0ED9  3001               	movlw	(01h)
  4227  0EDA  00F0               	movwf	(??_ISR+0)+0
  4228  0EDB  0821               	movf	(_Dimmer),w
  4229  0EDC  3E09               	addlw	09h
  4230  0EDD  0084               	movwf	fsr0
  4231  0EDE  0870               	movf	(??_ISR+0)+0,w
  4232  0EDF  0780               	addwf	indf,f
  4233                           	
  4234  0EE0                     i1l2740:	
  4235  0EE0  1F85               	btfss	(47/8),(47)&7
  4236  0EE1  2EE3               	goto	u330_21
  4237  0EE2  2EE4               	goto	u330_20
  4238  0EE3                     u330_21:
  4239  0EE3  2EF1               	goto	i1l2746
  4240  0EE4                     u330_20:
  4241                           	
  4242  0EE4                     i1l2742:	
  4243  0EE4  0821               	movf	(_Dimmer),w
  4244  0EE5  3E05               	addlw	05h
  4245  0EE6  0084               	movwf	fsr0
  4246  0EE7  1800               	btfsc	indf,0
  4247  0EE8  2EEA               	goto	u331_21
  4248  0EE9  2EEB               	goto	u331_20
  4249  0EEA                     u331_21:
  4250  0EEA  2F0C               	goto	i1l1005
  4251  0EEB                     u331_20:
  4252                           	
  4253  0EEB                     i1l2744:	
  4254  0EEB  0821               	movf	(_Dimmer),w
  4255  0EEC  3E05               	addlw	05h
  4256  0EED  0084               	movwf	fsr0
  4257  0EEE  1400               	bsf	indf,0
  4258  0EEF  2F0C               	goto	i1l1005
  4259                           	
  4260  0EF0                     i1l1004:	
  4261  0EF0  2F0C               	goto	i1l1005
  4262                           	
  4263  0EF1                     i1l1003:	
  4264                           	
  4265  0EF1                     i1l2746:	
  4266  0EF1  0821               	movf	(_Dimmer),w
  4267  0EF2  3E05               	addlw	05h
  4268  0EF3  0084               	movwf	fsr0
  4269  0EF4  1C00               	btfss	indf,0
  4270  0EF5  2EF7               	goto	u332_21
  4271  0EF6  2EF8               	goto	u332_20
  4272  0EF7                     u332_21:
  4273  0EF7  2F0C               	goto	i1l1005
  4274  0EF8                     u332_20:
  4275                           	
  4276  0EF8                     i1l2748:	
  4277  0EF8  0821               	movf	(_Dimmer),w
  4278  0EF9  3E05               	addlw	05h
  4279  0EFA  0084               	movwf	fsr0
  4280  0EFB  1000               	bcf	indf,0
  4281  0EFC  0821               	movf	(_Dimmer),w
  4282  0EFD  3E09               	addlw	09h
  4283  0EFE  0084               	movwf	fsr0
  4284  0EFF  0180               	clrf	indf
  4285  0F00  0824               	movf	(_Temp),w
  4286  0F01  0084               	movwf	fsr0
  4287  0F02  1880               	btfsc	indf,1
  4288  0F03  2F05               	goto	u333_21
  4289  0F04  2F06               	goto	u333_20
  4290  0F05                     u333_21:
  4291  0F05  2F0C               	goto	i1l1005
  4292  0F06                     u333_20:
  4293                           	
  4294  0F06                     i1l2750:	
  4295  0F06  0821               	movf	(_Dimmer),w
  4296  0F07  3E05               	addlw	05h
  4297  0F08  0084               	movwf	fsr0
  4298  0F09  1500               	bsf	indf,2
  4299  0F0A  2F0C               	goto	i1l1005
  4300                           	
  4301  0F0B                     i1l1007:	
  4302  0F0B  2F0C               	goto	i1l1005
  4303                           	
  4304  0F0C                     i1l1006:	
  4305                           	
  4306  0F0C                     i1l1005:	
  4307  0F0C  0821               	movf	(_Dimmer),w
  4308  0F0D  3E05               	addlw	05h
  4309  0F0E  0084               	movwf	fsr0
  4310  0F0F  1D00               	btfss	indf,2
  4311  0F10  2F12               	goto	u334_21
  4312  0F11  2F13               	goto	u334_20
  4313  0F12                     u334_21:
  4314  0F12  2F36               	goto	i1l1008
  4315  0F13                     u334_20:
  4316                           	
  4317  0F13                     i1l2752:	
  4318  0F13  0821               	movf	(_Dimmer),w
  4319  0F14  3E08               	addlw	08h
  4320  0F15  0084               	movwf	fsr
  4321  0F16  0800               	movf	indf,w
  4322  0F17  00F0               	movwf	(??_ISR+0)+0
  4323  0F18  0821               	movf	(_Dimmer),w
  4324  0F19  3E09               	addlw	09h
  4325  0F1A  0084               	movwf	fsr0
  4326  0F1B  0800               	movf	indf,w
  4327  0F1C  00F1               	movwf	(??_ISR+1)+0
  4328  0F1D  0870               	movf	(??_ISR+0)+0,w
  4329  0F1E  0271               	subwf	(??_ISR+1)+0,w
  4330  0F1F  1C03               	skipc
  4331  0F20  2F22               	goto	u335_21
  4332  0F21  2F23               	goto	u335_20
  4333  0F22                     u335_21:
  4334  0F22  2FCE               	goto	i1l2790
  4335  0F23                     u335_20:
  4336                           	
  4337  0F23                     i1l2754:	
  4338  0F23  0821               	movf	(_Dimmer),w
  4339  0F24  3E09               	addlw	09h
  4340  0F25  0084               	movwf	fsr0
  4341  0F26  0180               	clrf	indf
  4342  0F27  0821               	movf	(_Dimmer),w
  4343  0F28  3E05               	addlw	05h
  4344  0F29  0084               	movwf	fsr0
  4345  0F2A  1100               	bcf	indf,2
  4346  0F2B  0821               	movf	(_Dimmer),w
  4347  0F2C  3E0A               	addlw	0Ah
  4348  0F2D  0084               	movwf	fsr0
  4349  0F2E  1D00               	btfss	indf,2
  4350  0F2F  2F31               	goto	u336_21
  4351  0F30  2F32               	goto	u336_20
  4352  0F31                     u336_21:
  4353  0F31  2FCE               	goto	i1l2790
  4354  0F32                     u336_20:
  4355                           	
  4356  0F32                     i1l2756:	
  4357  0F32  1506               	bsf	(50/8),(50)&7
  4358  0F33  2FCE               	goto	i1l2790
  4359                           	
  4360  0F34                     i1l1010:	
  4361  0F34  2FCE               	goto	i1l2790
  4362                           	
  4363  0F35                     i1l1009:	
  4364  0F35  2FCE               	goto	i1l2790
  4365                           	
  4366  0F36                     i1l1008:	
  4367  0F36  1D06               	btfss	(50/8),(50)&7
  4368  0F37  2F39               	goto	u337_21
  4369  0F38  2F3A               	goto	u337_20
  4370  0F39                     u337_21:
  4371  0F39  2FCE               	goto	i1l2790
  4372  0F3A                     u337_20:
  4373                           	
  4374  0F3A                     i1l2758:	
  4375  0F3A  1106               	bcf	(50/8),(50)&7
  4376                           	
  4377  0F3B                     i1l2760:	
  4378  0F3B  0821               	movf	(_Dimmer),w
  4379  0F3C  3E0A               	addlw	0Ah
  4380  0F3D  0084               	movwf	fsr0
  4381  0F3E  1C00               	btfss	indf,0
  4382  0F3F  2F41               	goto	u338_21
  4383  0F40  2F42               	goto	u338_20
  4384  0F41                     u338_21:
  4385  0F41  2FCE               	goto	i1l2790
  4386  0F42                     u338_20:
  4387                           	
  4388  0F42                     i1l2762:	
  4389  0F42  3001               	movlw	(01h)
  4390  0F43  00F0               	movwf	(??_ISR+0)+0
  4391  0F44  0821               	movf	(_Dimmer),w
  4392  0F45  3E06               	addlw	06h
  4393  0F46  0084               	movwf	fsr0
  4394  0F47  0870               	movf	(??_ISR+0)+0,w
  4395  0F48  0780               	addwf	indf,f
  4396                           	
  4397  0F49                     i1l2764:	
  4398  0F49  0821               	movf	(_Dimmer),w
  4399  0F4A  3E07               	addlw	07h
  4400  0F4B  0084               	movwf	fsr
  4401  0F4C  0800               	movf	indf,w
  4402  0F4D  00F0               	movwf	(??_ISR+0)+0
  4403  0F4E  0821               	movf	(_Dimmer),w
  4404  0F4F  3E06               	addlw	06h
  4405  0F50  0084               	movwf	fsr0
  4406  0F51  0800               	movf	indf,w
  4407  0F52  0670               	xorwf	(??_ISR+0)+0,w
  4408  0F53  1D03               	skipz
  4409  0F54  2F56               	goto	u339_21
  4410  0F55  2F57               	goto	u339_20
  4411  0F56                     u339_21:
  4412  0F56  2FCE               	goto	i1l2790
  4413  0F57                     u339_20:
  4414                           	
  4415  0F57                     i1l2766:	
  4416  0F57  0821               	movf	(_Dimmer),w
  4417  0F58  3E06               	addlw	06h
  4418  0F59  0084               	movwf	fsr0
  4419  0F5A  0180               	clrf	indf
  4420  0F5B  0821               	movf	(_Dimmer),w
  4421  0F5C  3E0A               	addlw	0Ah
  4422  0F5D  0084               	movwf	fsr0
  4423  0F5E  1C80               	btfss	indf,1
  4424  0F5F  2F61               	goto	u340_21
  4425  0F60  2F62               	goto	u340_20
  4426  0F61                     u340_21:
  4427  0F61  2F86               	goto	i1l2776
  4428  0F62                     u340_20:
  4429                           	
  4430  0F62                     i1l2768:	
  4431  0F62  0821               	movf	(_Dimmer),w
  4432  0F63  3E08               	addlw	08h
  4433  0F64  0084               	movwf	fsr0
  4434  0F65  3001               	movlw	low(01h)
  4435  0F66  0280               	subwf	indf,f
  4436                           	
  4437  0F67                     i1l2770:	
  4438  0F67  0821               	movf	(_Dimmer),w
  4439  0F68  3E0E               	addlw	0Eh
  4440  0F69  0084               	movwf	fsr
  4441  0F6A  0800               	movf	indf,w
  4442  0F6B  00F0               	movwf	(??_ISR+0)+0
  4443  0F6C  0821               	movf	(_Dimmer),w
  4444  0F6D  3E08               	addlw	08h
  4445  0F6E  0084               	movwf	fsr0
  4446  0F6F  0800               	movf	indf,w
  4447  0F70  0670               	xorwf	(??_ISR+0)+0,w
  4448  0F71  1D03               	skipz
  4449  0F72  2F74               	goto	u341_21
  4450  0F73  2F75               	goto	u341_20
  4451  0F74                     u341_21:
  4452  0F74  2F79               	goto	i1l1016
  4453  0F75                     u341_20:
  4454                           	
  4455  0F75                     i1l2772:	
  4456  0F75  0821               	movf	(_Dimmer),w
  4457  0F76  3E0A               	addlw	0Ah
  4458  0F77  0084               	movwf	fsr0
  4459  0F78  1000               	bcf	indf,0
  4460                           	
  4461  0F79                     i1l1016:	
  4462  0F79  0821               	movf	(_Dimmer),w
  4463  0F7A  3E0A               	addlw	0Ah
  4464  0F7B  0084               	movwf	fsr0
  4465  0F7C  1D80               	btfss	indf,3
  4466  0F7D  2F7F               	goto	u342_21
  4467  0F7E  2F80               	goto	u342_20
  4468  0F7F                     u342_21:
  4469  0F7F  2FCE               	goto	i1l2790
  4470  0F80                     u342_20:
  4471                           	
  4472  0F80                     i1l2774:	
  4473  0F80  0821               	movf	(_Dimmer),w
  4474  0F81  3E0A               	addlw	0Ah
  4475  0F82  0084               	movwf	fsr0
  4476  0F83  1180               	bcf	indf,3
  4477  0F84  2FCE               	goto	i1l2790
  4478                           	
  4479  0F85                     i1l1017:	
  4480  0F85  2FCE               	goto	i1l2790
  4481                           	
  4482  0F86                     i1l1015:	
  4483                           	
  4484  0F86                     i1l2776:	
  4485  0F86  3001               	movlw	(01h)
  4486  0F87  00F0               	movwf	(??_ISR+0)+0
  4487  0F88  0821               	movf	(_Dimmer),w
  4488  0F89  3E08               	addlw	08h
  4489  0F8A  0084               	movwf	fsr0
  4490  0F8B  0870               	movf	(??_ISR+0)+0,w
  4491  0F8C  0780               	addwf	indf,f
  4492                           	
  4493  0F8D                     i1l2778:	
  4494  0F8D  0821               	movf	(_Dimmer),w
  4495  0F8E  3E0F               	addlw	0Fh
  4496  0F8F  0084               	movwf	fsr
  4497  0F90  0800               	movf	indf,w
  4498  0F91  00F0               	movwf	(??_ISR+0)+0
  4499  0F92  0821               	movf	(_Dimmer),w
  4500  0F93  3E08               	addlw	08h
  4501  0F94  0084               	movwf	fsr0
  4502  0F95  0800               	movf	indf,w
  4503  0F96  0670               	xorwf	(??_ISR+0)+0,w
  4504  0F97  1D03               	skipz
  4505  0F98  2F9A               	goto	u343_21
  4506  0F99  2F9B               	goto	u343_20
  4507  0F9A                     u343_21:
  4508  0F9A  2FCE               	goto	i1l2790
  4509  0F9B                     u343_20:
  4510                           	
  4511  0F9B                     i1l2780:	
  4512  0F9B  0821               	movf	(_Dimmer),w
  4513  0F9C  3E0A               	addlw	0Ah
  4514  0F9D  0084               	movwf	fsr0
  4515  0F9E  1000               	bcf	indf,0
  4516  0F9F  2FA5               	goto	i1l2784
  4517                           	
  4518  0FA0                     i1l2782:	
  4519  0FA0  0821               	movf	(_Dimmer),w
  4520  0FA1  3E0A               	addlw	0Ah
  4521  0FA2  0084               	movwf	fsr0
  4522  0FA3  1100               	bcf	indf,2
  4523  0FA4  2FCE               	goto	i1l2790
  4524                           	
  4525  0FA5                     i1l1020:	
  4526                           	
  4527  0FA5                     i1l2784:	
  4528  0FA5  0821               	movf	(_Dimmer),w
  4529  0FA6  3E0A               	addlw	0Ah
  4530  0FA7  0084               	movwf	fsr0
  4531  0FA8  1980               	btfsc	indf,3
  4532  0FA9  2FAB               	goto	u344_21
  4533  0FAA  2FAC               	goto	u344_20
  4534  0FAB                     u344_21:
  4535  0FAB  2FB1               	goto	i1l2788
  4536  0FAC                     u344_20:
  4537                           	
  4538  0FAC                     i1l2786:	
  4539  0FAC  0821               	movf	(_Dimmer),w
  4540  0FAD  3E0A               	addlw	0Ah
  4541  0FAE  0084               	movwf	fsr0
  4542  0FAF  1580               	bsf	indf,3
  4543  0FB0  2FCE               	goto	i1l2790
  4544                           	
  4545  0FB1                     i1l1023:	
  4546                           	
  4547  0FB1                     i1l2788:	
  4548  0FB1  0821               	movf	(_Dimmer),w
  4549  0FB2  3E0A               	addlw	0Ah
  4550  0FB3  0084               	movwf	fsr0
  4551  0FB4  1100               	bcf	indf,2
  4552  0FB5  0821               	movf	(_Dimmer),w
  4553  0FB6  3E0A               	addlw	0Ah
  4554  0FB7  0084               	movwf	fsr0
  4555  0FB8  1180               	bcf	indf,3
  4556  0FB9  0823               	movf	(_PIR),w
  4557  0FBA  3E2E               	addlw	02Eh
  4558  0FBB  0084               	movwf	fsr0
  4559  0FBC  0180               	clrf	indf
  4560  0FBD  3002               	movlw	(02h)
  4561  0FBE  00F0               	movwf	(??_ISR+0)+0
  4562  0FBF  0823               	movf	(_PIR),w
  4563  0FC0  3E23               	addlw	023h
  4564  0FC1  0084               	movwf	fsr0
  4565  0FC2  0870               	movf	(??_ISR+0)+0,w
  4566  0FC3  0080               	movwf	indf
  4567  0FC4  2FCE               	goto	i1l2790
  4568                           	
  4569  0FC5                     i1l1024:	
  4570  0FC5  2FCE               	goto	i1l2790
  4571                           	
  4572  0FC6                     i1l1022:	
  4573  0FC6  2FCE               	goto	i1l2790
  4574                           	
  4575  0FC7                     i1l1021:	
  4576  0FC7  2FCE               	goto	i1l2790
  4577                           	
  4578  0FC8                     i1l1019:	
  4579  0FC8  2FCE               	goto	i1l2790
  4580                           	
  4581  0FC9                     i1l1018:	
  4582  0FC9  2FCE               	goto	i1l2790
  4583                           	
  4584  0FCA                     i1l1014:	
  4585  0FCA  2FCE               	goto	i1l2790
  4586                           	
  4587  0FCB                     i1l1013:	
  4588  0FCB  2FCE               	goto	i1l2790
  4589                           	
  4590  0FCC                     i1l1012:	
  4591  0FCC  2FCE               	goto	i1l2790
  4592                           	
  4593  0FCD                     i1l1011:	
  4594  0FCD  2FCE               	goto	i1l2790
  4595                           	
  4596  0FCE                     i1l1002:	
  4597                           	
  4598  0FCE                     i1l2790:	
  4599  0FCE  0825               	movf	(_Timer1),w
  4600  0FCF  3E01               	addlw	01h
  4601  0FD0  0084               	movwf	fsr0
  4602  0FD1  3001               	movlw	01h
  4603  0FD2  0780               	addwf	indf,f
  4604  0FD3  0A84               	incf	fsr0,f
  4605  0FD4  1803               	skipnc
  4606  0FD5  0A80               	incf	indf,f
  4607                           	
  4608  0FD6                     i1l2792:	
  4609  0FD6  0825               	movf	(_Timer1),w
  4610  0FD7  3E01               	addlw	01h
  4611  0FD8  0084               	movwf	fsr0
  4612  0FD9  0800               	movf	indf,w
  4613  0FDA  00F0               	movwf	(??_ISR+0)+0+0
  4614  0FDB  0A84               	incf	fsr0,f
  4615  0FDC  0800               	movf	indf,w
  4616  0FDD  00F1               	movwf	(??_ISR+0)+0+1
  4617  0FDE  3014               	movlw	014h
  4618  0FDF  0670               	xorwf	0+(??_ISR+0)+0,w
  4619  0FE0  0471               	iorwf	1+(??_ISR+0)+0,w
  4620  0FE1  1D03               	skipz
  4621  0FE2  2FE4               	goto	u345_21
  4622  0FE3  2FE5               	goto	u345_20
  4623  0FE4                     u345_21:
  4624  0FE4  2FF2               	goto	i1l2796
  4625  0FE5                     u345_20:
  4626                           	
  4627  0FE5                     i1l2794:	
  4628  0FE5  0825               	movf	(_Timer1),w
  4629  0FE6  3E01               	addlw	01h
  4630  0FE7  0084               	movwf	fsr0
  4631  0FE8  3000               	movlw	low(0)
  4632  0FE9  0080               	movwf	indf
  4633  0FEA  0A84               	incf	fsr0,f
  4634  0FEB  3000               	movlw	high(0)
  4635  0FEC  0080               	movwf	indf
  4636  0FED  0861               	movf	(_TMain),w
  4637  0FEE  0084               	movwf	fsr0
  4638  0FEF  1500               	bsf	indf,2
  4639  0FF0  2FF2               	goto	i1l2796
  4640                           	
  4641  0FF1                     i1l1025:	
  4642  0FF1  2FF2               	goto	i1l2796
  4643                           	
  4644  0FF2                     i1l1001:	
  4645                           	line	176
  4646                           	
  4647  0FF2                     i1l2796:	
  4648                           ;PIR-Ceiling-PV02-3(20140517).c: 176: _nop();
  4649  0FF2  0000               	nop
  4650                           	line	177
  4651                           	
  4652  0FF3                     i1l1026:	
  4653  0FF3  0875               	movf	(??_ISR+5),w
  4654  0FF4  1283               	bcf	status, 5	;RP0=0, select bank0
  4655  0FF5  1303               	bcf	status, 6	;RP1=0, select bank0
  4656  0FF6  00FF               	movwf	btemp+1
  4657  0FF7  0874               	movf	(??_ISR+4),w
  4658  0FF8  008A               	movwf	pclath
  4659  0FF9  0873               	movf	(??_ISR+3),w
  4660  0FFA  0084               	movwf	fsr0
  4661  0FFB  0E72               	swapf	(??_ISR+2)^0FFFFFF80h,w
  4662  0FFC  0083               	movwf	status
  4663  0FFD  0EFE               	swapf	saved_w,f
  4664  0FFE  0E7E               	swapf	saved_w,w
  4665  0FFF  0009               	retfie
  4666                           	opt stack 0
  4667                           GLOBAL	__end_of_ISR
  4668  1000                     	__end_of_ISR:
  4669 ;; =============== function _ISR ends ============
  4670                           
  4671                           	signat	_ISR,88
  4672                           psect	text160,local,class=CODE,delta=2
  4673                           global __ptext160
  4674  0000                     __ptext160:
  4675                           	global	btemp
  4676  007E                     	btemp set 07Eh
  4677                           
  4678                           	DABS	1,126,2	;btemp
  4679                           	global	wtemp0
  4680  007E                     	wtemp0 set btemp


HI-TECH Software PICC Macro Assembler V9.83 build 10920 
Symbol Table                                                                                   Sat Jul 19 09:17:26 2014

       ??_MainT_Initial 0076            ___awdiv@sign 0057                      fsr 0004                     l900 02E3  
                   l901 02FF                     l910 035A                     l902 02FF                     l911 036D  
                   l903 0304                     l920 0449                     l912 036C                     l904 0324  
                   l840 0076                     l921 046A                     l913 0389                     l905 0370  
                   l841 0075                     l850 0793                     l930 048B                     l922 0469  
                   l914 03AB                     l906 0336                     l842 007B                     l931 048D  
                   l923 04EF                     l915 03DB                     l907 036F                     l851 00EA  
                   l843 007D                     l924 04EF                     l940 04DA                     l932 048C  
                   l916 03FD                     l908 0348                     l860 0158                     l852 00E9  
                   l844 007C                     l941 04E2                     l933 0492                     l917 042F  
                   l909 036E                     l861 015D                     l853 0108                     l845 0082  
                   l837 006F                     l950 0555                     l934 04ED                     l942 04EC  
                   l926 0478                     l918 0449                     l862 01C1                     l870 01B5  
                   l854 0107                     l846 00B4                     l838 006E                     l943 0760  
                   l951 0554                     l927 04EE                     l919 0444                     l871 01C0  
                   l863 01BB                     l855 0126                     l847 00B3                     l839 0074  
                   _CDS 0020                     l944 075F                     l960 060E                     l952 05AB  
                   l936 04A2                     l928 0486                     l872 021B                     l864 01BA  
                   l856 0125                     l848 00B8                     l945 075E                     l961 060D  
                   l953 0575                     l937 04E4                     l929 0485                     l873 0215  
                   l881 0202                     l865 01A9                     l857 021C                     l849 00BA  
                   l970 0696                     l962 0613                     l954 05AA                     l946 0519  
                   l938 04C0                     l890 025A                     l858 021C                     l882 021A  
                   l874 0214                     l866 01A8                     l971 0672                     l963 0615  
                   l947 05AC                     l955 05A9                     l939 04E3                     l891 02B3  
                   l883 02B4                     l875 01E3                     l867 01AE                     l859 0158  
                   l972 0695                     l964 0614                     l956 0593                     l948 0556  
                   l884 02B4                     l892 028F                     l876 01E2                     l868 01B0  
                   l981 06F1                     l973 068C                     l965 061A                     l957 05A4  
                   l949 0543                     l893 028E                     l885 0244                     l877 01E8  
                   l869 01AF                     l990 0759                     l982 0730                     l966 06A0  
                   l974 0694                     l958 05A4                     l894 02B2                     l886 0244  
                   l878 0213                     l991 0790                     l983 0728                     l959 06A1  
                   l967 069F                     l975 069E                     l895 02B1                     l887 0249  
                   l879 0207                     l896 0792                     l992 078F                     l976 075D  
                   l984 0727                     l888 0255                     l897 0791                     l993 0789  
                   l985 072E                     l977 0702                     l969 0654                     l889 0255  
                   l994 0788                     l986 075C                     l978 0702                     l898 02DE  
                   l995 078E                     l987 075B                     l979 06F6                     l899 02DE  
                   _GIE 005F                     l996 0794                     l988 0753                     l997 0795  
                   l989 0752                     l998 0795                     _RB2 0032                     _LED 0022  
                   _RB3 0033                     _RB4 0034                     _RB5 0035                     _RA7 002F  
                   _ISR 0EC0                     _PIR 0023                     fsr0 0004                     indf 0000  
                  ?_ISR 0070                    l1032 0E13                    l1033 0E12                    l1034 0E2E  
                  l1035 0E2E                    l1036 0E49                    l1052 07DF                    l1029 0DDA  
                  l1037 0E49                    l1053 07B1                    l1054 07A5                    l1055 07B6  
                  l1056 07B7                    l3000 01B5                    l1057 07D0                    l1058 07DE  
                  l3010 01DA                    l3002 01BB                    l1059 07E6                    l3100 0381  
                  l3020 0207                    l3012 01E8                    l3004 01C1                    l1190 0E74  
                  l3102 0388                    l3110 03AB                    l3030 0232                    l3022 020B  
                  l3014 01F3                    l3006 01CA                    l1191 0E85                    l1192 0E86  
                  l3200 058B                    l3120 03DB                    l3112 03CA                    l3104 0389  
                  l3040 0251                    l3032 023A                    l3016 01FB                    l3008 01D1  
                  l3024 0215                    l1193 0E9F                    l1194 0EAD                    l1186 0E5A  
                  l3210 0601                    l3202 0593                    l3130 041E                    l3122 03F2  
                  l3114 03D2                    l3106 03A0                    l3050 0289                    l3042 0253  
                  l3034 023E                    l3026 0222                    l3018 0202                    l1195 0EB8  
                  l1187 0E68                    l1196 0EBF                    l1188 0EAE                    l3220 0654  
                  l3212 061A                    l3204 059C                    l3140 0450                    l3132 0427  
                  l3124 03F6                    l3116 03D3                    l3108 03A4                    l3060 02CD  
                  l3052 028F                    l3044 025A                    l3036 0242                    l3028 0229  
                  l1189 0E80                    l3230 0696                    l3222 0663                    l3214 0623  
                  l3206 05AC                    l3150 0478                    l3142 0457                    l3134 042F  
                  l3118 03DA                    l3126 03FD                    l3070 02FB                    l3062 02D4  
                  l3054 02A9                    l3046 026F                    l3038 0249                    l3240 06EA  
                  l3224 0672                    l3216 063D                    l3208 05D6                    l3232 06A1  
                  l3160 04B1                    l3152 0484                    l3144 045D                    l3136 043C  
                  l3128 0416                    l3080 0324                    l3072 02FD                    l3064 02D8  
                  l3056 02BD                    l3048 0279                    l3250 0730                    l3242 06F1  
                  l3234 06B3                    l3226 0680                    l3218 064C                    l3170 04F6  
                  l3162 04C0                    l3154 0492                    l3146 046A                    l3138 0444  
                  l3090 0351                    l3082 032D                    l3074 0304                    l3066 02DC  
                  l3058 02C4                    l3252 0751                    l3244 06F6                    l3236 06CB  
                  l3228 068C                    l3180 0526                    l3172 04FD                    l3164 04CE  
                  l3156 049A                    l3148 0471                    l3092 035A                    l3084 0336  
                  l3076 0313                    l3068 02E3                    l3246 06FA                    l3238 06E2  
                  l3190 0560                    l3182 053B                    l3174 0508                    l3254 0760  
                  l3166 04DA                    l3158 04A2                    l3094 0363                    l3086 033F  
                  l3078 031B                    l2712 0DD4                    l2720 0E06                    l2800 079B  
                  l3256 0769                    l3248 0726                    l3192 0564                    l3184 0543  
                  l3176 0511                    l3168 04E4                    l3088 0348                    l3096 0370  
                  l2722 0E13                    l2714 0DDB                    l2810 07B7                    l2802 07A1  
                  l3258 077B                    l3194 056D                    l3186 054C                    l3178 0519  
                  l3098 0380                    l2724 0E25                    l2716 0DEE                    l2812 07C8  
                  l2804 07A5                    l2820 07DF                    l3196 0575                    l3188 0556  
                  l2900 003E                    l2726 0E40                    l2718 0DF4                    l2822 07E6  
                  l2814 07CE                    l2806 07AC                    l2830 0E5E                    l3198 0582  
                  l2910 0052                    l2902 003F                    l2816 07D0                    l2808 07B1  
                  l2840 0E74                    l2832 0E63                    l2824 0E4A                    l2920 0082  
                  l2912 0059                    l2904 0043                    l2818 07D7                    l2850 0E9D  
                  l2842 0E7B                    l2834 0E68                    l2826 0E51                    l2930 0098  
                  l2922 0086                    l2914 0063                    l2906 0044                    l2860 0EB8  
                  l2852 0E9F                    l2844 0E80                    l2836 0E6A                    l2828 0E5A  
                  l2940 00C3                    l2932 009C                    l2924 008A                    l2916 0066  
                  l2908 004A                    l2862 0EBF                    l2854 0EA6                    l2846 0E86  
                  l2838 0E70                    l2950 00E2                    l2942 00C6                    l2934 00A3  
                  l2926 0091                    l2918 006A                    l2870 001C                    l2848 0E97  
                  l2856 0EAE                    l2960 0100                    l2952 00E6                    l2944 00C9  
                  l2936 00AA                    l2928 0095                    l2880 0029                    l2872 001E  
                  l2864 0013                    l2858 0EB2                    l2970 011E                    l2962 0104  
                  l2946 00D2                    l2954 00EA                    l2938 00BA                    l2890 0035  
                  l2882 002B                    l2874 001F                    l2866 0016                    l2980 0146  
                  l2972 0122                    l2956 00F0                    l2964 0108                    l2948 00D9  
                  l2892 0037                    l2884 002C                    l2876 0023                    l2868 001A  
                  l2798 0797                    l2990 016B                    l2982 014E                    l2966 010E  
                  l2974 0126                    l2958 00F7                    l2894 0039                    l2886 002D  
                  l2878 0025                    l2992 0174                    l2984 0152                    l2976 012C  
                  l2968 0115                    l2896 003C                    l2888 0033                    l2994 017B  
                  l2986 0156                    l2978 0134                    l2898 003D                    l2996 0184  
                  l2988 015D                    l2998 01A6                    u4000 033F                    u4001 033E  
                  u4010 0351                    u4011 0350                    u4100 0457                    u4020 0363  
                  u4101 0456                    u4021 0362                    u3230 0DF4                    u4110 045D  
                  u4030 0387                    u3231 0DF3                    u4111 045C                    u4031 0386  
                  u3240 0E06                    u4200 04CE                    u4120 0471                    u4040 03AA  
                  u3241 0E05                    u4201 04CD                    u4121 0470                    u4041 03A9  
                  u3250 0E25                    u4210 04F6                    u4130 0477                    u4050 03D9  
                  u3251 0E24                    u4211 04F5                    u4131 0476                    u4051 03D8  
                  u3260 0E40                    u3500 07C8                    u4300 058B                    u4220 04FD  
                  u4140 0483                    u4060 03FC                    u3261 0E3F                    u3245 0E02  
                  u3501 07C7                    u4301 058A                    u4221 04FC                    u4141 0482  
                  u4061 03FB                    u4310 059C                    u4230 0508                    u4150 048A  
                  u4070 0427                    u3255 0E21                    u4311 059B                    u4231 0507  
                  u4151 0489                    u4071 0426                    u3520 07DD                    u4400 0680  
                  u4320 05D6                    u4240 0511                    u4160 0491                    u4080 043C  
                  u3265 0E3C                    u3521 07DC                    u3505 07C4                    u4401 067F  
                  u4321 05D5                    u4241 0510                    u4161 0490                    u4081 043B  
                  u3610 0EAC                    u3530 0E51                    u4410 06CB                    u4330 0601  
                  u4250 0526                    u4170 049A                    u4090 0450                    u3515 07D1  
                  u3611 0EAB                    u3531 0E50                    u4411 06CA                    u4331 0600  
                  u4251 0525                    u4171 0499                    u4091 044F                    u3460 07A1  
                  u3620 0EB2                    u3540 0E5E                    u4420 06E2                    u4340 0612  
                  u4260 053B                    u4180 04A1                    u3700 00F0                    u3461 07A0  
                  u3605 0EA0                    u3541 0E5D                    u4421 06E1                    u4341 0611  
                  u4325 05D2                    u4261 053A                    u4181 04A0                    u3701 00EF  
                  u3550 0E70                    u4430 0725                    u4350 0619                    u4270 054C  
                  u4190 04B1                    u3710 0100                    u3630 0073                    u3551 0E6F  
                  u4431 0724                    u4415 06C7                    u4351 0618                    u4335 05FD  
                  u4271 054B                    u4191 04B0                    u3711 00FF                    u3631 0072  
                  u3480 07B5                    u4440 072E                    u4360 063D                    u4280 056D  
                  u3800 01AD                    u3720 010E                    u3640 007A                    u3481 07B4  
                  u4441 072D                    u4361 063C                    u4281 056C                    u3801 01AC  
                  u3721 010D                    u3641 0079                    u3570 0E84                    u4450 0750  
                  u4370 064C                    u4290 0582                    u3810 01B4                    u3730 011E  
                  u3650 0081                    u3475 07A6                    u3571 0E83                    u4451 074F  
                  u4435 0721                    u4371 064B                    u4291 0581                    u3811 01B3  
                  u3731 011D                    u3651 0080                    _PEIE 005E                    u4460 0759  
                  u4380 0653                    u3900 026F                    u3820 01CA                    u3740 012C  
                  u3660 00B8                    u3565 0E75                    u4461 0758                    u4381 0652  
                  u4365 0639                    u3901 026E                    u3821 01C9                    u3741 012B  
                  u3661 00B7                    u3590 0E97                    u4470 077B                    u4390 0663  
                  u3910 0279                    u3830 01DA                    u3750 0146                    u3670 00C3  
                  u3495 07B8                    u3591 0E96                    u4471 077A                    u4455 074C  
                  u4391 0662                    u3911 0278                    u3831 01D9                    u3751 0145  
                  u3671 00C2                    u4480 078D                    u3920 0289                    u3840 01E7  
                  u3760 015C                    u3680 00D2                    u3585 0E87                    u4481 078C  
                  u3921 0288                    u3841 01E6                    u3761 015B                    u3681 00D1  
                  u3930 02A9                    u3850 01F3                    u3770 016B                    u3690 00E2  
                  u3595 0E93                    u4475 0777                    u3931 02A8                    u3851 01F2  
                  u3771 016A                    u3755 0142                    u3691 00E1                    u3940 02BD  
                  u3860 0222                    u3780 0174                    u3941 02BC                    u3861 0221  
                  u3781 0173                    u3950 02CD                    u3870 0232                    u3790 0184  
                  u3951 02CC                    u3935 02A5                    u3871 0231                    u3791 0183  
                  u3960 02E2                    u3880 0248                    u3961 02E1                    u3881 0247  
                  u3970 0303                    u3890 0259                    u3971 0302                    u3891 0258  
                  u3980 031B                    u3981 031A                    u3990 032D                    u3991 032C  
                  _Temp 0024                    _main 0013                    btemp 007E                    start 0011  
                 ??_ISR 0070                   ?_main 0070         __end_of___awdiv 0EC0                   _ADRES 001E  
       ___awdiv@divisor 0052                   _T1CON 0010         __end_of___lwdiv 07E7         ___awdiv@counter 0056  
                 _TMR1H 000F                   _TMR1L 000E                   _PORTA 0005                   _PORTB 0006  
                 _PORTC 0007                   _TRISA 0085                   _TRISB 0086                   _TRISC 0087  
                 _TMain 0061                   _MainT 0DDB                   main@i 0060                   pclath 000A  
                 status 0003                   wtemp0 007E            __end_of_main 0797                  ??_main 005A  
                ?_MainT 0070                  _ADCON0 001F                  _ADCON1 009F        ___awdiv@dividend 0054  
                _ANSELA 0185                  _ANSELB 0186                  i1l1001 0FF2                  i1l1002 0FCE  
                i1l1010 0F34                  i1l1011 0FCD                  i1l1003 0EF1                  i1l1012 0FCC  
                i1l1020 0FA5                  i1l1004 0EF0                  i1l1013 0FCB                  i1l1021 0FC7  
                i1l1005 0F0C                  i1l1014 0FCA                  i1l1022 0FC6                  i1l1006 0F0C  
                i1l1023 0FB1                  i1l1015 0F86                  i1l1007 0F0B                  i1l1024 0FC5  
                i1l1016 0F79                  i1l1008 0F36                  i1l1025 0FF1                  i1l1017 0F85  
                i1l1009 0F35                  i1l1026 0FF3                  i1l1018 0FC9                  i1l1019 0FC8  
                i1l2730 0EC7                  i1l2740 0EE0                  i1l2732 0ECD                  i1l2750 0F06  
                i1l2742 0EE4                  i1l2734 0ED1                  i1l2760 0F3B                  i1l2752 0F13  
                i1l2744 0EEB                  i1l2736 0ED2                  i1l2728 0EC0                  i1l2770 0F67  
                i1l2762 0F42                  i1l2754 0F23                  i1l2746 0EF1                  i1l2738 0ED9  
                i1l2780 0F9B                  i1l2772 0F75                  i1l2764 0F49                  i1l2756 0F32  
                i1l2748 0EF8                  i1l2782 0FA0                  i1l2774 0F80                  i1l2766 0F57  
                i1l2758 0F3A                  i1l2790 0FCE                  i1l2792 0FD6                  i1l2784 0FA5  
                i1l2768 0F62                  i1l2776 0F86                  i1l2794 0FE5                  i1l2786 0FAC  
                i1l2778 0F8D                  i1l2788 0FB1                  i1l2796 0FF2                  u330_20 0EE4  
                u330_21 0EE3                  u331_20 0EEB                  u331_21 0EEA                  u340_20 0F62  
                u332_20 0EF8                  u340_21 0F61                  u332_21 0EF7                  u341_20 0F75  
                u333_20 0F06                  u341_21 0F74                  u333_21 0F05                  u342_20 0F80  
                u334_20 0F13                  u342_21 0F7F                  u334_21 0F12                  u343_20 0F9B  
                u335_20 0F23                  u327_20 0EC7                  u343_21 0F9A                  u335_21 0F22  
                u327_21 0EC6                  u344_20 0FAC                  u336_20 0F32                  u328_20 0ECD  
                u344_21 0FAB                  u336_21 0F31                  u328_21 0ECC                  u345_20 0FE5  
                u337_20 0F3A                  u329_20 0ED9                  u345_21 0FE4                  u337_21 0F39  
                u329_21 0ED8                  u338_20 0F42                  u338_21 0F41                  u339_20 0F57  
                u339_21 0F56                  _OSCCON 0090                  _TMR1IE 0460                  _TMR1IF 0060  
                _Dimmer 0021                  _VarCDS 0040                  _VarLED 004B                  _VarPIR 00A0  
                _Timer1 0025               ??___awdiv 0076               ??___lwdiv 0076        ___awdiv@quotient 0058  
                clrloop 07F8                  saved_w 007E           __end_of_MainT 0E4A          __pcstackCOMMON 0070  
               ??_MainT 0076              __pbssBANK0 0020              __pbssBANK1 00A0              __pmaintext 0013  
            __pintentry 0004   __end_of_MainT_Initial 0DDB                 _VarTemp 0046                 ___awdiv 0E4A  
               ___lwdiv 0797            __size_of_ISR 0140    end_of_initialization 07F4     start_initialization 07E7  
           __end_of_ISR 1000               _VarDimmer 0026               _VarTimer1 004F           __pcstackBANK0 0052  
             __pnvBANK0 0061        ___lwdiv@dividend 0054                ?___awdiv 0052               __ptext160 0000  
             __ptext155 0E4A               __ptext156 0797               __ptext157 0DDB               __ptext158 0DD4  
             __ptext159 0EC0                ?___lwdiv 0052          __size_of_MainT 006F        ___lwdiv@quotient 0056  
     interrupt_function 0004  __size_of_MainT_Initial 0007                _GO_nDONE 00F9                _VarTMain 0037  
      __size_of___awdiv 0076        __size_of___lwdiv 0050           _MainT_Initial 0DD4         ___lwdiv@divisor 0052  
       ___lwdiv@counter 0058           __size_of_main 0784                clear_ram 07F7          ?_MainT_Initial 0070  
              intlevel1 0000  
