opt subtitle "Microchip Technology Omniscient Code Generator (Lite mode) build 59893"

opt pagewidth 120

	opt lm

	processor	16F1516
clrc	macro
	bcf	3,0
	endm
clrz	macro
	bcf	3,2
	endm
setc	macro
	bsf	3,0
	endm
setz	macro
	bsf	3,2
	endm
skipc	macro
	btfss	3,0
	endm
skipz	macro
	btfss	3,2
	endm
skipnc	macro
	btfsc	3,0
	endm
skipnz	macro
	btfsc	3,2
	endm
pushw	macro
	movwi fsr1++
	endm
popw	macro
	moviw --fsr1
	endm
indf	equ	0
indf0	equ	0
indf1	equ	1
pc	equ	2
pcl	equ	2
status	equ	3
fsr0l	equ	4
fsr0h	equ	5
fsr1l	equ	6
fsr1h	equ	7
bsr	equ	8
wreg	equ	9
intcon	equ	11
c	equ	1
z	equ	0
pclath	equ	10
# 49 "C:\Program Files (x86)\Microchip\xc8\v1.33\include\pic16f1516.h"
INDF0 equ 00h ;# 
# 68 "C:\Program Files (x86)\Microchip\xc8\v1.33\include\pic16f1516.h"
INDF1 equ 01h ;# 
# 87 "C:\Program Files (x86)\Microchip\xc8\v1.33\include\pic16f1516.h"
PCL equ 02h ;# 
# 106 "C:\Program Files (x86)\Microchip\xc8\v1.33\include\pic16f1516.h"
STATUS equ 03h ;# 
# 169 "C:\Program Files (x86)\Microchip\xc8\v1.33\include\pic16f1516.h"
FSR0L equ 04h ;# 
# 188 "C:\Program Files (x86)\Microchip\xc8\v1.33\include\pic16f1516.h"
FSR0H equ 05h ;# 
# 210 "C:\Program Files (x86)\Microchip\xc8\v1.33\include\pic16f1516.h"
FSR1L equ 06h ;# 
# 229 "C:\Program Files (x86)\Microchip\xc8\v1.33\include\pic16f1516.h"
FSR1H equ 07h ;# 
# 248 "C:\Program Files (x86)\Microchip\xc8\v1.33\include\pic16f1516.h"
BSR equ 08h ;# 
# 299 "C:\Program Files (x86)\Microchip\xc8\v1.33\include\pic16f1516.h"
WREG equ 09h ;# 
# 318 "C:\Program Files (x86)\Microchip\xc8\v1.33\include\pic16f1516.h"
PCLATH equ 0Ah ;# 
# 337 "C:\Program Files (x86)\Microchip\xc8\v1.33\include\pic16f1516.h"
INTCON equ 0Bh ;# 
# 414 "C:\Program Files (x86)\Microchip\xc8\v1.33\include\pic16f1516.h"
PORTA equ 0Ch ;# 
# 475 "C:\Program Files (x86)\Microchip\xc8\v1.33\include\pic16f1516.h"
PORTB equ 0Dh ;# 
# 536 "C:\Program Files (x86)\Microchip\xc8\v1.33\include\pic16f1516.h"
PORTC equ 0Eh ;# 
# 597 "C:\Program Files (x86)\Microchip\xc8\v1.33\include\pic16f1516.h"
PORTE equ 010h ;# 
# 617 "C:\Program Files (x86)\Microchip\xc8\v1.33\include\pic16f1516.h"
PIR1 equ 011h ;# 
# 678 "C:\Program Files (x86)\Microchip\xc8\v1.33\include\pic16f1516.h"
PIR2 equ 012h ;# 
# 711 "C:\Program Files (x86)\Microchip\xc8\v1.33\include\pic16f1516.h"
TMR0 equ 015h ;# 
# 730 "C:\Program Files (x86)\Microchip\xc8\v1.33\include\pic16f1516.h"
TMR1 equ 016h ;# 
# 736 "C:\Program Files (x86)\Microchip\xc8\v1.33\include\pic16f1516.h"
TMR1L equ 016h ;# 
# 755 "C:\Program Files (x86)\Microchip\xc8\v1.33\include\pic16f1516.h"
TMR1H equ 017h ;# 
# 774 "C:\Program Files (x86)\Microchip\xc8\v1.33\include\pic16f1516.h"
T1CON equ 018h ;# 
# 845 "C:\Program Files (x86)\Microchip\xc8\v1.33\include\pic16f1516.h"
T1GCON equ 019h ;# 
# 914 "C:\Program Files (x86)\Microchip\xc8\v1.33\include\pic16f1516.h"
TMR2 equ 01Ah ;# 
# 933 "C:\Program Files (x86)\Microchip\xc8\v1.33\include\pic16f1516.h"
PR2 equ 01Bh ;# 
# 952 "C:\Program Files (x86)\Microchip\xc8\v1.33\include\pic16f1516.h"
T2CON equ 01Ch ;# 
# 1022 "C:\Program Files (x86)\Microchip\xc8\v1.33\include\pic16f1516.h"
TRISA equ 08Ch ;# 
# 1083 "C:\Program Files (x86)\Microchip\xc8\v1.33\include\pic16f1516.h"
TRISB equ 08Dh ;# 
# 1144 "C:\Program Files (x86)\Microchip\xc8\v1.33\include\pic16f1516.h"
TRISC equ 08Eh ;# 
# 1205 "C:\Program Files (x86)\Microchip\xc8\v1.33\include\pic16f1516.h"
TRISE equ 090h ;# 
# 1211 "C:\Program Files (x86)\Microchip\xc8\v1.33\include\pic16f1516.h"
PIE1 equ 091h ;# 
# 1272 "C:\Program Files (x86)\Microchip\xc8\v1.33\include\pic16f1516.h"
PIE2 equ 092h ;# 
# 1305 "C:\Program Files (x86)\Microchip\xc8\v1.33\include\pic16f1516.h"
OPTION_REG equ 095h ;# 
# 1387 "C:\Program Files (x86)\Microchip\xc8\v1.33\include\pic16f1516.h"
PCON equ 096h ;# 
# 1443 "C:\Program Files (x86)\Microchip\xc8\v1.33\include\pic16f1516.h"
WDTCON equ 097h ;# 
# 1501 "C:\Program Files (x86)\Microchip\xc8\v1.33\include\pic16f1516.h"
OSCCON equ 099h ;# 
# 1566 "C:\Program Files (x86)\Microchip\xc8\v1.33\include\pic16f1516.h"
OSCSTAT equ 09Ah ;# 
# 1620 "C:\Program Files (x86)\Microchip\xc8\v1.33\include\pic16f1516.h"
ADRES equ 09Bh ;# 
# 1626 "C:\Program Files (x86)\Microchip\xc8\v1.33\include\pic16f1516.h"
ADRESL equ 09Bh ;# 
# 1645 "C:\Program Files (x86)\Microchip\xc8\v1.33\include\pic16f1516.h"
ADRESH equ 09Ch ;# 
# 1664 "C:\Program Files (x86)\Microchip\xc8\v1.33\include\pic16f1516.h"
ADCON0 equ 09Dh ;# 
# 1743 "C:\Program Files (x86)\Microchip\xc8\v1.33\include\pic16f1516.h"
ADCON1 equ 09Eh ;# 
# 1808 "C:\Program Files (x86)\Microchip\xc8\v1.33\include\pic16f1516.h"
LATA equ 010Ch ;# 
# 1869 "C:\Program Files (x86)\Microchip\xc8\v1.33\include\pic16f1516.h"
LATB equ 010Dh ;# 
# 1930 "C:\Program Files (x86)\Microchip\xc8\v1.33\include\pic16f1516.h"
LATC equ 010Eh ;# 
# 1991 "C:\Program Files (x86)\Microchip\xc8\v1.33\include\pic16f1516.h"
BORCON equ 0116h ;# 
# 2023 "C:\Program Files (x86)\Microchip\xc8\v1.33\include\pic16f1516.h"
FVRCON equ 0117h ;# 
# 2081 "C:\Program Files (x86)\Microchip\xc8\v1.33\include\pic16f1516.h"
APFCON equ 011Dh ;# 
# 2106 "C:\Program Files (x86)\Microchip\xc8\v1.33\include\pic16f1516.h"
ANSELA equ 018Ch ;# 
# 2158 "C:\Program Files (x86)\Microchip\xc8\v1.33\include\pic16f1516.h"
ANSELB equ 018Dh ;# 
# 2215 "C:\Program Files (x86)\Microchip\xc8\v1.33\include\pic16f1516.h"
ANSELC equ 018Eh ;# 
# 2276 "C:\Program Files (x86)\Microchip\xc8\v1.33\include\pic16f1516.h"
PMADR equ 0191h ;# 
# 2282 "C:\Program Files (x86)\Microchip\xc8\v1.33\include\pic16f1516.h"
PMADRL equ 0191h ;# 
# 2301 "C:\Program Files (x86)\Microchip\xc8\v1.33\include\pic16f1516.h"
PMADRH equ 0192h ;# 
# 2320 "C:\Program Files (x86)\Microchip\xc8\v1.33\include\pic16f1516.h"
PMDAT equ 0193h ;# 
# 2326 "C:\Program Files (x86)\Microchip\xc8\v1.33\include\pic16f1516.h"
PMDATL equ 0193h ;# 
# 2345 "C:\Program Files (x86)\Microchip\xc8\v1.33\include\pic16f1516.h"
PMDATH equ 0194h ;# 
# 2364 "C:\Program Files (x86)\Microchip\xc8\v1.33\include\pic16f1516.h"
PMCON1 equ 0195h ;# 
# 2419 "C:\Program Files (x86)\Microchip\xc8\v1.33\include\pic16f1516.h"
PMCON2 equ 0196h ;# 
# 2438 "C:\Program Files (x86)\Microchip\xc8\v1.33\include\pic16f1516.h"
VREGCON equ 0197h ;# 
# 2458 "C:\Program Files (x86)\Microchip\xc8\v1.33\include\pic16f1516.h"
RCREG equ 0199h ;# 
# 2477 "C:\Program Files (x86)\Microchip\xc8\v1.33\include\pic16f1516.h"
TXREG equ 019Ah ;# 
# 2496 "C:\Program Files (x86)\Microchip\xc8\v1.33\include\pic16f1516.h"
SP1BRG equ 019Bh ;# 
# 2502 "C:\Program Files (x86)\Microchip\xc8\v1.33\include\pic16f1516.h"
SP1BRGL equ 019Bh ;# 
# 2507 "C:\Program Files (x86)\Microchip\xc8\v1.33\include\pic16f1516.h"
SPBRG equ 019Bh ;# 
# 2511 "C:\Program Files (x86)\Microchip\xc8\v1.33\include\pic16f1516.h"
SPBRGL equ 019Bh ;# 
# 2555 "C:\Program Files (x86)\Microchip\xc8\v1.33\include\pic16f1516.h"
SP1BRGH equ 019Ch ;# 
# 2560 "C:\Program Files (x86)\Microchip\xc8\v1.33\include\pic16f1516.h"
SPBRGH equ 019Ch ;# 
# 2592 "C:\Program Files (x86)\Microchip\xc8\v1.33\include\pic16f1516.h"
RCSTA equ 019Dh ;# 
# 2653 "C:\Program Files (x86)\Microchip\xc8\v1.33\include\pic16f1516.h"
TXSTA equ 019Eh ;# 
# 2714 "C:\Program Files (x86)\Microchip\xc8\v1.33\include\pic16f1516.h"
BAUDCON equ 019Fh ;# 
# 2765 "C:\Program Files (x86)\Microchip\xc8\v1.33\include\pic16f1516.h"
WPUB equ 020Dh ;# 
# 2834 "C:\Program Files (x86)\Microchip\xc8\v1.33\include\pic16f1516.h"
WPUE equ 0210h ;# 
# 2854 "C:\Program Files (x86)\Microchip\xc8\v1.33\include\pic16f1516.h"
SSPBUF equ 0211h ;# 
# 2859 "C:\Program Files (x86)\Microchip\xc8\v1.33\include\pic16f1516.h"
SSP1BUF equ 0211h ;# 
# 2891 "C:\Program Files (x86)\Microchip\xc8\v1.33\include\pic16f1516.h"
SSPADD equ 0212h ;# 
# 2896 "C:\Program Files (x86)\Microchip\xc8\v1.33\include\pic16f1516.h"
SSP1ADD equ 0212h ;# 
# 2928 "C:\Program Files (x86)\Microchip\xc8\v1.33\include\pic16f1516.h"
SSPMSK equ 0213h ;# 
# 2933 "C:\Program Files (x86)\Microchip\xc8\v1.33\include\pic16f1516.h"
SSP1MSK equ 0213h ;# 
# 2965 "C:\Program Files (x86)\Microchip\xc8\v1.33\include\pic16f1516.h"
SSPSTAT equ 0214h ;# 
# 2970 "C:\Program Files (x86)\Microchip\xc8\v1.33\include\pic16f1516.h"
SSP1STAT equ 0214h ;# 
# 3086 "C:\Program Files (x86)\Microchip\xc8\v1.33\include\pic16f1516.h"
SSPCON1 equ 0215h ;# 
# 3091 "C:\Program Files (x86)\Microchip\xc8\v1.33\include\pic16f1516.h"
SSPCON equ 0215h ;# 
# 3095 "C:\Program Files (x86)\Microchip\xc8\v1.33\include\pic16f1516.h"
SSP1CON1 equ 0215h ;# 
# 3289 "C:\Program Files (x86)\Microchip\xc8\v1.33\include\pic16f1516.h"
SSPCON2 equ 0216h ;# 
# 3294 "C:\Program Files (x86)\Microchip\xc8\v1.33\include\pic16f1516.h"
SSP1CON2 equ 0216h ;# 
# 3410 "C:\Program Files (x86)\Microchip\xc8\v1.33\include\pic16f1516.h"
SSPCON3 equ 0217h ;# 
# 3415 "C:\Program Files (x86)\Microchip\xc8\v1.33\include\pic16f1516.h"
SSP1CON3 equ 0217h ;# 
# 3531 "C:\Program Files (x86)\Microchip\xc8\v1.33\include\pic16f1516.h"
CCPR1 equ 0291h ;# 
# 3537 "C:\Program Files (x86)\Microchip\xc8\v1.33\include\pic16f1516.h"
CCPR1L equ 0291h ;# 
# 3556 "C:\Program Files (x86)\Microchip\xc8\v1.33\include\pic16f1516.h"
CCPR1H equ 0292h ;# 
# 3575 "C:\Program Files (x86)\Microchip\xc8\v1.33\include\pic16f1516.h"
CCP1CON equ 0293h ;# 
# 3638 "C:\Program Files (x86)\Microchip\xc8\v1.33\include\pic16f1516.h"
CCPR2 equ 0298h ;# 
# 3644 "C:\Program Files (x86)\Microchip\xc8\v1.33\include\pic16f1516.h"
CCPR2L equ 0298h ;# 
# 3663 "C:\Program Files (x86)\Microchip\xc8\v1.33\include\pic16f1516.h"
CCPR2H equ 0299h ;# 
# 3682 "C:\Program Files (x86)\Microchip\xc8\v1.33\include\pic16f1516.h"
CCP2CON equ 029Ah ;# 
# 3745 "C:\Program Files (x86)\Microchip\xc8\v1.33\include\pic16f1516.h"
IOCBP equ 0394h ;# 
# 3814 "C:\Program Files (x86)\Microchip\xc8\v1.33\include\pic16f1516.h"
IOCBN equ 0395h ;# 
# 3883 "C:\Program Files (x86)\Microchip\xc8\v1.33\include\pic16f1516.h"
IOCBF equ 0396h ;# 
# 3952 "C:\Program Files (x86)\Microchip\xc8\v1.33\include\pic16f1516.h"
STATUS_SHAD equ 0FE4h ;# 
# 3983 "C:\Program Files (x86)\Microchip\xc8\v1.33\include\pic16f1516.h"
WREG_SHAD equ 0FE5h ;# 
# 4002 "C:\Program Files (x86)\Microchip\xc8\v1.33\include\pic16f1516.h"
BSR_SHAD equ 0FE6h ;# 
# 4021 "C:\Program Files (x86)\Microchip\xc8\v1.33\include\pic16f1516.h"
PCLATH_SHAD equ 0FE7h ;# 
# 4040 "C:\Program Files (x86)\Microchip\xc8\v1.33\include\pic16f1516.h"
FSR0L_SHAD equ 0FE8h ;# 
# 4059 "C:\Program Files (x86)\Microchip\xc8\v1.33\include\pic16f1516.h"
FSR0H_SHAD equ 0FE9h ;# 
# 4078 "C:\Program Files (x86)\Microchip\xc8\v1.33\include\pic16f1516.h"
FSR1L_SHAD equ 0FEAh ;# 
# 4097 "C:\Program Files (x86)\Microchip\xc8\v1.33\include\pic16f1516.h"
FSR1H_SHAD equ 0FEBh ;# 
# 4116 "C:\Program Files (x86)\Microchip\xc8\v1.33\include\pic16f1516.h"
STKPTR equ 0FEDh ;# 
# 4135 "C:\Program Files (x86)\Microchip\xc8\v1.33\include\pic16f1516.h"
TOSL equ 0FEEh ;# 
# 4154 "C:\Program Files (x86)\Microchip\xc8\v1.33\include\pic16f1516.h"
TOSH equ 0FEFh ;# 
# 49 "C:\Program Files (x86)\Microchip\xc8\v1.33\include\pic16f1516.h"
INDF0 equ 00h ;# 
# 68 "C:\Program Files (x86)\Microchip\xc8\v1.33\include\pic16f1516.h"
INDF1 equ 01h ;# 
# 87 "C:\Program Files (x86)\Microchip\xc8\v1.33\include\pic16f1516.h"
PCL equ 02h ;# 
# 106 "C:\Program Files (x86)\Microchip\xc8\v1.33\include\pic16f1516.h"
STATUS equ 03h ;# 
# 169 "C:\Program Files (x86)\Microchip\xc8\v1.33\include\pic16f1516.h"
FSR0L equ 04h ;# 
# 188 "C:\Program Files (x86)\Microchip\xc8\v1.33\include\pic16f1516.h"
FSR0H equ 05h ;# 
# 210 "C:\Program Files (x86)\Microchip\xc8\v1.33\include\pic16f1516.h"
FSR1L equ 06h ;# 
# 229 "C:\Program Files (x86)\Microchip\xc8\v1.33\include\pic16f1516.h"
FSR1H equ 07h ;# 
# 248 "C:\Program Files (x86)\Microchip\xc8\v1.33\include\pic16f1516.h"
BSR equ 08h ;# 
# 299 "C:\Program Files (x86)\Microchip\xc8\v1.33\include\pic16f1516.h"
WREG equ 09h ;# 
# 318 "C:\Program Files (x86)\Microchip\xc8\v1.33\include\pic16f1516.h"
PCLATH equ 0Ah ;# 
# 337 "C:\Program Files (x86)\Microchip\xc8\v1.33\include\pic16f1516.h"
INTCON equ 0Bh ;# 
# 414 "C:\Program Files (x86)\Microchip\xc8\v1.33\include\pic16f1516.h"
PORTA equ 0Ch ;# 
# 475 "C:\Program Files (x86)\Microchip\xc8\v1.33\include\pic16f1516.h"
PORTB equ 0Dh ;# 
# 536 "C:\Program Files (x86)\Microchip\xc8\v1.33\include\pic16f1516.h"
PORTC equ 0Eh ;# 
# 597 "C:\Program Files (x86)\Microchip\xc8\v1.33\include\pic16f1516.h"
PORTE equ 010h ;# 
# 617 "C:\Program Files (x86)\Microchip\xc8\v1.33\include\pic16f1516.h"
PIR1 equ 011h ;# 
# 678 "C:\Program Files (x86)\Microchip\xc8\v1.33\include\pic16f1516.h"
PIR2 equ 012h ;# 
# 711 "C:\Program Files (x86)\Microchip\xc8\v1.33\include\pic16f1516.h"
TMR0 equ 015h ;# 
# 730 "C:\Program Files (x86)\Microchip\xc8\v1.33\include\pic16f1516.h"
TMR1 equ 016h ;# 
# 736 "C:\Program Files (x86)\Microchip\xc8\v1.33\include\pic16f1516.h"
TMR1L equ 016h ;# 
# 755 "C:\Program Files (x86)\Microchip\xc8\v1.33\include\pic16f1516.h"
TMR1H equ 017h ;# 
# 774 "C:\Program Files (x86)\Microchip\xc8\v1.33\include\pic16f1516.h"
T1CON equ 018h ;# 
# 845 "C:\Program Files (x86)\Microchip\xc8\v1.33\include\pic16f1516.h"
T1GCON equ 019h ;# 
# 914 "C:\Program Files (x86)\Microchip\xc8\v1.33\include\pic16f1516.h"
TMR2 equ 01Ah ;# 
# 933 "C:\Program Files (x86)\Microchip\xc8\v1.33\include\pic16f1516.h"
PR2 equ 01Bh ;# 
# 952 "C:\Program Files (x86)\Microchip\xc8\v1.33\include\pic16f1516.h"
T2CON equ 01Ch ;# 
# 1022 "C:\Program Files (x86)\Microchip\xc8\v1.33\include\pic16f1516.h"
TRISA equ 08Ch ;# 
# 1083 "C:\Program Files (x86)\Microchip\xc8\v1.33\include\pic16f1516.h"
TRISB equ 08Dh ;# 
# 1144 "C:\Program Files (x86)\Microchip\xc8\v1.33\include\pic16f1516.h"
TRISC equ 08Eh ;# 
# 1205 "C:\Program Files (x86)\Microchip\xc8\v1.33\include\pic16f1516.h"
TRISE equ 090h ;# 
# 1211 "C:\Program Files (x86)\Microchip\xc8\v1.33\include\pic16f1516.h"
PIE1 equ 091h ;# 
# 1272 "C:\Program Files (x86)\Microchip\xc8\v1.33\include\pic16f1516.h"
PIE2 equ 092h ;# 
# 1305 "C:\Program Files (x86)\Microchip\xc8\v1.33\include\pic16f1516.h"
OPTION_REG equ 095h ;# 
# 1387 "C:\Program Files (x86)\Microchip\xc8\v1.33\include\pic16f1516.h"
PCON equ 096h ;# 
# 1443 "C:\Program Files (x86)\Microchip\xc8\v1.33\include\pic16f1516.h"
WDTCON equ 097h ;# 
# 1501 "C:\Program Files (x86)\Microchip\xc8\v1.33\include\pic16f1516.h"
OSCCON equ 099h ;# 
# 1566 "C:\Program Files (x86)\Microchip\xc8\v1.33\include\pic16f1516.h"
OSCSTAT equ 09Ah ;# 
# 1620 "C:\Program Files (x86)\Microchip\xc8\v1.33\include\pic16f1516.h"
ADRES equ 09Bh ;# 
# 1626 "C:\Program Files (x86)\Microchip\xc8\v1.33\include\pic16f1516.h"
ADRESL equ 09Bh ;# 
# 1645 "C:\Program Files (x86)\Microchip\xc8\v1.33\include\pic16f1516.h"
ADRESH equ 09Ch ;# 
# 1664 "C:\Program Files (x86)\Microchip\xc8\v1.33\include\pic16f1516.h"
ADCON0 equ 09Dh ;# 
# 1743 "C:\Program Files (x86)\Microchip\xc8\v1.33\include\pic16f1516.h"
ADCON1 equ 09Eh ;# 
# 1808 "C:\Program Files (x86)\Microchip\xc8\v1.33\include\pic16f1516.h"
LATA equ 010Ch ;# 
# 1869 "C:\Program Files (x86)\Microchip\xc8\v1.33\include\pic16f1516.h"
LATB equ 010Dh ;# 
# 1930 "C:\Program Files (x86)\Microchip\xc8\v1.33\include\pic16f1516.h"
LATC equ 010Eh ;# 
# 1991 "C:\Program Files (x86)\Microchip\xc8\v1.33\include\pic16f1516.h"
BORCON equ 0116h ;# 
# 2023 "C:\Program Files (x86)\Microchip\xc8\v1.33\include\pic16f1516.h"
FVRCON equ 0117h ;# 
# 2081 "C:\Program Files (x86)\Microchip\xc8\v1.33\include\pic16f1516.h"
APFCON equ 011Dh ;# 
# 2106 "C:\Program Files (x86)\Microchip\xc8\v1.33\include\pic16f1516.h"
ANSELA equ 018Ch ;# 
# 2158 "C:\Program Files (x86)\Microchip\xc8\v1.33\include\pic16f1516.h"
ANSELB equ 018Dh ;# 
# 2215 "C:\Program Files (x86)\Microchip\xc8\v1.33\include\pic16f1516.h"
ANSELC equ 018Eh ;# 
# 2276 "C:\Program Files (x86)\Microchip\xc8\v1.33\include\pic16f1516.h"
PMADR equ 0191h ;# 
# 2282 "C:\Program Files (x86)\Microchip\xc8\v1.33\include\pic16f1516.h"
PMADRL equ 0191h ;# 
# 2301 "C:\Program Files (x86)\Microchip\xc8\v1.33\include\pic16f1516.h"
PMADRH equ 0192h ;# 
# 2320 "C:\Program Files (x86)\Microchip\xc8\v1.33\include\pic16f1516.h"
PMDAT equ 0193h ;# 
# 2326 "C:\Program Files (x86)\Microchip\xc8\v1.33\include\pic16f1516.h"
PMDATL equ 0193h ;# 
# 2345 "C:\Program Files (x86)\Microchip\xc8\v1.33\include\pic16f1516.h"
PMDATH equ 0194h ;# 
# 2364 "C:\Program Files (x86)\Microchip\xc8\v1.33\include\pic16f1516.h"
PMCON1 equ 0195h ;# 
# 2419 "C:\Program Files (x86)\Microchip\xc8\v1.33\include\pic16f1516.h"
PMCON2 equ 0196h ;# 
# 2438 "C:\Program Files (x86)\Microchip\xc8\v1.33\include\pic16f1516.h"
VREGCON equ 0197h ;# 
# 2458 "C:\Program Files (x86)\Microchip\xc8\v1.33\include\pic16f1516.h"
RCREG equ 0199h ;# 
# 2477 "C:\Program Files (x86)\Microchip\xc8\v1.33\include\pic16f1516.h"
TXREG equ 019Ah ;# 
# 2496 "C:\Program Files (x86)\Microchip\xc8\v1.33\include\pic16f1516.h"
SP1BRG equ 019Bh ;# 
# 2502 "C:\Program Files (x86)\Microchip\xc8\v1.33\include\pic16f1516.h"
SP1BRGL equ 019Bh ;# 
# 2507 "C:\Program Files (x86)\Microchip\xc8\v1.33\include\pic16f1516.h"
SPBRG equ 019Bh ;# 
# 2511 "C:\Program Files (x86)\Microchip\xc8\v1.33\include\pic16f1516.h"
SPBRGL equ 019Bh ;# 
# 2555 "C:\Program Files (x86)\Microchip\xc8\v1.33\include\pic16f1516.h"
SP1BRGH equ 019Ch ;# 
# 2560 "C:\Program Files (x86)\Microchip\xc8\v1.33\include\pic16f1516.h"
SPBRGH equ 019Ch ;# 
# 2592 "C:\Program Files (x86)\Microchip\xc8\v1.33\include\pic16f1516.h"
RCSTA equ 019Dh ;# 
# 2653 "C:\Program Files (x86)\Microchip\xc8\v1.33\include\pic16f1516.h"
TXSTA equ 019Eh ;# 
# 2714 "C:\Program Files (x86)\Microchip\xc8\v1.33\include\pic16f1516.h"
BAUDCON equ 019Fh ;# 
# 2765 "C:\Program Files (x86)\Microchip\xc8\v1.33\include\pic16f1516.h"
WPUB equ 020Dh ;# 
# 2834 "C:\Program Files (x86)\Microchip\xc8\v1.33\include\pic16f1516.h"
WPUE equ 0210h ;# 
# 2854 "C:\Program Files (x86)\Microchip\xc8\v1.33\include\pic16f1516.h"
SSPBUF equ 0211h ;# 
# 2859 "C:\Program Files (x86)\Microchip\xc8\v1.33\include\pic16f1516.h"
SSP1BUF equ 0211h ;# 
# 2891 "C:\Program Files (x86)\Microchip\xc8\v1.33\include\pic16f1516.h"
SSPADD equ 0212h ;# 
# 2896 "C:\Program Files (x86)\Microchip\xc8\v1.33\include\pic16f1516.h"
SSP1ADD equ 0212h ;# 
# 2928 "C:\Program Files (x86)\Microchip\xc8\v1.33\include\pic16f1516.h"
SSPMSK equ 0213h ;# 
# 2933 "C:\Program Files (x86)\Microchip\xc8\v1.33\include\pic16f1516.h"
SSP1MSK equ 0213h ;# 
# 2965 "C:\Program Files (x86)\Microchip\xc8\v1.33\include\pic16f1516.h"
SSPSTAT equ 0214h ;# 
# 2970 "C:\Program Files (x86)\Microchip\xc8\v1.33\include\pic16f1516.h"
SSP1STAT equ 0214h ;# 
# 3086 "C:\Program Files (x86)\Microchip\xc8\v1.33\include\pic16f1516.h"
SSPCON1 equ 0215h ;# 
# 3091 "C:\Program Files (x86)\Microchip\xc8\v1.33\include\pic16f1516.h"
SSPCON equ 0215h ;# 
# 3095 "C:\Program Files (x86)\Microchip\xc8\v1.33\include\pic16f1516.h"
SSP1CON1 equ 0215h ;# 
# 3289 "C:\Program Files (x86)\Microchip\xc8\v1.33\include\pic16f1516.h"
SSPCON2 equ 0216h ;# 
# 3294 "C:\Program Files (x86)\Microchip\xc8\v1.33\include\pic16f1516.h"
SSP1CON2 equ 0216h ;# 
# 3410 "C:\Program Files (x86)\Microchip\xc8\v1.33\include\pic16f1516.h"
SSPCON3 equ 0217h ;# 
# 3415 "C:\Program Files (x86)\Microchip\xc8\v1.33\include\pic16f1516.h"
SSP1CON3 equ 0217h ;# 
# 3531 "C:\Program Files (x86)\Microchip\xc8\v1.33\include\pic16f1516.h"
CCPR1 equ 0291h ;# 
# 3537 "C:\Program Files (x86)\Microchip\xc8\v1.33\include\pic16f1516.h"
CCPR1L equ 0291h ;# 
# 3556 "C:\Program Files (x86)\Microchip\xc8\v1.33\include\pic16f1516.h"
CCPR1H equ 0292h ;# 
# 3575 "C:\Program Files (x86)\Microchip\xc8\v1.33\include\pic16f1516.h"
CCP1CON equ 0293h ;# 
# 3638 "C:\Program Files (x86)\Microchip\xc8\v1.33\include\pic16f1516.h"
CCPR2 equ 0298h ;# 
# 3644 "C:\Program Files (x86)\Microchip\xc8\v1.33\include\pic16f1516.h"
CCPR2L equ 0298h ;# 
# 3663 "C:\Program Files (x86)\Microchip\xc8\v1.33\include\pic16f1516.h"
CCPR2H equ 0299h ;# 
# 3682 "C:\Program Files (x86)\Microchip\xc8\v1.33\include\pic16f1516.h"
CCP2CON equ 029Ah ;# 
# 3745 "C:\Program Files (x86)\Microchip\xc8\v1.33\include\pic16f1516.h"
IOCBP equ 0394h ;# 
# 3814 "C:\Program Files (x86)\Microchip\xc8\v1.33\include\pic16f1516.h"
IOCBN equ 0395h ;# 
# 3883 "C:\Program Files (x86)\Microchip\xc8\v1.33\include\pic16f1516.h"
IOCBF equ 0396h ;# 
# 3952 "C:\Program Files (x86)\Microchip\xc8\v1.33\include\pic16f1516.h"
STATUS_SHAD equ 0FE4h ;# 
# 3983 "C:\Program Files (x86)\Microchip\xc8\v1.33\include\pic16f1516.h"
WREG_SHAD equ 0FE5h ;# 
# 4002 "C:\Program Files (x86)\Microchip\xc8\v1.33\include\pic16f1516.h"
BSR_SHAD equ 0FE6h ;# 
# 4021 "C:\Program Files (x86)\Microchip\xc8\v1.33\include\pic16f1516.h"
PCLATH_SHAD equ 0FE7h ;# 
# 4040 "C:\Program Files (x86)\Microchip\xc8\v1.33\include\pic16f1516.h"
FSR0L_SHAD equ 0FE8h ;# 
# 4059 "C:\Program Files (x86)\Microchip\xc8\v1.33\include\pic16f1516.h"
FSR0H_SHAD equ 0FE9h ;# 
# 4078 "C:\Program Files (x86)\Microchip\xc8\v1.33\include\pic16f1516.h"
FSR1L_SHAD equ 0FEAh ;# 
# 4097 "C:\Program Files (x86)\Microchip\xc8\v1.33\include\pic16f1516.h"
FSR1H_SHAD equ 0FEBh ;# 
# 4116 "C:\Program Files (x86)\Microchip\xc8\v1.33\include\pic16f1516.h"
STKPTR equ 0FEDh ;# 
# 4135 "C:\Program Files (x86)\Microchip\xc8\v1.33\include\pic16f1516.h"
TOSL equ 0FEEh ;# 
# 4154 "C:\Program Files (x86)\Microchip\xc8\v1.33\include\pic16f1516.h"
TOSH equ 0FEFh ;# 
# 49 "C:\Program Files (x86)\Microchip\xc8\v1.33\include\pic16f1516.h"
INDF0 equ 00h ;# 
# 68 "C:\Program Files (x86)\Microchip\xc8\v1.33\include\pic16f1516.h"
INDF1 equ 01h ;# 
# 87 "C:\Program Files (x86)\Microchip\xc8\v1.33\include\pic16f1516.h"
PCL equ 02h ;# 
# 106 "C:\Program Files (x86)\Microchip\xc8\v1.33\include\pic16f1516.h"
STATUS equ 03h ;# 
# 169 "C:\Program Files (x86)\Microchip\xc8\v1.33\include\pic16f1516.h"
FSR0L equ 04h ;# 
# 188 "C:\Program Files (x86)\Microchip\xc8\v1.33\include\pic16f1516.h"
FSR0H equ 05h ;# 
# 210 "C:\Program Files (x86)\Microchip\xc8\v1.33\include\pic16f1516.h"
FSR1L equ 06h ;# 
# 229 "C:\Program Files (x86)\Microchip\xc8\v1.33\include\pic16f1516.h"
FSR1H equ 07h ;# 
# 248 "C:\Program Files (x86)\Microchip\xc8\v1.33\include\pic16f1516.h"
BSR equ 08h ;# 
# 299 "C:\Program Files (x86)\Microchip\xc8\v1.33\include\pic16f1516.h"
WREG equ 09h ;# 
# 318 "C:\Program Files (x86)\Microchip\xc8\v1.33\include\pic16f1516.h"
PCLATH equ 0Ah ;# 
# 337 "C:\Program Files (x86)\Microchip\xc8\v1.33\include\pic16f1516.h"
INTCON equ 0Bh ;# 
# 414 "C:\Program Files (x86)\Microchip\xc8\v1.33\include\pic16f1516.h"
PORTA equ 0Ch ;# 
# 475 "C:\Program Files (x86)\Microchip\xc8\v1.33\include\pic16f1516.h"
PORTB equ 0Dh ;# 
# 536 "C:\Program Files (x86)\Microchip\xc8\v1.33\include\pic16f1516.h"
PORTC equ 0Eh ;# 
# 597 "C:\Program Files (x86)\Microchip\xc8\v1.33\include\pic16f1516.h"
PORTE equ 010h ;# 
# 617 "C:\Program Files (x86)\Microchip\xc8\v1.33\include\pic16f1516.h"
PIR1 equ 011h ;# 
# 678 "C:\Program Files (x86)\Microchip\xc8\v1.33\include\pic16f1516.h"
PIR2 equ 012h ;# 
# 711 "C:\Program Files (x86)\Microchip\xc8\v1.33\include\pic16f1516.h"
TMR0 equ 015h ;# 
# 730 "C:\Program Files (x86)\Microchip\xc8\v1.33\include\pic16f1516.h"
TMR1 equ 016h ;# 
# 736 "C:\Program Files (x86)\Microchip\xc8\v1.33\include\pic16f1516.h"
TMR1L equ 016h ;# 
# 755 "C:\Program Files (x86)\Microchip\xc8\v1.33\include\pic16f1516.h"
TMR1H equ 017h ;# 
# 774 "C:\Program Files (x86)\Microchip\xc8\v1.33\include\pic16f1516.h"
T1CON equ 018h ;# 
# 845 "C:\Program Files (x86)\Microchip\xc8\v1.33\include\pic16f1516.h"
T1GCON equ 019h ;# 
# 914 "C:\Program Files (x86)\Microchip\xc8\v1.33\include\pic16f1516.h"
TMR2 equ 01Ah ;# 
# 933 "C:\Program Files (x86)\Microchip\xc8\v1.33\include\pic16f1516.h"
PR2 equ 01Bh ;# 
# 952 "C:\Program Files (x86)\Microchip\xc8\v1.33\include\pic16f1516.h"
T2CON equ 01Ch ;# 
# 1022 "C:\Program Files (x86)\Microchip\xc8\v1.33\include\pic16f1516.h"
TRISA equ 08Ch ;# 
# 1083 "C:\Program Files (x86)\Microchip\xc8\v1.33\include\pic16f1516.h"
TRISB equ 08Dh ;# 
# 1144 "C:\Program Files (x86)\Microchip\xc8\v1.33\include\pic16f1516.h"
TRISC equ 08Eh ;# 
# 1205 "C:\Program Files (x86)\Microchip\xc8\v1.33\include\pic16f1516.h"
TRISE equ 090h ;# 
# 1211 "C:\Program Files (x86)\Microchip\xc8\v1.33\include\pic16f1516.h"
PIE1 equ 091h ;# 
# 1272 "C:\Program Files (x86)\Microchip\xc8\v1.33\include\pic16f1516.h"
PIE2 equ 092h ;# 
# 1305 "C:\Program Files (x86)\Microchip\xc8\v1.33\include\pic16f1516.h"
OPTION_REG equ 095h ;# 
# 1387 "C:\Program Files (x86)\Microchip\xc8\v1.33\include\pic16f1516.h"
PCON equ 096h ;# 
# 1443 "C:\Program Files (x86)\Microchip\xc8\v1.33\include\pic16f1516.h"
WDTCON equ 097h ;# 
# 1501 "C:\Program Files (x86)\Microchip\xc8\v1.33\include\pic16f1516.h"
OSCCON equ 099h ;# 
# 1566 "C:\Program Files (x86)\Microchip\xc8\v1.33\include\pic16f1516.h"
OSCSTAT equ 09Ah ;# 
# 1620 "C:\Program Files (x86)\Microchip\xc8\v1.33\include\pic16f1516.h"
ADRES equ 09Bh ;# 
# 1626 "C:\Program Files (x86)\Microchip\xc8\v1.33\include\pic16f1516.h"
ADRESL equ 09Bh ;# 
# 1645 "C:\Program Files (x86)\Microchip\xc8\v1.33\include\pic16f1516.h"
ADRESH equ 09Ch ;# 
# 1664 "C:\Program Files (x86)\Microchip\xc8\v1.33\include\pic16f1516.h"
ADCON0 equ 09Dh ;# 
# 1743 "C:\Program Files (x86)\Microchip\xc8\v1.33\include\pic16f1516.h"
ADCON1 equ 09Eh ;# 
# 1808 "C:\Program Files (x86)\Microchip\xc8\v1.33\include\pic16f1516.h"
LATA equ 010Ch ;# 
# 1869 "C:\Program Files (x86)\Microchip\xc8\v1.33\include\pic16f1516.h"
LATB equ 010Dh ;# 
# 1930 "C:\Program Files (x86)\Microchip\xc8\v1.33\include\pic16f1516.h"
LATC equ 010Eh ;# 
# 1991 "C:\Program Files (x86)\Microchip\xc8\v1.33\include\pic16f1516.h"
BORCON equ 0116h ;# 
# 2023 "C:\Program Files (x86)\Microchip\xc8\v1.33\include\pic16f1516.h"
FVRCON equ 0117h ;# 
# 2081 "C:\Program Files (x86)\Microchip\xc8\v1.33\include\pic16f1516.h"
APFCON equ 011Dh ;# 
# 2106 "C:\Program Files (x86)\Microchip\xc8\v1.33\include\pic16f1516.h"
ANSELA equ 018Ch ;# 
# 2158 "C:\Program Files (x86)\Microchip\xc8\v1.33\include\pic16f1516.h"
ANSELB equ 018Dh ;# 
# 2215 "C:\Program Files (x86)\Microchip\xc8\v1.33\include\pic16f1516.h"
ANSELC equ 018Eh ;# 
# 2276 "C:\Program Files (x86)\Microchip\xc8\v1.33\include\pic16f1516.h"
PMADR equ 0191h ;# 
# 2282 "C:\Program Files (x86)\Microchip\xc8\v1.33\include\pic16f1516.h"
PMADRL equ 0191h ;# 
# 2301 "C:\Program Files (x86)\Microchip\xc8\v1.33\include\pic16f1516.h"
PMADRH equ 0192h ;# 
# 2320 "C:\Program Files (x86)\Microchip\xc8\v1.33\include\pic16f1516.h"
PMDAT equ 0193h ;# 
# 2326 "C:\Program Files (x86)\Microchip\xc8\v1.33\include\pic16f1516.h"
PMDATL equ 0193h ;# 
# 2345 "C:\Program Files (x86)\Microchip\xc8\v1.33\include\pic16f1516.h"
PMDATH equ 0194h ;# 
# 2364 "C:\Program Files (x86)\Microchip\xc8\v1.33\include\pic16f1516.h"
PMCON1 equ 0195h ;# 
# 2419 "C:\Program Files (x86)\Microchip\xc8\v1.33\include\pic16f1516.h"
PMCON2 equ 0196h ;# 
# 2438 "C:\Program Files (x86)\Microchip\xc8\v1.33\include\pic16f1516.h"
VREGCON equ 0197h ;# 
# 2458 "C:\Program Files (x86)\Microchip\xc8\v1.33\include\pic16f1516.h"
RCREG equ 0199h ;# 
# 2477 "C:\Program Files (x86)\Microchip\xc8\v1.33\include\pic16f1516.h"
TXREG equ 019Ah ;# 
# 2496 "C:\Program Files (x86)\Microchip\xc8\v1.33\include\pic16f1516.h"
SP1BRG equ 019Bh ;# 
# 2502 "C:\Program Files (x86)\Microchip\xc8\v1.33\include\pic16f1516.h"
SP1BRGL equ 019Bh ;# 
# 2507 "C:\Program Files (x86)\Microchip\xc8\v1.33\include\pic16f1516.h"
SPBRG equ 019Bh ;# 
# 2511 "C:\Program Files (x86)\Microchip\xc8\v1.33\include\pic16f1516.h"
SPBRGL equ 019Bh ;# 
# 2555 "C:\Program Files (x86)\Microchip\xc8\v1.33\include\pic16f1516.h"
SP1BRGH equ 019Ch ;# 
# 2560 "C:\Program Files (x86)\Microchip\xc8\v1.33\include\pic16f1516.h"
SPBRGH equ 019Ch ;# 
# 2592 "C:\Program Files (x86)\Microchip\xc8\v1.33\include\pic16f1516.h"
RCSTA equ 019Dh ;# 
# 2653 "C:\Program Files (x86)\Microchip\xc8\v1.33\include\pic16f1516.h"
TXSTA equ 019Eh ;# 
# 2714 "C:\Program Files (x86)\Microchip\xc8\v1.33\include\pic16f1516.h"
BAUDCON equ 019Fh ;# 
# 2765 "C:\Program Files (x86)\Microchip\xc8\v1.33\include\pic16f1516.h"
WPUB equ 020Dh ;# 
# 2834 "C:\Program Files (x86)\Microchip\xc8\v1.33\include\pic16f1516.h"
WPUE equ 0210h ;# 
# 2854 "C:\Program Files (x86)\Microchip\xc8\v1.33\include\pic16f1516.h"
SSPBUF equ 0211h ;# 
# 2859 "C:\Program Files (x86)\Microchip\xc8\v1.33\include\pic16f1516.h"
SSP1BUF equ 0211h ;# 
# 2891 "C:\Program Files (x86)\Microchip\xc8\v1.33\include\pic16f1516.h"
SSPADD equ 0212h ;# 
# 2896 "C:\Program Files (x86)\Microchip\xc8\v1.33\include\pic16f1516.h"
SSP1ADD equ 0212h ;# 
# 2928 "C:\Program Files (x86)\Microchip\xc8\v1.33\include\pic16f1516.h"
SSPMSK equ 0213h ;# 
# 2933 "C:\Program Files (x86)\Microchip\xc8\v1.33\include\pic16f1516.h"
SSP1MSK equ 0213h ;# 
# 2965 "C:\Program Files (x86)\Microchip\xc8\v1.33\include\pic16f1516.h"
SSPSTAT equ 0214h ;# 
# 2970 "C:\Program Files (x86)\Microchip\xc8\v1.33\include\pic16f1516.h"
SSP1STAT equ 0214h ;# 
# 3086 "C:\Program Files (x86)\Microchip\xc8\v1.33\include\pic16f1516.h"
SSPCON1 equ 0215h ;# 
# 3091 "C:\Program Files (x86)\Microchip\xc8\v1.33\include\pic16f1516.h"
SSPCON equ 0215h ;# 
# 3095 "C:\Program Files (x86)\Microchip\xc8\v1.33\include\pic16f1516.h"
SSP1CON1 equ 0215h ;# 
# 3289 "C:\Program Files (x86)\Microchip\xc8\v1.33\include\pic16f1516.h"
SSPCON2 equ 0216h ;# 
# 3294 "C:\Program Files (x86)\Microchip\xc8\v1.33\include\pic16f1516.h"
SSP1CON2 equ 0216h ;# 
# 3410 "C:\Program Files (x86)\Microchip\xc8\v1.33\include\pic16f1516.h"
SSPCON3 equ 0217h ;# 
# 3415 "C:\Program Files (x86)\Microchip\xc8\v1.33\include\pic16f1516.h"
SSP1CON3 equ 0217h ;# 
# 3531 "C:\Program Files (x86)\Microchip\xc8\v1.33\include\pic16f1516.h"
CCPR1 equ 0291h ;# 
# 3537 "C:\Program Files (x86)\Microchip\xc8\v1.33\include\pic16f1516.h"
CCPR1L equ 0291h ;# 
# 3556 "C:\Program Files (x86)\Microchip\xc8\v1.33\include\pic16f1516.h"
CCPR1H equ 0292h ;# 
# 3575 "C:\Program Files (x86)\Microchip\xc8\v1.33\include\pic16f1516.h"
CCP1CON equ 0293h ;# 
# 3638 "C:\Program Files (x86)\Microchip\xc8\v1.33\include\pic16f1516.h"
CCPR2 equ 0298h ;# 
# 3644 "C:\Program Files (x86)\Microchip\xc8\v1.33\include\pic16f1516.h"
CCPR2L equ 0298h ;# 
# 3663 "C:\Program Files (x86)\Microchip\xc8\v1.33\include\pic16f1516.h"
CCPR2H equ 0299h ;# 
# 3682 "C:\Program Files (x86)\Microchip\xc8\v1.33\include\pic16f1516.h"
CCP2CON equ 029Ah ;# 
# 3745 "C:\Program Files (x86)\Microchip\xc8\v1.33\include\pic16f1516.h"
IOCBP equ 0394h ;# 
# 3814 "C:\Program Files (x86)\Microchip\xc8\v1.33\include\pic16f1516.h"
IOCBN equ 0395h ;# 
# 3883 "C:\Program Files (x86)\Microchip\xc8\v1.33\include\pic16f1516.h"
IOCBF equ 0396h ;# 
# 3952 "C:\Program Files (x86)\Microchip\xc8\v1.33\include\pic16f1516.h"
STATUS_SHAD equ 0FE4h ;# 
# 3983 "C:\Program Files (x86)\Microchip\xc8\v1.33\include\pic16f1516.h"
WREG_SHAD equ 0FE5h ;# 
# 4002 "C:\Program Files (x86)\Microchip\xc8\v1.33\include\pic16f1516.h"
BSR_SHAD equ 0FE6h ;# 
# 4021 "C:\Program Files (x86)\Microchip\xc8\v1.33\include\pic16f1516.h"
PCLATH_SHAD equ 0FE7h ;# 
# 4040 "C:\Program Files (x86)\Microchip\xc8\v1.33\include\pic16f1516.h"
FSR0L_SHAD equ 0FE8h ;# 
# 4059 "C:\Program Files (x86)\Microchip\xc8\v1.33\include\pic16f1516.h"
FSR0H_SHAD equ 0FE9h ;# 
# 4078 "C:\Program Files (x86)\Microchip\xc8\v1.33\include\pic16f1516.h"
FSR1L_SHAD equ 0FEAh ;# 
# 4097 "C:\Program Files (x86)\Microchip\xc8\v1.33\include\pic16f1516.h"
FSR1H_SHAD equ 0FEBh ;# 
# 4116 "C:\Program Files (x86)\Microchip\xc8\v1.33\include\pic16f1516.h"
STKPTR equ 0FEDh ;# 
# 4135 "C:\Program Files (x86)\Microchip\xc8\v1.33\include\pic16f1516.h"
TOSL equ 0FEEh ;# 
# 4154 "C:\Program Files (x86)\Microchip\xc8\v1.33\include\pic16f1516.h"
TOSH equ 0FEFh ;# 
# 49 "C:\Program Files (x86)\Microchip\xc8\v1.33\include\pic16f1516.h"
INDF0 equ 00h ;# 
# 68 "C:\Program Files (x86)\Microchip\xc8\v1.33\include\pic16f1516.h"
INDF1 equ 01h ;# 
# 87 "C:\Program Files (x86)\Microchip\xc8\v1.33\include\pic16f1516.h"
PCL equ 02h ;# 
# 106 "C:\Program Files (x86)\Microchip\xc8\v1.33\include\pic16f1516.h"
STATUS equ 03h ;# 
# 169 "C:\Program Files (x86)\Microchip\xc8\v1.33\include\pic16f1516.h"
FSR0L equ 04h ;# 
# 188 "C:\Program Files (x86)\Microchip\xc8\v1.33\include\pic16f1516.h"
FSR0H equ 05h ;# 
# 210 "C:\Program Files (x86)\Microchip\xc8\v1.33\include\pic16f1516.h"
FSR1L equ 06h ;# 
# 229 "C:\Program Files (x86)\Microchip\xc8\v1.33\include\pic16f1516.h"
FSR1H equ 07h ;# 
# 248 "C:\Program Files (x86)\Microchip\xc8\v1.33\include\pic16f1516.h"
BSR equ 08h ;# 
# 299 "C:\Program Files (x86)\Microchip\xc8\v1.33\include\pic16f1516.h"
WREG equ 09h ;# 
# 318 "C:\Program Files (x86)\Microchip\xc8\v1.33\include\pic16f1516.h"
PCLATH equ 0Ah ;# 
# 337 "C:\Program Files (x86)\Microchip\xc8\v1.33\include\pic16f1516.h"
INTCON equ 0Bh ;# 
# 414 "C:\Program Files (x86)\Microchip\xc8\v1.33\include\pic16f1516.h"
PORTA equ 0Ch ;# 
# 475 "C:\Program Files (x86)\Microchip\xc8\v1.33\include\pic16f1516.h"
PORTB equ 0Dh ;# 
# 536 "C:\Program Files (x86)\Microchip\xc8\v1.33\include\pic16f1516.h"
PORTC equ 0Eh ;# 
# 597 "C:\Program Files (x86)\Microchip\xc8\v1.33\include\pic16f1516.h"
PORTE equ 010h ;# 
# 617 "C:\Program Files (x86)\Microchip\xc8\v1.33\include\pic16f1516.h"
PIR1 equ 011h ;# 
# 678 "C:\Program Files (x86)\Microchip\xc8\v1.33\include\pic16f1516.h"
PIR2 equ 012h ;# 
# 711 "C:\Program Files (x86)\Microchip\xc8\v1.33\include\pic16f1516.h"
TMR0 equ 015h ;# 
# 730 "C:\Program Files (x86)\Microchip\xc8\v1.33\include\pic16f1516.h"
TMR1 equ 016h ;# 
# 736 "C:\Program Files (x86)\Microchip\xc8\v1.33\include\pic16f1516.h"
TMR1L equ 016h ;# 
# 755 "C:\Program Files (x86)\Microchip\xc8\v1.33\include\pic16f1516.h"
TMR1H equ 017h ;# 
# 774 "C:\Program Files (x86)\Microchip\xc8\v1.33\include\pic16f1516.h"
T1CON equ 018h ;# 
# 845 "C:\Program Files (x86)\Microchip\xc8\v1.33\include\pic16f1516.h"
T1GCON equ 019h ;# 
# 914 "C:\Program Files (x86)\Microchip\xc8\v1.33\include\pic16f1516.h"
TMR2 equ 01Ah ;# 
# 933 "C:\Program Files (x86)\Microchip\xc8\v1.33\include\pic16f1516.h"
PR2 equ 01Bh ;# 
# 952 "C:\Program Files (x86)\Microchip\xc8\v1.33\include\pic16f1516.h"
T2CON equ 01Ch ;# 
# 1022 "C:\Program Files (x86)\Microchip\xc8\v1.33\include\pic16f1516.h"
TRISA equ 08Ch ;# 
# 1083 "C:\Program Files (x86)\Microchip\xc8\v1.33\include\pic16f1516.h"
TRISB equ 08Dh ;# 
# 1144 "C:\Program Files (x86)\Microchip\xc8\v1.33\include\pic16f1516.h"
TRISC equ 08Eh ;# 
# 1205 "C:\Program Files (x86)\Microchip\xc8\v1.33\include\pic16f1516.h"
TRISE equ 090h ;# 
# 1211 "C:\Program Files (x86)\Microchip\xc8\v1.33\include\pic16f1516.h"
PIE1 equ 091h ;# 
# 1272 "C:\Program Files (x86)\Microchip\xc8\v1.33\include\pic16f1516.h"
PIE2 equ 092h ;# 
# 1305 "C:\Program Files (x86)\Microchip\xc8\v1.33\include\pic16f1516.h"
OPTION_REG equ 095h ;# 
# 1387 "C:\Program Files (x86)\Microchip\xc8\v1.33\include\pic16f1516.h"
PCON equ 096h ;# 
# 1443 "C:\Program Files (x86)\Microchip\xc8\v1.33\include\pic16f1516.h"
WDTCON equ 097h ;# 
# 1501 "C:\Program Files (x86)\Microchip\xc8\v1.33\include\pic16f1516.h"
OSCCON equ 099h ;# 
# 1566 "C:\Program Files (x86)\Microchip\xc8\v1.33\include\pic16f1516.h"
OSCSTAT equ 09Ah ;# 
# 1620 "C:\Program Files (x86)\Microchip\xc8\v1.33\include\pic16f1516.h"
ADRES equ 09Bh ;# 
# 1626 "C:\Program Files (x86)\Microchip\xc8\v1.33\include\pic16f1516.h"
ADRESL equ 09Bh ;# 
# 1645 "C:\Program Files (x86)\Microchip\xc8\v1.33\include\pic16f1516.h"
ADRESH equ 09Ch ;# 
# 1664 "C:\Program Files (x86)\Microchip\xc8\v1.33\include\pic16f1516.h"
ADCON0 equ 09Dh ;# 
# 1743 "C:\Program Files (x86)\Microchip\xc8\v1.33\include\pic16f1516.h"
ADCON1 equ 09Eh ;# 
# 1808 "C:\Program Files (x86)\Microchip\xc8\v1.33\include\pic16f1516.h"
LATA equ 010Ch ;# 
# 1869 "C:\Program Files (x86)\Microchip\xc8\v1.33\include\pic16f1516.h"
LATB equ 010Dh ;# 
# 1930 "C:\Program Files (x86)\Microchip\xc8\v1.33\include\pic16f1516.h"
LATC equ 010Eh ;# 
# 1991 "C:\Program Files (x86)\Microchip\xc8\v1.33\include\pic16f1516.h"
BORCON equ 0116h ;# 
# 2023 "C:\Program Files (x86)\Microchip\xc8\v1.33\include\pic16f1516.h"
FVRCON equ 0117h ;# 
# 2081 "C:\Program Files (x86)\Microchip\xc8\v1.33\include\pic16f1516.h"
APFCON equ 011Dh ;# 
# 2106 "C:\Program Files (x86)\Microchip\xc8\v1.33\include\pic16f1516.h"
ANSELA equ 018Ch ;# 
# 2158 "C:\Program Files (x86)\Microchip\xc8\v1.33\include\pic16f1516.h"
ANSELB equ 018Dh ;# 
# 2215 "C:\Program Files (x86)\Microchip\xc8\v1.33\include\pic16f1516.h"
ANSELC equ 018Eh ;# 
# 2276 "C:\Program Files (x86)\Microchip\xc8\v1.33\include\pic16f1516.h"
PMADR equ 0191h ;# 
# 2282 "C:\Program Files (x86)\Microchip\xc8\v1.33\include\pic16f1516.h"
PMADRL equ 0191h ;# 
# 2301 "C:\Program Files (x86)\Microchip\xc8\v1.33\include\pic16f1516.h"
PMADRH equ 0192h ;# 
# 2320 "C:\Program Files (x86)\Microchip\xc8\v1.33\include\pic16f1516.h"
PMDAT equ 0193h ;# 
# 2326 "C:\Program Files (x86)\Microchip\xc8\v1.33\include\pic16f1516.h"
PMDATL equ 0193h ;# 
# 2345 "C:\Program Files (x86)\Microchip\xc8\v1.33\include\pic16f1516.h"
PMDATH equ 0194h ;# 
# 2364 "C:\Program Files (x86)\Microchip\xc8\v1.33\include\pic16f1516.h"
PMCON1 equ 0195h ;# 
# 2419 "C:\Program Files (x86)\Microchip\xc8\v1.33\include\pic16f1516.h"
PMCON2 equ 0196h ;# 
# 2438 "C:\Program Files (x86)\Microchip\xc8\v1.33\include\pic16f1516.h"
VREGCON equ 0197h ;# 
# 2458 "C:\Program Files (x86)\Microchip\xc8\v1.33\include\pic16f1516.h"
RCREG equ 0199h ;# 
# 2477 "C:\Program Files (x86)\Microchip\xc8\v1.33\include\pic16f1516.h"
TXREG equ 019Ah ;# 
# 2496 "C:\Program Files (x86)\Microchip\xc8\v1.33\include\pic16f1516.h"
SP1BRG equ 019Bh ;# 
# 2502 "C:\Program Files (x86)\Microchip\xc8\v1.33\include\pic16f1516.h"
SP1BRGL equ 019Bh ;# 
# 2507 "C:\Program Files (x86)\Microchip\xc8\v1.33\include\pic16f1516.h"
SPBRG equ 019Bh ;# 
# 2511 "C:\Program Files (x86)\Microchip\xc8\v1.33\include\pic16f1516.h"
SPBRGL equ 019Bh ;# 
# 2555 "C:\Program Files (x86)\Microchip\xc8\v1.33\include\pic16f1516.h"
SP1BRGH equ 019Ch ;# 
# 2560 "C:\Program Files (x86)\Microchip\xc8\v1.33\include\pic16f1516.h"
SPBRGH equ 019Ch ;# 
# 2592 "C:\Program Files (x86)\Microchip\xc8\v1.33\include\pic16f1516.h"
RCSTA equ 019Dh ;# 
# 2653 "C:\Program Files (x86)\Microchip\xc8\v1.33\include\pic16f1516.h"
TXSTA equ 019Eh ;# 
# 2714 "C:\Program Files (x86)\Microchip\xc8\v1.33\include\pic16f1516.h"
BAUDCON equ 019Fh ;# 
# 2765 "C:\Program Files (x86)\Microchip\xc8\v1.33\include\pic16f1516.h"
WPUB equ 020Dh ;# 
# 2834 "C:\Program Files (x86)\Microchip\xc8\v1.33\include\pic16f1516.h"
WPUE equ 0210h ;# 
# 2854 "C:\Program Files (x86)\Microchip\xc8\v1.33\include\pic16f1516.h"
SSPBUF equ 0211h ;# 
# 2859 "C:\Program Files (x86)\Microchip\xc8\v1.33\include\pic16f1516.h"
SSP1BUF equ 0211h ;# 
# 2891 "C:\Program Files (x86)\Microchip\xc8\v1.33\include\pic16f1516.h"
SSPADD equ 0212h ;# 
# 2896 "C:\Program Files (x86)\Microchip\xc8\v1.33\include\pic16f1516.h"
SSP1ADD equ 0212h ;# 
# 2928 "C:\Program Files (x86)\Microchip\xc8\v1.33\include\pic16f1516.h"
SSPMSK equ 0213h ;# 
# 2933 "C:\Program Files (x86)\Microchip\xc8\v1.33\include\pic16f1516.h"
SSP1MSK equ 0213h ;# 
# 2965 "C:\Program Files (x86)\Microchip\xc8\v1.33\include\pic16f1516.h"
SSPSTAT equ 0214h ;# 
# 2970 "C:\Program Files (x86)\Microchip\xc8\v1.33\include\pic16f1516.h"
SSP1STAT equ 0214h ;# 
# 3086 "C:\Program Files (x86)\Microchip\xc8\v1.33\include\pic16f1516.h"
SSPCON1 equ 0215h ;# 
# 3091 "C:\Program Files (x86)\Microchip\xc8\v1.33\include\pic16f1516.h"
SSPCON equ 0215h ;# 
# 3095 "C:\Program Files (x86)\Microchip\xc8\v1.33\include\pic16f1516.h"
SSP1CON1 equ 0215h ;# 
# 3289 "C:\Program Files (x86)\Microchip\xc8\v1.33\include\pic16f1516.h"
SSPCON2 equ 0216h ;# 
# 3294 "C:\Program Files (x86)\Microchip\xc8\v1.33\include\pic16f1516.h"
SSP1CON2 equ 0216h ;# 
# 3410 "C:\Program Files (x86)\Microchip\xc8\v1.33\include\pic16f1516.h"
SSPCON3 equ 0217h ;# 
# 3415 "C:\Program Files (x86)\Microchip\xc8\v1.33\include\pic16f1516.h"
SSP1CON3 equ 0217h ;# 
# 3531 "C:\Program Files (x86)\Microchip\xc8\v1.33\include\pic16f1516.h"
CCPR1 equ 0291h ;# 
# 3537 "C:\Program Files (x86)\Microchip\xc8\v1.33\include\pic16f1516.h"
CCPR1L equ 0291h ;# 
# 3556 "C:\Program Files (x86)\Microchip\xc8\v1.33\include\pic16f1516.h"
CCPR1H equ 0292h ;# 
# 3575 "C:\Program Files (x86)\Microchip\xc8\v1.33\include\pic16f1516.h"
CCP1CON equ 0293h ;# 
# 3638 "C:\Program Files (x86)\Microchip\xc8\v1.33\include\pic16f1516.h"
CCPR2 equ 0298h ;# 
# 3644 "C:\Program Files (x86)\Microchip\xc8\v1.33\include\pic16f1516.h"
CCPR2L equ 0298h ;# 
# 3663 "C:\Program Files (x86)\Microchip\xc8\v1.33\include\pic16f1516.h"
CCPR2H equ 0299h ;# 
# 3682 "C:\Program Files (x86)\Microchip\xc8\v1.33\include\pic16f1516.h"
CCP2CON equ 029Ah ;# 
# 3745 "C:\Program Files (x86)\Microchip\xc8\v1.33\include\pic16f1516.h"
IOCBP equ 0394h ;# 
# 3814 "C:\Program Files (x86)\Microchip\xc8\v1.33\include\pic16f1516.h"
IOCBN equ 0395h ;# 
# 3883 "C:\Program Files (x86)\Microchip\xc8\v1.33\include\pic16f1516.h"
IOCBF equ 0396h ;# 
# 3952 "C:\Program Files (x86)\Microchip\xc8\v1.33\include\pic16f1516.h"
STATUS_SHAD equ 0FE4h ;# 
# 3983 "C:\Program Files (x86)\Microchip\xc8\v1.33\include\pic16f1516.h"
WREG_SHAD equ 0FE5h ;# 
# 4002 "C:\Program Files (x86)\Microchip\xc8\v1.33\include\pic16f1516.h"
BSR_SHAD equ 0FE6h ;# 
# 4021 "C:\Program Files (x86)\Microchip\xc8\v1.33\include\pic16f1516.h"
PCLATH_SHAD equ 0FE7h ;# 
# 4040 "C:\Program Files (x86)\Microchip\xc8\v1.33\include\pic16f1516.h"
FSR0L_SHAD equ 0FE8h ;# 
# 4059 "C:\Program Files (x86)\Microchip\xc8\v1.33\include\pic16f1516.h"
FSR0H_SHAD equ 0FE9h ;# 
# 4078 "C:\Program Files (x86)\Microchip\xc8\v1.33\include\pic16f1516.h"
FSR1L_SHAD equ 0FEAh ;# 
# 4097 "C:\Program Files (x86)\Microchip\xc8\v1.33\include\pic16f1516.h"
FSR1H_SHAD equ 0FEBh ;# 
# 4116 "C:\Program Files (x86)\Microchip\xc8\v1.33\include\pic16f1516.h"
STKPTR equ 0FEDh ;# 
# 4135 "C:\Program Files (x86)\Microchip\xc8\v1.33\include\pic16f1516.h"
TOSL equ 0FEEh ;# 
# 4154 "C:\Program Files (x86)\Microchip\xc8\v1.33\include\pic16f1516.h"
TOSH equ 0FEFh ;# 
	FNCALL	_main,_CC2500_PowerOnInitial
	FNCALL	_main,_I2C_Main
	FNCALL	_main,_MainT
	FNCALL	_main,_MainT_Initial
	FNCALL	_main,_Mcu_Initial
	FNCALL	_main,_RF_Initialization
	FNCALL	_main,_RF_Main
	FNCALL	_RF_Main,_setRF_Main
	FNCALL	_setRF_Main,_CC2500_RxData
	FNCALL	_setRF_Main,_CC2500_TxData
	FNCALL	_setRF_Main,_CC2500_WriteCommand
	FNCALL	_setRF_Main,_I2C_SetData
	FNCALL	_setRF_Main,_RF_RxDisable
	FNCALL	_setRF_Main,_RfPointSelect
	FNCALL	_setRF_Main,_setINT_GO
	FNCALL	_RF_RxDisable,_CC2500_WriteCommand
	FNCALL	_RF_RxDisable,_RfPointSelect
	FNCALL	_RF_RxDisable,_setINT_GO
	FNCALL	_CC2500_TxData,_CC2500_WriteByte
	FNCALL	_CC2500_TxData,_CC2500_WriteCommand
	FNCALL	_CC2500_RxData,_CC2500_ReadByte
	FNCALL	_CC2500_RxData,_CC2500_ReadStatus
	FNCALL	_CC2500_RxData,_CC2500_WriteByte
	FNCALL	_CC2500_RxData,_CC2500_WriteCommand
	FNCALL	_CC2500_RxData,_setRF_RxStatus
	FNCALL	_setRF_RxStatus,_RfPointSelect
	FNCALL	_CC2500_ReadStatus,_CC2500_ReadByte
	FNCALL	_CC2500_ReadStatus,_CC2500_WriteByte
	FNCALL	_RF_Initialization,_setRF_Initialization
	FNCALL	_Mcu_Initial,_I2C_Set
	FNCALL	_Mcu_Initial,_INT_Set
	FNCALL	_Mcu_Initial,_IO_Set
	FNCALL	_Mcu_Initial,_TMR1_Set
	FNCALL	_MainT,_setRF_Enable
	FNCALL	_setRF_Enable,_RfPointSelect
	FNCALL	_setRF_Enable,_setINT_GO
	FNCALL	_I2C_Main,_I2C_SetData
	FNCALL	_I2C_Main,_I2C_Slave_Mode
	FNCALL	_CC2500_PowerOnInitial,_CC2500_ClearRXFIFO
	FNCALL	_CC2500_PowerOnInitial,_CC2500_ClearTXFIFO
	FNCALL	_CC2500_PowerOnInitial,_CC2500_FrequencyCabr
	FNCALL	_CC2500_PowerOnInitial,_CC2500_InitPATable
	FNCALL	_CC2500_PowerOnInitial,_CC2500_InitSetREG
	FNCALL	_CC2500_PowerOnInitial,_CC2500_PowerRST
	FNCALL	_CC2500_PowerOnInitial,_CC2500_SIDLEMode
	FNCALL	_CC2500_SIDLEMode,_CC2500_WriteCommand
	FNCALL	_CC2500_PowerRST,_CC2500_WriteByte
	FNCALL	_CC2500_PowerRST,_DelayTime_1us
	FNCALL	_CC2500_InitSetREG,_CC2500_WriteREG
	FNCALL	_CC2500_InitPATable,_CC2500_WriteREG
	FNCALL	_CC2500_WriteREG,_CC2500_WriteByte
	FNCALL	_CC2500_FrequencyCabr,_CC2500_WriteCommand
	FNCALL	_CC2500_FrequencyCabr,_DelayTime_1us
	FNCALL	_CC2500_ClearTXFIFO,_CC2500_WriteCommand
	FNCALL	_CC2500_ClearRXFIFO,_CC2500_WriteCommand
	FNCALL	_CC2500_WriteCommand,_CC2500_WriteByte
	FNROOT	_main
	FNCALL	_ISR,_I2C_ISR
	FNCALL	_ISR,_INT_ISR
	FNCALL	_ISR,_TMR1_ISR
	FNCALL	_INT_ISR,_setRF_ReceiveGO
	FNCALL	_setRF_ReceiveGO,i1_RfPointSelect
	FNCALL	intlevel1,_ISR
	global	intlevel1
	FNROOT	intlevel1
	global	_VarProduct
psect	idataBANK1,class=CODE,space=0,delta=2,noexec
global __pidataBANK1
__pidataBANK1:
	file	"C:\Users\Eric\Documents\GitHub\myPicCode\0.myFile\myDevelopment-BH\Release\../Release/myDevelopment-B.h"
	line	230

;initializer for _VarProduct
	retlw	063h
	retlw	02h
	retlw	0
	retlw	0
	retlw	0
	retlw	0
	retlw	0
	retlw	0
	retlw	0
	retlw	0
	retlw	0
	retlw	0
	retlw	0FFh
	retlw	0FFh
	retlw	0FFh
	retlw	0
	retlw	0
	retlw	0
	retlw	0
	retlw	0
	retlw	0
	retlw	0
	retlw	0
	retlw	0
	retlw	0
	retlw	0
	retlw	0
	retlw	0
	retlw	0
	retlw	0
	retlw	0
	retlw	0
	global	_CC2500_registers_address
psect	stringtext,class=STRCODE,delta=2,reloc=256,noexec
global __pstringtext
__pstringtext:
	file	"C:\Users\Eric\Documents\GitHub\myPicCode\Header_File\CC2500_B1.h"
	line	218
_CC2500_registers_address:
	retlw	03h
	retlw	016h
	retlw	017h
	retlw	01Eh
	retlw	01Fh
	retlw	020h
	retlw	02Ah
	retlw	02Bh
	retlw	0Bh
	retlw	0Ch
	retlw	0Dh
	retlw	0Eh
	retlw	0Fh
	retlw	010h
	retlw	011h
	retlw	012h
	retlw	013h
	retlw	014h
	retlw	0Ah
	retlw	015h
	retlw	021h
	retlw	022h
	retlw	018h
	retlw	019h
	retlw	01Ah
	retlw	01Bh
	retlw	01Ch
	retlw	01Dh
	retlw	023h
	retlw	024h
	retlw	025h
	retlw	026h
	retlw	029h
	retlw	02Ch
	retlw	02Dh
	retlw	02Eh
	retlw	0
	retlw	01h
	retlw	02h
	retlw	07h
	retlw	08h
	retlw	09h
	retlw	06h
	retlw	04h
	retlw	05h
	retlw	027h
	retlw	028h
	global __end_of_CC2500_registers_address
__end_of_CC2500_registers_address:
	global	_CC2500_rfSettings
psect	stringtext
	file	"C:\Users\Eric\Documents\GitHub\myPicCode\Header_File\CC2500_B1.h"
	line	161
_CC2500_rfSettings:
	retlw	07h
	retlw	07h
	retlw	030h
	retlw	087h
	retlw	06Bh
	retlw	0F8h
	retlw	07Fh
	retlw	03Fh
	retlw	09h
	retlw	0
	retlw	05Ch
	retlw	0A7h
	retlw	062h
	retlw	086h
	retlw	083h
	retlw	03h
	retlw	022h
	retlw	0F8h
	retlw	0
	retlw	044h
	retlw	0B6h
	retlw	010h
	retlw	018h
	retlw	01Dh
	retlw	01Ch
	retlw	0C7h
	retlw	0
	retlw	0B2h
	retlw	0EAh
	retlw	0Ah
	retlw	0
	retlw	011h
	retlw	059h
	retlw	088h
	retlw	031h
	retlw	0Bh
	retlw	02Fh
	retlw	02Eh
	retlw	06h
	retlw	04h
	retlw	05h
	retlw	0
	retlw	030h
	retlw	0D3h
	retlw	091h
	retlw	041h
	retlw	0
	global __end_of_CC2500_rfSettings
__end_of_CC2500_rfSettings:
	global	_CC2500_patable_vaule
psect	stringtext
	file	"C:\Users\Eric\Documents\GitHub\myPicCode\Header_File\CC2500_B1.h"
	line	292
_CC2500_patable_vaule:
	retlw	0FEh
	retlw	0FEh
	retlw	0FEh
	retlw	0FEh
	retlw	0FEh
	retlw	0FEh
	retlw	0FEh
	retlw	0FEh
	global __end_of_CC2500_patable_vaule
__end_of_CC2500_patable_vaule:
	global	_CC2500_registers_address
	global	_CC2500_rfSettings
	global	_CC2500_patable_vaule
	global	_RF
	global	_RFSW
	global	_I2C
	global	_CC2500_Enable
	global	_Receive_GO
	global	_Receive_OK
	global	_RxStatus
	global	_Transceive_GO
	global	_Transceive_OK
	global	_TxStatus
	global	_RF_Data
	global	_RF_Count
	global	_CRC
	global	_RSSI
	global	_Rx_Length
	global	_SPI0Buffer
	global	_Timer1
	global	_Tx_Length
	global	_r_address
	global	_r_data
	global	_s_data
	global	_VarTMain
	global	_VarTimer1
	global	_RF1
	global	_VarI2C
	global	_Product
psect	nvCOMMON,class=COMMON,space=1,noexec
global __pnvCOMMON
__pnvCOMMON:
_Product:
       ds      1

	global	_TMain
psect	nvBANK0,class=BANK0,space=1,noexec
global __pnvBANK0
__pnvBANK0:
_TMain:
       ds      1

	global	_PORTA
_PORTA	set	0xC
	global	_PORTB
_PORTB	set	0xD
	global	_PORTC
_PORTC	set	0xE
	global	_T1CON
_T1CON	set	0x18
	global	_TMR1H
_TMR1H	set	0x17
	global	_TMR1L
_TMR1L	set	0x16
	global	_GIE
_GIE	set	0x5F
	global	_INTE
_INTE	set	0x5C
	global	_INTF
_INTF	set	0x59
	global	_PEIE
_PEIE	set	0x5E
	global	_RA0
_RA0	set	0x60
	global	_RA1
_RA1	set	0x61
	global	_RB0
_RB0	set	0x68
	global	_RB1
_RB1	set	0x69
	global	_RB2
_RB2	set	0x6A
	global	_RB3
_RB3	set	0x6B
	global	_RB5
_RB5	set	0x6D
	global	_RC0
_RC0	set	0x70
	global	_SSPIF
_SSPIF	set	0x8B
	global	_TMR1IF
_TMR1IF	set	0x88
	global	_OSCCON
_OSCCON	set	0x99
	global	_TRISA
_TRISA	set	0x8C
	global	_TRISB
_TRISB	set	0x8D
	global	_TRISC
_TRISC	set	0x8E
	global	_SSPIE
_SSPIE	set	0x48B
	global	_TMR1IE
_TMR1IE	set	0x488
	global	_LATA
_LATA	set	0x10C
	global	_LATB
_LATB	set	0x10D
	global	_LATC
_LATC	set	0x10E
	global	_ANSELA
_ANSELA	set	0x18C
	global	_ANSELB
_ANSELB	set	0x18D
	global	_ANSELC
_ANSELC	set	0x18E
	global	_SSPADD
_SSPADD	set	0x212
	global	_SSPBUF
_SSPBUF	set	0x211
	global	_SSPCON1
_SSPCON1	set	0x215
	global	_SSPCON2
_SSPCON2	set	0x216
	global	_SSPSTAT
_SSPSTAT	set	0x214
	global	_ACKEN
_ACKEN	set	0x10B4
	global	_ACKSTAT
_ACKSTAT	set	0x10B6
	global	_AHEN
_AHEN	set	0x10B9
	global	_BF
_BF	set	0x10A0
	global	_CKP
_CKP	set	0x10AC
	global	_DHEN
_DHEN	set	0x10B8
	global	_PEN
_PEN	set	0x10B2
	global	_RCEN
_RCEN	set	0x10B3
	global	_R_nW
_R_nW	set	0x10A2
	global	_SEN
_SEN	set	0x10B0
	global	_SSPOV
_SSPOV	set	0x10AE
	global	_WPUB0
_WPUB0	set	0x1068
; #config settings
global __CFG_WDTE$OFF
__CFG_WDTE$OFF equ 0x0
global __CFG_FOSC$INTOSC
__CFG_FOSC$INTOSC equ 0x0
global __CFG_WRT$BOOT
__CFG_WRT$BOOT equ 0x0
	file	"myDevelopment-BH.as"
	line	#
psect cinit,class=CODE,delta=2
global start_initialization
start_initialization:

global __initialization
__initialization:
psect	bitbssCOMMON,class=COMMON,bit,space=1,noexec
global __pbitbssCOMMON
__pbitbssCOMMON:
_CC2500_Enable:
       ds      1

_Receive_GO:
       ds      1

_Receive_OK:
       ds      1

_RxStatus:
       ds      1

_Transceive_GO:
       ds      1

_Transceive_OK:
       ds      1

_TxStatus:
       ds      1

psect	bssCOMMON,class=COMMON,space=1,noexec
global __pbssCOMMON
__pbssCOMMON:
_RF:
       ds      1

_RFSW:
       ds      1

_I2C:
       ds      1

psect	bssBANK0,class=BANK0,space=1,noexec
global __pbssBANK0
__pbssBANK0:
_RF_Data:
       ds      21

_RF_Count:
       ds      2

_CRC:
       ds      1

_RSSI:
       ds      1

_Rx_Length:
       ds      1

_SPI0Buffer:
       ds      1

_Timer1:
       ds      1

_Tx_Length:
       ds      1

_r_address:
       ds      1

_r_data:
       ds      1

_s_data:
       ds      1

_VarTMain:
       ds      15

_VarTimer1:
       ds      3

_RF1:
       ds      2

psect	dataBANK1,class=BANK1,space=1,noexec
global __pdataBANK1
__pdataBANK1:
	file	"C:\Users\Eric\Documents\GitHub\myPicCode\0.myFile\myDevelopment-BH\Release\../Release/myDevelopment-B.h"
	line	230
_VarProduct:
       ds      32

psect	bssBANK2,class=BANK2,space=1,noexec
global __pbssBANK2
__pbssBANK2:
_VarI2C:
       ds      67

	file	"myDevelopment-BH.as"
	line	#
psect clrtext,class=CODE,delta=2
global clear_ram0
;	Called with FSR0 containing the base address, and
;	WREG with the size to clear
clear_ram0:
	clrwdt			;clear the watchdog before getting into this loop
clrloop0:
	clrf	indf0		;clear RAM location pointed to by FSR
	addfsr	0,1
	decfsz wreg		;Have we reached the end of clearing yet?
	goto clrloop0	;have we reached the end yet?
	retlw	0		;all done for this memory range, return
; Clear objects allocated to BITCOMMON
psect cinit,class=CODE,delta=2,merge=1
	global __pbitbssCOMMON
	clrf	((__pbitbssCOMMON/8)+0)&07Fh
; Clear objects allocated to COMMON
psect cinit,class=CODE,delta=2,merge=1
	global __pbssCOMMON
	clrf	((__pbssCOMMON)+0)&07Fh
	clrf	((__pbssCOMMON)+1)&07Fh
	clrf	((__pbssCOMMON)+2)&07Fh
; Clear objects allocated to BANK0
psect cinit,class=CODE,delta=2,merge=1
	global __pbssBANK0
	movlw	low(__pbssBANK0)
	movwf	fsr0l
	movlw	high(__pbssBANK0)
	movwf	fsr0h
	movlw	034h
	fcall	clear_ram0
; Clear objects allocated to BANK2
psect cinit,class=CODE,delta=2,merge=1
	global __pbssBANK2
	movlw	low(__pbssBANK2)
	movwf	fsr0l
	movlw	high(__pbssBANK2)
	movwf	fsr0h
	movlw	043h
	fcall	clear_ram0
	line	#
psect inittext,class=CODE,delta=2
global init_ram,btemp
init_ram:
	movwf btemp,f
initloop:
	moviw fsr0++
	movwi fsr1++
	decfsz btemp
	goto initloop
	retlw 0
; Initialize objects allocated to BANK1
	global __pidataBANK1,__pdataBANK1
psect cinit,class=CODE,delta=2,merge=1
	movlw low(__pidataBANK1)
	movwf fsr0l
	movlw high(__pidataBANK1)|80h
	movwf fsr0h
	movlw low(__pdataBANK1)
	movwf fsr1l
	movlw high(__pdataBANK1)
	movwf fsr1h
	movlw 020h
	fcall init_ram
psect cinit,class=CODE,delta=2,merge=1
global end_of_initialization,__end_of__initialization

;End of C runtime variable initialization code

end_of_initialization:
__end_of__initialization:	bcf	pic14e$flags,0 ;clear compiler interrupt flag
movlb 0
ljmp _main	;jump to C main() function
psect	cstackCOMMON,class=COMMON,space=1,noexec
global __pcstackCOMMON
__pcstackCOMMON:
?_CC2500_WriteByte:	; 0 bytes @ 0x0
?_CC2500_WriteCommand:	; 0 bytes @ 0x0
?_CC2500_ReadStatus:	; 0 bytes @ 0x0
?_CC2500_ReadByte:	; 0 bytes @ 0x0
?_CC2500_PowerRST:	; 0 bytes @ 0x0
?_CC2500_InitSetREG:	; 0 bytes @ 0x0
?_CC2500_InitPATable:	; 0 bytes @ 0x0
?_CC2500_ClearTXFIFO:	; 0 bytes @ 0x0
?_CC2500_ClearRXFIFO:	; 0 bytes @ 0x0
?_CC2500_FrequencyCabr:	; 0 bytes @ 0x0
?_CC2500_SIDLEMode:	; 0 bytes @ 0x0
?_IO_Set:	; 0 bytes @ 0x0
?_TMR1_Set:	; 0 bytes @ 0x0
?_INT_Set:	; 0 bytes @ 0x0
?_I2C_Set:	; 0 bytes @ 0x0
?_TMR1_ISR:	; 0 bytes @ 0x0
??_TMR1_ISR:	; 0 bytes @ 0x0
?_INT_ISR:	; 0 bytes @ 0x0
?_I2C_ISR:	; 0 bytes @ 0x0
??_I2C_ISR:	; 0 bytes @ 0x0
?_I2C_Slave_Mode:	; 0 bytes @ 0x0
?_I2C_SetData:	; 0 bytes @ 0x0
?_setRF_Initialization:	; 0 bytes @ 0x0
?_setRF_Main:	; 0 bytes @ 0x0
?_RF_RxDisable:	; 0 bytes @ 0x0
?_MainT_Initial:	; 0 bytes @ 0x0
?_MainT:	; 0 bytes @ 0x0
?_CC2500_TxData:	; 0 bytes @ 0x0
?_CC2500_RxData:	; 0 bytes @ 0x0
?_CC2500_PowerOnInitial:	; 0 bytes @ 0x0
?_Mcu_Initial:	; 0 bytes @ 0x0
?_ISR:	; 0 bytes @ 0x0
?_setINT_GO:	; 0 bytes @ 0x0
?_I2C_Main:	; 0 bytes @ 0x0
?_RfPointSelect:	; 0 bytes @ 0x0
?_RF_Initialization:	; 0 bytes @ 0x0
?_RF_Main:	; 0 bytes @ 0x0
?_main:	; 0 bytes @ 0x0
?i1_RfPointSelect:	; 0 bytes @ 0x0
??i1_RfPointSelect:	; 0 bytes @ 0x0
setRF_Initialization@rf:	; 1 bytes @ 0x0
	ds	1
	global	i1RfPointSelect@rf
i1RfPointSelect@rf:	; 1 bytes @ 0x1
	ds	1
?_setRF_ReceiveGO:	; 0 bytes @ 0x2
	global	setRF_ReceiveGO@command
setRF_ReceiveGO@command:	; 1 bytes @ 0x2
	ds	1
??_setRF_ReceiveGO:	; 0 bytes @ 0x3
	global	setRF_ReceiveGO@rf
setRF_ReceiveGO@rf:	; 1 bytes @ 0x3
	ds	1
??_INT_ISR:	; 0 bytes @ 0x4
??_ISR:	; 0 bytes @ 0x4
	ds	1
psect	cstackBANK0,class=BANK0,space=1,noexec
global __pcstackBANK0
__pcstackBANK0:
??_CC2500_WriteByte:	; 0 bytes @ 0x0
??_CC2500_ReadByte:	; 0 bytes @ 0x0
?_DelayTime_1us:	; 0 bytes @ 0x0
??_IO_Set:	; 0 bytes @ 0x0
??_TMR1_Set:	; 0 bytes @ 0x0
??_INT_Set:	; 0 bytes @ 0x0
??_I2C_Set:	; 0 bytes @ 0x0
??_I2C_Slave_Mode:	; 0 bytes @ 0x0
??_I2C_SetData:	; 0 bytes @ 0x0
??_setRF_Initialization:	; 0 bytes @ 0x0
??_MainT_Initial:	; 0 bytes @ 0x0
??_setINT_GO:	; 0 bytes @ 0x0
??_RfPointSelect:	; 0 bytes @ 0x0
	global	setINT_GO@command
setINT_GO@command:	; 1 bytes @ 0x0
	global	DelayTime_1us@count
DelayTime_1us@count:	; 2 bytes @ 0x0
	ds	1
??_Mcu_Initial:	; 0 bytes @ 0x1
??_RF_Initialization:	; 0 bytes @ 0x1
	global	CC2500_WriteByte@loop_a
CC2500_WriteByte@loop_a:	; 1 bytes @ 0x1
	global	CC2500_ReadByte@loop_b
CC2500_ReadByte@loop_b:	; 1 bytes @ 0x1
	global	RfPointSelect@rf
RfPointSelect@rf:	; 1 bytes @ 0x1
	ds	1
??_CC2500_WriteCommand:	; 0 bytes @ 0x2
??_CC2500_ReadStatus:	; 0 bytes @ 0x2
?_setRF_RxStatus:	; 0 bytes @ 0x2
??_DelayTime_1us:	; 0 bytes @ 0x2
?_CC2500_WriteREG:	; 0 bytes @ 0x2
?_setRF_Enable:	; 0 bytes @ 0x2
	global	CC2500_WriteREG@value
CC2500_WriteREG@value:	; 1 bytes @ 0x2
	global	I2C_SetData@command
I2C_SetData@command:	; 1 bytes @ 0x2
	global	I2C_Slave_Mode@i
I2C_Slave_Mode@i:	; 1 bytes @ 0x2
	global	setRF_RxStatus@command
setRF_RxStatus@command:	; 1 bytes @ 0x2
	global	setRF_Enable@command
setRF_Enable@command:	; 1 bytes @ 0x2
	global	DelayTime_1us@i
DelayTime_1us@i:	; 2 bytes @ 0x2
	ds	1
??_setRF_RxStatus:	; 0 bytes @ 0x3
??_CC2500_WriteREG:	; 0 bytes @ 0x3
??_setRF_Enable:	; 0 bytes @ 0x3
	global	CC2500_WriteCommand@command
CC2500_WriteCommand@command:	; 1 bytes @ 0x3
	global	CC2500_ReadStatus@status_addr
CC2500_ReadStatus@status_addr:	; 1 bytes @ 0x3
	global	I2C_SetData@i
I2C_SetData@i:	; 1 bytes @ 0x3
	global	setRF_RxStatus@rf
setRF_RxStatus@rf:	; 1 bytes @ 0x3
	global	setRF_Enable@rf
setRF_Enable@rf:	; 1 bytes @ 0x3
	ds	1
??_CC2500_ClearTXFIFO:	; 0 bytes @ 0x4
??_CC2500_ClearRXFIFO:	; 0 bytes @ 0x4
??_CC2500_SIDLEMode:	; 0 bytes @ 0x4
??_RF_RxDisable:	; 0 bytes @ 0x4
??_MainT:	; 0 bytes @ 0x4
??_CC2500_TxData:	; 0 bytes @ 0x4
??_CC2500_RxData:	; 0 bytes @ 0x4
??_I2C_Main:	; 0 bytes @ 0x4
	global	CC2500_WriteREG@w_addr
CC2500_WriteREG@w_addr:	; 1 bytes @ 0x4
	global	RF_RxDisable@rf
RF_RxDisable@rf:	; 1 bytes @ 0x4
	global	DelayTime_1us@j
DelayTime_1us@j:	; 2 bytes @ 0x4
	ds	1
??_CC2500_InitSetREG:	; 0 bytes @ 0x5
??_CC2500_InitPATable:	; 0 bytes @ 0x5
	global	CC2500_TxData@loop_e
CC2500_TxData@loop_e:	; 1 bytes @ 0x5
	global	CC2500_RxData@loop_f
CC2500_RxData@loop_f:	; 1 bytes @ 0x5
	ds	1
??_CC2500_PowerRST:	; 0 bytes @ 0x6
??_CC2500_FrequencyCabr:	; 0 bytes @ 0x6
??_setRF_Main:	; 0 bytes @ 0x6
	global	CC2500_InitSetREG@temp1
CC2500_InitSetREG@temp1:	; 1 bytes @ 0x6
	global	CC2500_InitPATable@temp
CC2500_InitPATable@temp:	; 1 bytes @ 0x6
	ds	1
	global	CC2500_InitSetREG@temp2
CC2500_InitSetREG@temp2:	; 1 bytes @ 0x7
	global	CC2500_InitPATable@loop_d
CC2500_InitPATable@loop_d:	; 1 bytes @ 0x7
	global	setRF_Main@rf
setRF_Main@rf:	; 1 bytes @ 0x7
	ds	1
??_RF_Main:	; 0 bytes @ 0x8
	global	CC2500_InitSetREG@loop_c
CC2500_InitSetREG@loop_c:	; 1 bytes @ 0x8
	ds	1
??_CC2500_PowerOnInitial:	; 0 bytes @ 0x9
??_main:	; 0 bytes @ 0x9
;!
;!Data Sizes:
;!    Strings     0
;!    Constant    102
;!    Data        32
;!    BSS         122
;!    Persistent  2
;!    Stack       0
;!
;!Auto Spaces:
;!    Space          Size  Autos    Used
;!    COMMON           14      5      10
;!    BANK0            80      9      62
;!    BANK1            80      0      32
;!    BANK2            80      0      67
;!    BANK3            80      0       0
;!    BANK4            80      0       0
;!    BANK5            80      0       0
;!    BANK6            16      0       0

;!
;!Pointer List with Targets:
;!
;!    RFSW	PTR struct RFSW size(1) Largest target is 0
;!		 -> NULL(NULL[0]), 
;!
;!    Product	PTR struct Product size(1) Largest target is 32
;!		 -> NULL(NULL[0]), VarProduct(BANK1[32]), 
;!
;!    RF	PTR struct RF size(1) Largest target is 2
;!		 -> NULL(NULL[0]), RF1(BANK0[2]), 
;!
;!    I2C	PTR struct I2C size(1) Largest target is 67
;!		 -> NULL(NULL[0]), VarI2C(BANK2[67]), 
;!
;!    TMain	PTR struct TMain size(1) Largest target is 15
;!		 -> NULL(NULL[0]), VarTMain(BANK0[15]), 
;!
;!    Timer1	PTR struct Timer1 size(1) Largest target is 3
;!		 -> NULL(NULL[0]), VarTimer1(BANK0[3]), 
;!


;!
;!Critical Paths under _main in COMMON
;!
;!    None.
;!
;!Critical Paths under _ISR in COMMON
;!
;!    _INT_ISR->_setRF_ReceiveGO
;!    _setRF_ReceiveGO->i1_RfPointSelect
;!
;!Critical Paths under _main in BANK0
;!
;!    _RF_Main->_setRF_Main
;!    _setRF_Main->_CC2500_RxData
;!    _setRF_Main->_CC2500_TxData
;!    _RF_RxDisable->_CC2500_WriteCommand
;!    _CC2500_TxData->_CC2500_WriteCommand
;!    _CC2500_RxData->_CC2500_ReadStatus
;!    _CC2500_RxData->_CC2500_WriteCommand
;!    _CC2500_RxData->_setRF_RxStatus
;!    _setRF_RxStatus->_RfPointSelect
;!    _CC2500_ReadStatus->_CC2500_ReadByte
;!    _CC2500_ReadStatus->_CC2500_WriteByte
;!    _RF_Initialization->_setRF_Initialization
;!    _Mcu_Initial->_I2C_Set
;!    _Mcu_Initial->_TMR1_Set
;!    _MainT->_setRF_Enable
;!    _setRF_Enable->_RfPointSelect
;!    _I2C_Main->_I2C_SetData
;!    _CC2500_PowerOnInitial->_CC2500_InitSetREG
;!    _CC2500_SIDLEMode->_CC2500_WriteCommand
;!    _CC2500_PowerRST->_DelayTime_1us
;!    _CC2500_InitSetREG->_CC2500_WriteREG
;!    _CC2500_InitPATable->_CC2500_WriteREG
;!    _CC2500_WriteREG->_CC2500_WriteByte
;!    _CC2500_FrequencyCabr->_DelayTime_1us
;!    _CC2500_ClearTXFIFO->_CC2500_WriteCommand
;!    _CC2500_ClearRXFIFO->_CC2500_WriteCommand
;!    _CC2500_WriteCommand->_CC2500_WriteByte
;!
;!Critical Paths under _ISR in BANK0
;!
;!    None.
;!
;!Critical Paths under _main in BANK1
;!
;!    None.
;!
;!Critical Paths under _ISR in BANK1
;!
;!    None.
;!
;!Critical Paths under _main in BANK2
;!
;!    None.
;!
;!Critical Paths under _ISR in BANK2
;!
;!    None.
;!
;!Critical Paths under _main in BANK3
;!
;!    None.
;!
;!Critical Paths under _ISR in BANK3
;!
;!    None.
;!
;!Critical Paths under _main in BANK4
;!
;!    None.
;!
;!Critical Paths under _ISR in BANK4
;!
;!    None.
;!
;!Critical Paths under _main in BANK5
;!
;!    None.
;!
;!Critical Paths under _ISR in BANK5
;!
;!    None.
;!
;!Critical Paths under _main in BANK6
;!
;!    None.
;!
;!Critical Paths under _ISR in BANK6
;!
;!    None.

;;
;;Main: autosize = 0, tempsize = 0, incstack = 0, save=0
;;

;!
;!Call Graph Tables:
;!
;! ---------------------------------------------------------------------------------
;! (Depth) Function   	        Calls       Base Space   Used Autos Params    Refs
;! ---------------------------------------------------------------------------------
;! (0) _main                                                 0     0      0    4323
;!              _CC2500_PowerOnInitial
;!                           _I2C_Main
;!                              _MainT
;!                      _MainT_Initial
;!                        _Mcu_Initial
;!                  _RF_Initialization
;!                            _RF_Main
;! ---------------------------------------------------------------------------------
;! (1) _RF_Main                                              0     0      0    1538
;!                         _setRF_Main
;! ---------------------------------------------------------------------------------
;! (2) _setRF_Main                                           2     2      0    1538
;!                                              6 BANK0      2     2      0
;!                      _CC2500_RxData
;!                      _CC2500_TxData
;!                _CC2500_WriteCommand
;!                        _I2C_SetData
;!                       _RF_RxDisable
;!                      _RfPointSelect
;!                          _setINT_GO
;! ---------------------------------------------------------------------------------
;! (3) _RF_RxDisable                                         1     1      0     192
;!                                              4 BANK0      1     1      0
;!                _CC2500_WriteCommand
;!                      _RfPointSelect
;!                          _setINT_GO
;! ---------------------------------------------------------------------------------
;! (3) _CC2500_TxData                                        2     2      0     235
;!                                              4 BANK0      2     2      0
;!                   _CC2500_WriteByte
;!                _CC2500_WriteCommand
;! ---------------------------------------------------------------------------------
;! (3) _CC2500_RxData                                        2     2      0     628
;!                                              4 BANK0      2     2      0
;!                    _CC2500_ReadByte
;!                  _CC2500_ReadStatus
;!                   _CC2500_WriteByte
;!                _CC2500_WriteCommand
;!                     _setRF_RxStatus
;! ---------------------------------------------------------------------------------
;! (4) _setRF_RxStatus                                       2     1      1     158
;!                                              2 BANK0      2     1      1
;!                      _RfPointSelect
;! ---------------------------------------------------------------------------------
;! (4) _CC2500_ReadStatus                                    2     2      0     167
;!                                              2 BANK0      2     2      0
;!                    _CC2500_ReadByte
;!                   _CC2500_WriteByte
;! ---------------------------------------------------------------------------------
;! (5) _CC2500_ReadByte                                      2     2      0      68
;!                                              0 BANK0      2     2      0
;! ---------------------------------------------------------------------------------
;! (1) _RF_Initialization                                    0     0      0       0
;!               _setRF_Initialization
;! ---------------------------------------------------------------------------------
;! (2) _setRF_Initialization                                 2     2      0       0
;!                                              0 BANK0      1     1      0
;! ---------------------------------------------------------------------------------
;! (1) _Mcu_Initial                                          0     0      0       0
;!                            _I2C_Set
;!                            _INT_Set
;!                             _IO_Set
;!                           _TMR1_Set
;! ---------------------------------------------------------------------------------
;! (2) _TMR1_Set                                             1     1      0       0
;!                                              0 BANK0      1     1      0
;! ---------------------------------------------------------------------------------
;! (2) _IO_Set                                               0     0      0       0
;! ---------------------------------------------------------------------------------
;! (2) _INT_Set                                              0     0      0       0
;! ---------------------------------------------------------------------------------
;! (2) _I2C_Set                                              1     1      0       0
;!                                              0 BANK0      1     1      0
;! ---------------------------------------------------------------------------------
;! (1) _MainT_Initial                                        1     1      0       0
;!                                              0 BANK0      1     1      0
;! ---------------------------------------------------------------------------------
;! (1) _MainT                                                2     2      0     189
;!                                              4 BANK0      1     1      0
;!                       _setRF_Enable
;! ---------------------------------------------------------------------------------
;! (2) _setRF_Enable                                         2     1      1     189
;!                                              2 BANK0      2     1      1
;!                      _RfPointSelect
;!                          _setINT_GO
;! ---------------------------------------------------------------------------------
;! (3) _setINT_GO                                            1     1      0      31
;!                                              0 BANK0      1     1      0
;! ---------------------------------------------------------------------------------
;! (3) _RfPointSelect                                        2     2      0      31
;!                                              0 BANK0      2     2      0
;! ---------------------------------------------------------------------------------
;! (1) _I2C_Main                                             1     1      0     489
;!                        _I2C_SetData
;!                     _I2C_Slave_Mode
;! ---------------------------------------------------------------------------------
;! (2) _I2C_Slave_Mode                                       3     3      0     198
;!                                              0 BANK0      3     3      0
;! ---------------------------------------------------------------------------------
;! (3) _I2C_SetData                                          4     4      0     291
;!                                              0 BANK0      4     4      0
;! ---------------------------------------------------------------------------------
;! (1) _CC2500_PowerOnInitial                                0     0      0    2107
;!                 _CC2500_ClearRXFIFO
;!                 _CC2500_ClearTXFIFO
;!               _CC2500_FrequencyCabr
;!                 _CC2500_InitPATable
;!                  _CC2500_InitSetREG
;!                    _CC2500_PowerRST
;!                   _CC2500_SIDLEMode
;! ---------------------------------------------------------------------------------
;! (2) _CC2500_SIDLEMode                                     0     0      0      99
;!                _CC2500_WriteCommand
;! ---------------------------------------------------------------------------------
;! (2) _CC2500_PowerRST                                      1     1      0     464
;!                                              6 BANK0      1     1      0
;!                   _CC2500_WriteByte
;!                      _DelayTime_1us
;! ---------------------------------------------------------------------------------
;! (2) _CC2500_InitSetREG                                    4     4      0     458
;!                                              5 BANK0      4     4      0
;!                    _CC2500_WriteREG
;! ---------------------------------------------------------------------------------
;! (2) _CC2500_InitPATable                                   3     3      0     393
;!                                              5 BANK0      3     3      0
;!                    _CC2500_WriteREG
;! ---------------------------------------------------------------------------------
;! (3) _CC2500_WriteREG                                      3     2      1     260
;!                                              2 BANK0      3     2      1
;!                   _CC2500_WriteByte
;! ---------------------------------------------------------------------------------
;! (2) _CC2500_FrequencyCabr                                 0     0      0     495
;!                _CC2500_WriteCommand
;!                      _DelayTime_1us
;! ---------------------------------------------------------------------------------
;! (3) _DelayTime_1us                                        6     4      2     396
;!                                              0 BANK0      6     4      2
;! ---------------------------------------------------------------------------------
;! (2) _CC2500_ClearTXFIFO                                   0     0      0      99
;!                _CC2500_WriteCommand
;! ---------------------------------------------------------------------------------
;! (2) _CC2500_ClearRXFIFO                                   0     0      0      99
;!                _CC2500_WriteCommand
;! ---------------------------------------------------------------------------------
;! (4) _CC2500_WriteCommand                                  2     2      0      99
;!                                              2 BANK0      2     2      0
;!                   _CC2500_WriteByte
;! ---------------------------------------------------------------------------------
;! (5) _CC2500_WriteByte                                     2     2      0      68
;!                                              0 BANK0      2     2      0
;! ---------------------------------------------------------------------------------
;! Estimated maximum stack depth 5
;! ---------------------------------------------------------------------------------
;! (Depth) Function   	        Calls       Base Space   Used Autos Params    Refs
;! ---------------------------------------------------------------------------------
;! (6) _ISR                                                  1     1      0     119
;!                                              4 COMMON     1     1      0
;!                            _I2C_ISR
;!                            _INT_ISR
;!                           _TMR1_ISR
;! ---------------------------------------------------------------------------------
;! (7) _TMR1_ISR                                             0     0      0       0
;! ---------------------------------------------------------------------------------
;! (7) _INT_ISR                                              0     0      0     119
;!                    _setRF_ReceiveGO
;! ---------------------------------------------------------------------------------
;! (8) _setRF_ReceiveGO                                      2     1      1     119
;!                                              2 COMMON     2     1      1
;!                    i1_RfPointSelect
;! ---------------------------------------------------------------------------------
;! (9) i1_RfPointSelect                                      2     2      0      22
;!                                              0 COMMON     2     2      0
;! ---------------------------------------------------------------------------------
;! (7) _I2C_ISR                                              0     0      0       0
;! ---------------------------------------------------------------------------------
;! Estimated maximum stack depth 9
;! ---------------------------------------------------------------------------------
;!
;! Call Graph Graphs:
;!
;! _main (ROOT)
;!   _CC2500_PowerOnInitial
;!     _CC2500_ClearRXFIFO
;!       _CC2500_WriteCommand
;!         _CC2500_WriteByte
;!     _CC2500_ClearTXFIFO
;!       _CC2500_WriteCommand
;!         _CC2500_WriteByte
;!     _CC2500_FrequencyCabr
;!       _CC2500_WriteCommand
;!         _CC2500_WriteByte
;!       _DelayTime_1us
;!     _CC2500_InitPATable
;!       _CC2500_WriteREG
;!         _CC2500_WriteByte
;!     _CC2500_InitSetREG
;!       _CC2500_WriteREG
;!         _CC2500_WriteByte
;!     _CC2500_PowerRST
;!       _CC2500_WriteByte
;!       _DelayTime_1us
;!     _CC2500_SIDLEMode
;!       _CC2500_WriteCommand
;!         _CC2500_WriteByte
;!   _I2C_Main
;!     _I2C_SetData
;!     _I2C_Slave_Mode
;!   _MainT
;!     _setRF_Enable
;!       _RfPointSelect
;!       _setINT_GO
;!   _MainT_Initial
;!   _Mcu_Initial
;!     _I2C_Set
;!     _INT_Set
;!     _IO_Set
;!     _TMR1_Set
;!   _RF_Initialization
;!     _setRF_Initialization
;!   _RF_Main
;!     _setRF_Main
;!       _CC2500_RxData
;!         _CC2500_ReadByte
;!         _CC2500_ReadStatus
;!           _CC2500_ReadByte
;!           _CC2500_WriteByte
;!         _CC2500_WriteByte
;!         _CC2500_WriteCommand
;!           _CC2500_WriteByte
;!         _setRF_RxStatus
;!           _RfPointSelect
;!       _CC2500_TxData
;!         _CC2500_WriteByte
;!         _CC2500_WriteCommand
;!           _CC2500_WriteByte
;!       _CC2500_WriteCommand
;!         _CC2500_WriteByte
;!       _I2C_SetData
;!       _RF_RxDisable
;!         _CC2500_WriteCommand
;!           _CC2500_WriteByte
;!         _RfPointSelect
;!         _setINT_GO
;!       _RfPointSelect
;!       _setINT_GO
;!
;! _ISR (ROOT)
;!   _I2C_ISR
;!   _INT_ISR
;!     _setRF_ReceiveGO
;!       i1_RfPointSelect
;!   _TMR1_ISR
;!

;! Address spaces:

;!Name               Size   Autos  Total    Cost      Usage
;!BIGRAM             1F0      0       0       0        0.0%
;!NULL                 0      0       0       0        0.0%
;!CODE                 0      0       0       0        0.0%
;!BITCOMMON            E      0       1       1        7.1%
;!BITSFR0              0      0       0       1        0.0%
;!SFR0                 0      0       0       1        0.0%
;!COMMON               E      5       A       2       71.4%
;!BITSFR1              0      0       0       2        0.0%
;!SFR1                 0      0       0       2        0.0%
;!BITSFR2              0      0       0       3        0.0%
;!SFR2                 0      0       0       3        0.0%
;!STACK                0      0       0       3        0.0%
;!BITSFR3              0      0       0       4        0.0%
;!SFR3                 0      0       0       4        0.0%
;!ABS                  0      0      AB       4        0.0%
;!BITBANK0            50      0       0       5        0.0%
;!BITSFR4              0      0       0       5        0.0%
;!SFR4                 0      0       0       5        0.0%
;!BANK0               50      9      3E       6       77.5%
;!BITSFR5              0      0       0       6        0.0%
;!SFR5                 0      0       0       6        0.0%
;!BITBANK1            50      0       0       7        0.0%
;!BITSFR6              0      0       0       7        0.0%
;!SFR6                 0      0       0       7        0.0%
;!BANK1               50      0      20       8       40.0%
;!BITSFR7              0      0       0       8        0.0%
;!SFR7                 0      0       0       8        0.0%
;!BITBANK2            50      0       0       9        0.0%
;!BITSFR8              0      0       0       9        0.0%
;!SFR8                 0      0       0       9        0.0%
;!BANK2               50      0      43      10       83.8%
;!BITSFR9              0      0       0      10        0.0%
;!SFR9                 0      0       0      10        0.0%
;!BITBANK3            50      0       0      11        0.0%
;!BITSFR10             0      0       0      11        0.0%
;!SFR10                0      0       0      11        0.0%
;!BANK3               50      0       0      12        0.0%
;!BITSFR11             0      0       0      12        0.0%
;!SFR11                0      0       0      12        0.0%
;!BITBANK4            50      0       0      13        0.0%
;!BITSFR12             0      0       0      13        0.0%
;!SFR12                0      0       0      13        0.0%
;!BANK4               50      0       0      14        0.0%
;!BITSFR13             0      0       0      14        0.0%
;!SFR13                0      0       0      14        0.0%
;!BITBANK5            50      0       0      15        0.0%
;!BITSFR14             0      0       0      15        0.0%
;!SFR14                0      0       0      15        0.0%
;!BANK5               50      0       0      16        0.0%
;!BITSFR15             0      0       0      16        0.0%
;!SFR15                0      0       0      16        0.0%
;!BITBANK6            10      0       0      17        0.0%
;!BITSFR16             0      0       0      17        0.0%
;!SFR16                0      0       0      17        0.0%
;!BANK6               10      0       0      18        0.0%
;!BITSFR17             0      0       0      18        0.0%
;!SFR17                0      0       0      18        0.0%
;!BITSFR18             0      0       0      19        0.0%
;!SFR18                0      0       0      19        0.0%
;!DATA                 0      0      AB      19        0.0%
;!BITSFR19             0      0       0      20        0.0%
;!SFR19                0      0       0      20        0.0%
;!BITSFR20             0      0       0      21        0.0%
;!SFR20                0      0       0      21        0.0%
;!BITSFR21             0      0       0      22        0.0%
;!SFR21                0      0       0      22        0.0%
;!BITSFR22             0      0       0      23        0.0%
;!SFR22                0      0       0      23        0.0%
;!BITSFR23             0      0       0      24        0.0%
;!SFR23                0      0       0      24        0.0%
;!BITSFR24             0      0       0      25        0.0%
;!SFR24                0      0       0      25        0.0%
;!BITSFR25             0      0       0      26        0.0%
;!SFR25                0      0       0      26        0.0%
;!BITSFR26             0      0       0      27        0.0%
;!SFR26                0      0       0      27        0.0%
;!BITSFR27             0      0       0      28        0.0%
;!SFR27                0      0       0      28        0.0%
;!BITSFR28             0      0       0      29        0.0%
;!SFR28                0      0       0      29        0.0%
;!BITSFR29             0      0       0      30        0.0%
;!SFR29                0      0       0      30        0.0%
;!BITSFR30             0      0       0      31        0.0%
;!SFR30                0      0       0      31        0.0%
;!BITSFR31             0      0       0      32        0.0%
;!SFR31                0      0       0      32        0.0%

	global	_main

;; *************** function _main *****************
;; Defined at:
;;		line 6 in file "C:\Users\Eric\Documents\GitHub\myPicCode\Source_File\myMain.c"
;; Parameters:    Size  Location     Type
;;		None
;; Auto vars:     Size  Location     Type
;;		None
;; Return value:  Size  Location     Type
;;		None               void
;; Registers used:
;;		wreg, fsr0l, fsr0h, fsr1l, fsr1h, status,2, status,0, pclath, cstack
;; Tracked objects:
;;		On entry : 17F/0
;;		On exit  : 0/0
;;		Unchanged: 0/0
;; Data sizes:     COMMON   BANK0   BANK1   BANK2   BANK3   BANK4   BANK5   BANK6
;;      Params:         0       0       0       0       0       0       0       0
;;      Locals:         0       0       0       0       0       0       0       0
;;      Temps:          0       0       0       0       0       0       0       0
;;      Totals:         0       0       0       0       0       0       0       0
;;Total ram usage:        0 bytes
;; Hardware stack levels required when called:    9
;; This function calls:
;;		_CC2500_PowerOnInitial
;;		_I2C_Main
;;		_MainT
;;		_MainT_Initial
;;		_Mcu_Initial
;;		_RF_Initialization
;;		_RF_Main
;; This function is called by:
;;		Startup code after reset
;; This function uses a non-reentrant model
;;
psect	maintext,global,class=CODE,delta=2,merge=1,split=1
	file	"C:\Users\Eric\Documents\GitHub\myPicCode\Source_File\myMain.c"
	line	6
global __pmaintext
__pmaintext:	;psect for function _main
psect	maintext
	file	"C:\Users\Eric\Documents\GitHub\myPicCode\Source_File\myMain.c"
	line	6
	global	__size_of_main
	__size_of_main	equ	__end_of_main-_main
	
_main:	
;incstack = 0
	opt	stack 7
; Regs used in _main: [wreg-fsr1h+status,2+status,0+pclath+cstack]
	line	8
	
l3169:	
;myMain.c: 8: MainT_Initial();
	fcall	_MainT_Initial
	line	9
	
l3171:	
;myMain.c: 9: Mcu_Initial();
	fcall	_Mcu_Initial
	line	11
	
l3173:	
;myMain.c: 10: ;;
;myMain.c: 11: RF_Initialization();
	fcall	_RF_Initialization
	line	12
	
l3175:	
;myMain.c: 12: CC2500_PowerOnInitial();
	fcall	_CC2500_PowerOnInitial
	goto	l3177
	line	13
;myMain.c: 13: while(1)
	
l788:	
	line	17
	
l3177:	
;myMain.c: 14: {
;myMain.c: 17: if(TMain->T1_Timerout)
	movlb 0	; select bank0
	movf	(_TMain),w
	movwf	fsr1l
	clrf fsr1h	
	
	btfss	indf1,2
	goto	u3201
	goto	u3200
u3201:
	goto	l3177
u3200:
	line	19
	
l3179:	
;myMain.c: 18: {
;myMain.c: 19: TMain->T1_Timerout = 0;
	movf	(_TMain),w
	movwf	fsr1l
	clrf fsr1h	
	
	bcf	indf1,2
	line	20
	
l3181:	
;myMain.c: 20: MainT();
	fcall	_MainT
	line	21
	
l3183:	
;myMain.c: 21: if(TMain->PowerON)
	movlb 0	; select bank0
	movf	(_TMain),w
	movwf	fsr1l
	clrf fsr1h	
	
	btfss	indf1,0
	goto	u3211
	goto	u3210
u3211:
	goto	l3177
u3210:
	line	23
	
l3185:	
;myMain.c: 22: {
;myMain.c: 23: RF_Main();
	fcall	_RF_Main
	line	24
;myMain.c: 24: I2C_Main();
	fcall	_I2C_Main
	goto	l3177
	line	27
;myMain.c: 25: ;;
;myMain.c: 26: ;;
	
l790:	
	goto	l3177
	line	28
	
l789:	
	goto	l3177
	line	29
	
l791:	
	line	13
	goto	l3177
	
l792:	
	line	30
	
l793:	
	global	start
	ljmp	start
	opt stack 0
GLOBAL	__end_of_main
	__end_of_main:
	signat	_main,88
	global	_RF_Main

;; *************** function _RF_Main *****************
;; Defined at:
;;		line 24 in file "C:\Users\Eric\Documents\GitHub\myPicCode\Source_File\RF_Control_B1.c"
;; Parameters:    Size  Location     Type
;;		None
;; Auto vars:     Size  Location     Type
;;		None
;; Return value:  Size  Location     Type
;;		None               void
;; Registers used:
;;		wreg, fsr1l, fsr1h, status,2, status,0, pclath, cstack
;; Tracked objects:
;;		On entry : 0/0
;;		On exit  : 0/0
;;		Unchanged: 0/0
;; Data sizes:     COMMON   BANK0   BANK1   BANK2   BANK3   BANK4   BANK5   BANK6
;;      Params:         0       0       0       0       0       0       0       0
;;      Locals:         0       0       0       0       0       0       0       0
;;      Temps:          0       0       0       0       0       0       0       0
;;      Totals:         0       0       0       0       0       0       0       0
;;Total ram usage:        0 bytes
;; Hardware stack levels used:    1
;; Hardware stack levels required when called:    8
;; This function calls:
;;		_setRF_Main
;; This function is called by:
;;		_main
;; This function uses a non-reentrant model
;;
psect	text1,local,class=CODE,delta=2,merge=1
	file	"C:\Users\Eric\Documents\GitHub\myPicCode\Source_File\RF_Control_B1.c"
	line	24
global __ptext1
__ptext1:	;psect for function _RF_Main
psect	text1
	file	"C:\Users\Eric\Documents\GitHub\myPicCode\Source_File\RF_Control_B1.c"
	line	24
	global	__size_of_RF_Main
	__size_of_RF_Main	equ	__end_of_RF_Main-_RF_Main
	
_RF_Main:	
;incstack = 0
	opt	stack 7
; Regs used in _RF_Main: [wreg+fsr1l+fsr1h+status,2+status,0+pclath+cstack]
	line	27
	
l3013:	
;RF_Control_B1.c: 27: setRF_Main(1);
	movlw	(01h)
	fcall	_setRF_Main
	line	29
	
l624:	
	return
	opt stack 0
GLOBAL	__end_of_RF_Main
	__end_of_RF_Main:
	signat	_RF_Main,88
	global	_setRF_Main

;; *************** function _setRF_Main *****************
;; Defined at:
;;		line 58 in file "C:\Users\Eric\Documents\GitHub\myPicCode\Source_File\RF_Control_B1.c"
;; Parameters:    Size  Location     Type
;;  rf              1    wreg     unsigned char 
;; Auto vars:     Size  Location     Type
;;  rf              1    7[BANK0 ] unsigned char 
;; Return value:  Size  Location     Type
;;		None               void
;; Registers used:
;;		wreg, fsr1l, fsr1h, status,2, status,0, pclath, cstack
;; Tracked objects:
;;		On entry : 0/0
;;		On exit  : 0/0
;;		Unchanged: 0/0
;; Data sizes:     COMMON   BANK0   BANK1   BANK2   BANK3   BANK4   BANK5   BANK6
;;      Params:         0       0       0       0       0       0       0       0
;;      Locals:         0       1       0       0       0       0       0       0
;;      Temps:          0       1       0       0       0       0       0       0
;;      Totals:         0       2       0       0       0       0       0       0
;;Total ram usage:        2 bytes
;; Hardware stack levels used:    1
;; Hardware stack levels required when called:    7
;; This function calls:
;;		_CC2500_RxData
;;		_CC2500_TxData
;;		_CC2500_WriteCommand
;;		_I2C_SetData
;;		_RF_RxDisable
;;		_RfPointSelect
;;		_setINT_GO
;; This function is called by:
;;		_RF_Main
;; This function uses a non-reentrant model
;;
psect	text2,local,class=CODE,delta=2,merge=1
	line	58
global __ptext2
__ptext2:	;psect for function _setRF_Main
psect	text2
	file	"C:\Users\Eric\Documents\GitHub\myPicCode\Source_File\RF_Control_B1.c"
	line	58
	global	__size_of_setRF_Main
	__size_of_setRF_Main	equ	__end_of_setRF_Main-_setRF_Main
	
_setRF_Main:	
;incstack = 0
	opt	stack 7
; Regs used in _setRF_Main: [wreg+fsr1l+fsr1h+status,2+status,0+pclath+cstack]
;setRF_Main@rf stored from wreg
	movlb 0	; select bank0
	movwf	(setRF_Main@rf)
	line	60
	
l2907:	
;RF_Control_B1.c: 60: RfPointSelect(rf);
	movf	(setRF_Main@rf),w
	fcall	_RfPointSelect
	line	61
	
l2909:	
;RF_Control_B1.c: 61: if(RF->Enable)
	movf	(_RF),w
	movwf	fsr1l
	clrf fsr1h	
	
	btfss	indf1,0
	goto	u2851
	goto	u2850
u2851:
	goto	l650
u2850:
	line	76
	
l2911:	
;RF_Control_B1.c: 62: {
;RF_Control_B1.c: 76: if(!RF->Key)
	movf	(_RF),w
	movwf	fsr1l
	clrf fsr1h	
	
	btfsc	indf1,7
	goto	u2861
	goto	u2860
u2861:
	goto	l2933
u2860:
	line	78
	
l2913:	
;RF_Control_B1.c: 77: {
;RF_Control_B1.c: 78: if(RF->ReceiveGO)
	movf	(_RF),w
	movwf	fsr1l
	clrf fsr1h	
	
	btfss	indf1,1
	goto	u2871
	goto	u2870
u2871:
	goto	l2921
u2870:
	line	80
	
l2915:	
;RF_Control_B1.c: 79: {
;RF_Control_B1.c: 80: RF->ReceiveGO=0;
	movf	(_RF),w
	movwf	fsr1l
	clrf fsr1h	
	
	bcf	indf1,1
	line	81
	
l2917:	
;RF_Control_B1.c: 81: CC2500_RxData();
	fcall	_CC2500_RxData
	line	83
	
l2919:	
;RF_Control_B1.c: 83: I2C_SetData(1);
	movlw	(01h)
	fcall	_I2C_SetData
	line	90
;RF_Control_B1.c: 90: }
	goto	l2935
	line	91
	
l641:	
	line	93
	
l2921:	
;RF_Control_B1.c: 91: else
;RF_Control_B1.c: 92: {
;RF_Control_B1.c: 93: if(!RF->TransceiveGO)
	movf	(_RF),w
	movwf	fsr1l
	clrf fsr1h	
	
	btfsc	indf1,2
	goto	u2881
	goto	u2880
u2881:
	goto	l2935
u2880:
	line	96
	
l2923:	
;RF_Control_B1.c: 94: {
;RF_Control_B1.c: 96: if(!RF->RxStatus)
	movf	(_RF),w
	movwf	fsr1l
	clrf fsr1h	
	
	btfsc	indf1,3
	goto	u2891
	goto	u2890
u2891:
	goto	l2935
u2890:
	line	98
	
l2925:	
;RF_Control_B1.c: 97: {
;RF_Control_B1.c: 98: RF->RxStatus=1;
	movf	(_RF),w
	movwf	fsr1l
	clrf fsr1h	
	
	bsf	indf1,3
	line	99
	
l2927:	
;RF_Control_B1.c: 99: CC2500_WriteCommand(0x36);
	movlw	(036h)
	fcall	_CC2500_WriteCommand
	line	100
	
l2929:	
;RF_Control_B1.c: 100: CC2500_WriteCommand(0x34);
	movlw	(034h)
	fcall	_CC2500_WriteCommand
	line	101
	
l2931:	
;RF_Control_B1.c: 101: setINT_GO(1);
	movlw	(01h)
	fcall	_setINT_GO
	goto	l2935
	line	102
	
l644:	
	goto	l2935
	line	104
	
l643:	
	goto	l2935
	line	105
	
l642:	
	line	106
;RF_Control_B1.c: 102: }
;RF_Control_B1.c: 104: }
;RF_Control_B1.c: 105: }
;RF_Control_B1.c: 106: }
	goto	l2935
	line	107
	
l640:	
	line	109
	
l2933:	
;RF_Control_B1.c: 107: else
;RF_Control_B1.c: 108: {
;RF_Control_B1.c: 109: RF_RxDisable(1);
	movlw	(01h)
	fcall	_RF_RxDisable
	goto	l2935
	line	110
	
l645:	
	line	111
	
l2935:	
;RF_Control_B1.c: 110: }
;RF_Control_B1.c: 111: if(RF->TransceiveGO)
	movf	(_RF),w
	movwf	fsr1l
	clrf fsr1h	
	
	btfss	indf1,2
	goto	u2901
	goto	u2900
u2901:
	goto	l650
u2900:
	line	113
	
l2937:	
;RF_Control_B1.c: 112: {
;RF_Control_B1.c: 113: RF_RxDisable(1);
	movlw	(01h)
	fcall	_RF_RxDisable
	line	114
	
l2939:	
;RF_Control_B1.c: 114: if(!RF->Debounce)
	movf	(_RF),w
	movwf	fsr1l
	clrf fsr1h	
	
	btfsc	indf1,5
	goto	u2911
	goto	u2910
u2911:
	goto	l2949
u2910:
	line	116
	
l2941:	
;RF_Control_B1.c: 115: {
;RF_Control_B1.c: 116: RF->DebounceTime++;
	movlw	(01h)
	movlb 0	; select bank0
	movwf	(??_setRF_Main+0)+0
	incf	(_RF),w
	movwf	fsr1l
	clrf fsr1h	
	
	movf	(??_setRF_Main+0)+0,w
	addwf	indf1,f
	line	117
	
l2943:	
;RF_Control_B1.c: 117: if(RF->DebounceTime == 25)
	incf	(_RF),w
	movwf	fsr1l
	clrf fsr1h	
	
	movf	indf1,w
	xorlw	019h&0ffh
	skipz
	goto	u2921
	goto	u2920
u2921:
	goto	l650
u2920:
	line	119
	
l2945:	
;RF_Control_B1.c: 118: {
;RF_Control_B1.c: 119: RF->DebounceTime=0;
	incf	(_RF),w
	movwf	fsr1l
	clrf fsr1h	
	
	clrf	indf1
	line	120
	
l2947:	
;RF_Control_B1.c: 120: RF->Debounce=1;
	movf	(_RF),w
	movwf	fsr1l
	clrf fsr1h	
	
	bsf	indf1,5
	goto	l650
	line	121
	
l648:	
	line	122
;RF_Control_B1.c: 121: }
;RF_Control_B1.c: 122: }
	goto	l650
	line	123
	
l647:	
	line	125
	
l2949:	
;RF_Control_B1.c: 123: else
;RF_Control_B1.c: 124: {
;RF_Control_B1.c: 125: RF->Debounce=0;
	movf	(_RF),w
	movwf	fsr1l
	clrf fsr1h	
	
	bcf	indf1,5
	line	126
;RF_Control_B1.c: 126: RF->TransceiveGO=0;
	movf	(_RF),w
	movwf	fsr1l
	clrf fsr1h	
	
	bcf	indf1,2
	line	127
	
l2951:	
;RF_Control_B1.c: 127: CC2500_TxData();
	fcall	_CC2500_TxData
	goto	l650
	line	128
	
l649:	
	goto	l650
	line	129
	
l646:	
	goto	l650
	line	130
	
l639:	
	line	131
	
l650:	
	return
	opt stack 0
GLOBAL	__end_of_setRF_Main
	__end_of_setRF_Main:
	signat	_setRF_Main,4216
	global	_RF_RxDisable

;; *************** function _RF_RxDisable *****************
;; Defined at:
;;		line 191 in file "C:\Users\Eric\Documents\GitHub\myPicCode\Source_File\RF_Control_B1.c"
;; Parameters:    Size  Location     Type
;;  rf              1    wreg     unsigned char 
;; Auto vars:     Size  Location     Type
;;  rf              1    4[BANK0 ] unsigned char 
;; Return value:  Size  Location     Type
;;		None               void
;; Registers used:
;;		wreg, fsr1l, fsr1h, status,2, status,0, pclath, cstack
;; Tracked objects:
;;		On entry : 0/0
;;		On exit  : 0/0
;;		Unchanged: 0/0
;; Data sizes:     COMMON   BANK0   BANK1   BANK2   BANK3   BANK4   BANK5   BANK6
;;      Params:         0       0       0       0       0       0       0       0
;;      Locals:         0       1       0       0       0       0       0       0
;;      Temps:          0       0       0       0       0       0       0       0
;;      Totals:         0       1       0       0       0       0       0       0
;;Total ram usage:        1 bytes
;; Hardware stack levels used:    1
;; Hardware stack levels required when called:    6
;; This function calls:
;;		_CC2500_WriteCommand
;;		_RfPointSelect
;;		_setINT_GO
;; This function is called by:
;;		_setRF_Main
;; This function uses a non-reentrant model
;;
psect	text3,local,class=CODE,delta=2,merge=1
	line	191
global __ptext3
__ptext3:	;psect for function _RF_RxDisable
psect	text3
	file	"C:\Users\Eric\Documents\GitHub\myPicCode\Source_File\RF_Control_B1.c"
	line	191
	global	__size_of_RF_RxDisable
	__size_of_RF_RxDisable	equ	__end_of_RF_RxDisable-_RF_RxDisable
	
_RF_RxDisable:	
;incstack = 0
	opt	stack 7
; Regs used in _RF_RxDisable: [wreg+fsr1l+fsr1h+status,2+status,0+pclath+cstack]
;RF_RxDisable@rf stored from wreg
	movlb 0	; select bank0
	movwf	(RF_RxDisable@rf)
	line	193
	
l2763:	
;RF_Control_B1.c: 193: RfPointSelect(rf);
	movf	(RF_RxDisable@rf),w
	fcall	_RfPointSelect
	line	195
	
l2765:	
;RF_Control_B1.c: 195: if(RF->RxStatus)
	movf	(_RF),w
	movwf	fsr1l
	clrf fsr1h	
	
	btfss	indf1,3
	goto	u2701
	goto	u2700
u2701:
	goto	l662
u2700:
	line	197
	
l2767:	
;RF_Control_B1.c: 196: {
;RF_Control_B1.c: 197: RF->RxStatus=0;
	movf	(_RF),w
	movwf	fsr1l
	clrf fsr1h	
	
	bcf	indf1,3
	line	198
;RF_Control_B1.c: 198: RF->ReceiveGO=0;
	movf	(_RF),w
	movwf	fsr1l
	clrf fsr1h	
	
	bcf	indf1,1
	line	199
	
l2769:	
;RF_Control_B1.c: 199: RF->DebounceTime=0;
	incf	(_RF),w
	movwf	fsr1l
	clrf fsr1h	
	
	clrf	indf1
	line	200
	
l2771:	
;RF_Control_B1.c: 200: RF->Debounce=0;
	movf	(_RF),w
	movwf	fsr1l
	clrf fsr1h	
	
	bcf	indf1,5
	line	201
	
l2773:	
;RF_Control_B1.c: 201: CC2500_WriteCommand(0x36);
	movlw	(036h)
	fcall	_CC2500_WriteCommand
	line	202
	
l2775:	
;RF_Control_B1.c: 202: CC2500_WriteCommand(0x3A);
	movlw	(03Ah)
	fcall	_CC2500_WriteCommand
	line	203
	
l2777:	
;RF_Control_B1.c: 203: setINT_GO(0);
	movlw	(0)
	fcall	_setINT_GO
	goto	l662
	line	204
	
l661:	
	line	205
	
l662:	
	return
	opt stack 0
GLOBAL	__end_of_RF_RxDisable
	__end_of_RF_RxDisable:
	signat	_RF_RxDisable,4216
	global	_CC2500_TxData

;; *************** function _CC2500_TxData *****************
;; Defined at:
;;		line 30 in file "C:\Users\Eric\Documents\GitHub\myPicCode\Source_File\CC2500_B1.c"
;; Parameters:    Size  Location     Type
;;		None
;; Auto vars:     Size  Location     Type
;;  loop_e          1    5[BANK0 ] unsigned char 
;; Return value:  Size  Location     Type
;;		None               void
;; Registers used:
;;		wreg, fsr1l, fsr1h, status,2, status,0, pclath, cstack
;; Tracked objects:
;;		On entry : 0/0
;;		On exit  : 0/0
;;		Unchanged: 0/0
;; Data sizes:     COMMON   BANK0   BANK1   BANK2   BANK3   BANK4   BANK5   BANK6
;;      Params:         0       0       0       0       0       0       0       0
;;      Locals:         0       1       0       0       0       0       0       0
;;      Temps:          0       1       0       0       0       0       0       0
;;      Totals:         0       2       0       0       0       0       0       0
;;Total ram usage:        2 bytes
;; Hardware stack levels used:    1
;; Hardware stack levels required when called:    6
;; This function calls:
;;		_CC2500_WriteByte
;;		_CC2500_WriteCommand
;; This function is called by:
;;		_setRF_Main
;; This function uses a non-reentrant model
;;
psect	text4,local,class=CODE,delta=2,merge=1
	file	"C:\Users\Eric\Documents\GitHub\myPicCode\Source_File\CC2500_B1.c"
	line	30
global __ptext4
__ptext4:	;psect for function _CC2500_TxData
psect	text4
	file	"C:\Users\Eric\Documents\GitHub\myPicCode\Source_File\CC2500_B1.c"
	line	30
	global	__size_of_CC2500_TxData
	__size_of_CC2500_TxData	equ	__end_of_CC2500_TxData-_CC2500_TxData
	
_CC2500_TxData:	
;incstack = 0
	opt	stack 7
; Regs used in _CC2500_TxData: [wreg+fsr1l+fsr1h+status,2+status,0+pclath+cstack]
	line	34
	
l2635:	
;CC2500_B1.c: 32: unsigned char loop_e;
;CC2500_B1.c: 34: RB5=0;
	movlb 0	; select bank0
	bcf	(109/8),(109)&7	;volatile
	line	35
	
l2637:	
;CC2500_B1.c: 35: SPI0Buffer=0x3F+0x40;
	movlw	(07Fh)
	movwf	(??_CC2500_TxData+0)+0
	movf	(??_CC2500_TxData+0)+0,w
	movwf	(_SPI0Buffer)
	line	36
;CC2500_B1.c: 36: while(RB3==1);
	goto	l103
	
l104:	
	
l103:	
	btfsc	(107/8),(107)&7	;volatile
	goto	u2501
	goto	u2500
u2501:
	goto	l103
u2500:
	goto	l2639
	
l105:	
	line	37
	
l2639:	
;CC2500_B1.c: 37: CC2500_WriteByte();
	fcall	_CC2500_WriteByte
	line	38
	
l2641:	
;CC2500_B1.c: 38: SPI0Buffer=Tx_Length;
	movlb 0	; select bank0
	movf	(_Tx_Length),w
	movwf	(??_CC2500_TxData+0)+0
	movf	(??_CC2500_TxData+0)+0,w
	movwf	(_SPI0Buffer)
	line	39
	
l2643:	
;CC2500_B1.c: 39: CC2500_WriteByte();
	fcall	_CC2500_WriteByte
	line	40
	
l2645:	
;CC2500_B1.c: 40: for(loop_e=0;loop_e<Tx_Length;loop_e++)
	movlb 0	; select bank0
	clrf	(CC2500_TxData@loop_e)
	goto	l2653
	line	41
	
l107:	
	line	42
	
l2647:	
;CC2500_B1.c: 41: {
;CC2500_B1.c: 42: SPI0Buffer=RF_Data[loop_e];
	movf	(CC2500_TxData@loop_e),w
	addlw	_RF_Data&0ffh
	movwf	fsr1l
	clrf fsr1h	
	
	movf	indf1,w
	movwf	(??_CC2500_TxData+0)+0
	movf	(??_CC2500_TxData+0)+0,w
	movwf	(_SPI0Buffer)
	line	43
	
l2649:	
;CC2500_B1.c: 43: CC2500_WriteByte();
	fcall	_CC2500_WriteByte
	line	40
	
l2651:	
	movlw	(01h)
	movlb 0	; select bank0
	movwf	(??_CC2500_TxData+0)+0
	movf	(??_CC2500_TxData+0)+0,w
	addwf	(CC2500_TxData@loop_e),f
	goto	l2653
	
l106:	
	
l2653:	
	movf	(_Tx_Length),w
	subwf	(CC2500_TxData@loop_e),w
	skipc
	goto	u2511
	goto	u2510
u2511:
	goto	l2647
u2510:
	
l108:	
	line	45
;CC2500_B1.c: 44: }
;CC2500_B1.c: 45: RB5=1;
	bsf	(109/8),(109)&7	;volatile
	line	46
	
l2655:	
;CC2500_B1.c: 46: CC2500_WriteCommand(0x35);
	movlw	(035h)
	fcall	_CC2500_WriteCommand
	line	47
;CC2500_B1.c: 47: while(RB0==0);
	goto	l109
	
l110:	
	
l109:	
	movlb 0	; select bank0
	btfss	(104/8),(104)&7	;volatile
	goto	u2521
	goto	u2520
u2521:
	goto	l109
u2520:
	goto	l112
	
l111:	
	line	48
;CC2500_B1.c: 48: while(RB0==1);
	goto	l112
	
l113:	
	
l112:	
	btfsc	(104/8),(104)&7	;volatile
	goto	u2531
	goto	u2530
u2531:
	goto	l112
u2530:
	goto	l2657
	
l114:	
	line	49
	
l2657:	
;CC2500_B1.c: 49: CC2500_WriteCommand(0x36);
	movlw	(036h)
	fcall	_CC2500_WriteCommand
	line	50
;CC2500_B1.c: 50: CC2500_WriteCommand(0x3B);
	movlw	(03Bh)
	fcall	_CC2500_WriteCommand
	line	51
	
l2659:	
;CC2500_B1.c: 51: Transceive_OK=1;
	bsf	(_Transceive_OK/8),(_Transceive_OK)&7
	line	52
	
l115:	
	return
	opt stack 0
GLOBAL	__end_of_CC2500_TxData
	__end_of_CC2500_TxData:
	signat	_CC2500_TxData,88
	global	_CC2500_RxData

;; *************** function _CC2500_RxData *****************
;; Defined at:
;;		line 56 in file "C:\Users\Eric\Documents\GitHub\myPicCode\Source_File\CC2500_B1.c"
;; Parameters:    Size  Location     Type
;;		None
;; Auto vars:     Size  Location     Type
;;  loop_f          1    5[BANK0 ] unsigned char 
;; Return value:  Size  Location     Type
;;		None               void
;; Registers used:
;;		wreg, fsr1l, fsr1h, status,2, status,0, pclath, cstack
;; Tracked objects:
;;		On entry : 0/0
;;		On exit  : 0/0
;;		Unchanged: 0/0
;; Data sizes:     COMMON   BANK0   BANK1   BANK2   BANK3   BANK4   BANK5   BANK6
;;      Params:         0       0       0       0       0       0       0       0
;;      Locals:         0       1       0       0       0       0       0       0
;;      Temps:          0       1       0       0       0       0       0       0
;;      Totals:         0       2       0       0       0       0       0       0
;;Total ram usage:        2 bytes
;; Hardware stack levels used:    1
;; Hardware stack levels required when called:    6
;; This function calls:
;;		_CC2500_ReadByte
;;		_CC2500_ReadStatus
;;		_CC2500_WriteByte
;;		_CC2500_WriteCommand
;;		_setRF_RxStatus
;; This function is called by:
;;		_setRF_Main
;; This function uses a non-reentrant model
;;
psect	text5,local,class=CODE,delta=2,merge=1
	line	56
global __ptext5
__ptext5:	;psect for function _CC2500_RxData
psect	text5
	file	"C:\Users\Eric\Documents\GitHub\myPicCode\Source_File\CC2500_B1.c"
	line	56
	global	__size_of_CC2500_RxData
	__size_of_CC2500_RxData	equ	__end_of_CC2500_RxData-_CC2500_RxData
	
_CC2500_RxData:	
;incstack = 0
	opt	stack 7
; Regs used in _CC2500_RxData: [wreg+fsr1l+fsr1h+status,2+status,0+pclath+cstack]
	line	62
	
l2661:	
;CC2500_B1.c: 58: unsigned char loop_f;
;CC2500_B1.c: 62: if(RB0 == 1)
	movlb 0	; select bank0
	btfss	(104/8),(104)&7	;volatile
	goto	u2541
	goto	u2540
u2541:
	goto	l2665
u2540:
	goto	l119
	line	64
	
l2663:	
;CC2500_B1.c: 63: {
;CC2500_B1.c: 64: while(RB0 == 1);
	goto	l119
	
l120:	
	
l119:	
	btfsc	(104/8),(104)&7	;volatile
	goto	u2551
	goto	u2550
u2551:
	goto	l119
u2550:
	goto	l2665
	
l121:	
	goto	l2665
	line	65
	
l118:	
	line	66
	
l2665:	
;CC2500_B1.c: 65: }
;CC2500_B1.c: 66: CC2500_ReadStatus(0x3B);
	movlw	(03Bh)
	fcall	_CC2500_ReadStatus
	line	67
	
l2667:	
;CC2500_B1.c: 67: if(s_data != 0)
	movlb 0	; select bank0
	movf	(_s_data),w
	skipz
	goto	u2560
	goto	l2699
u2560:
	line	70
	
l2669:	
;CC2500_B1.c: 69: {
;CC2500_B1.c: 70: RB5=0;
	bcf	(109/8),(109)&7	;volatile
	line	71
	
l2671:	
;CC2500_B1.c: 71: SPI0Buffer=0x3F+0xC0;
	movlw	(0FFh)
	movwf	(??_CC2500_RxData+0)+0
	movf	(??_CC2500_RxData+0)+0,w
	movwf	(_SPI0Buffer)
	line	72
;CC2500_B1.c: 72: while(RB3==1);
	goto	l123
	
l124:	
	
l123:	
	btfsc	(107/8),(107)&7	;volatile
	goto	u2571
	goto	u2570
u2571:
	goto	l123
u2570:
	goto	l2673
	
l125:	
	line	73
	
l2673:	
;CC2500_B1.c: 73: CC2500_WriteByte();
	fcall	_CC2500_WriteByte
	line	75
;CC2500_B1.c: 75: CC2500_ReadByte();
	fcall	_CC2500_ReadByte
	line	76
	
l2675:	
;CC2500_B1.c: 76: Rx_Length=SPI0Buffer;
	movlb 0	; select bank0
	movf	(_SPI0Buffer),w
	movwf	(??_CC2500_RxData+0)+0
	movf	(??_CC2500_RxData+0)+0,w
	movwf	(_Rx_Length)
	line	77
	
l2677:	
;CC2500_B1.c: 77: for(loop_f=0;loop_f<Rx_Length;loop_f++)
	clrf	(CC2500_RxData@loop_f)
	goto	l2685
	line	78
	
l127:	
	line	79
	
l2679:	
;CC2500_B1.c: 78: {
;CC2500_B1.c: 79: CC2500_ReadByte();
	fcall	_CC2500_ReadByte
	line	80
	
l2681:	
;CC2500_B1.c: 80: RF_Data[loop_f]=SPI0Buffer;
	movlb 0	; select bank0
	movf	(_SPI0Buffer),w
	movwf	(??_CC2500_RxData+0)+0
	movf	(CC2500_RxData@loop_f),w
	addlw	_RF_Data&0ffh
	movwf	fsr1l
	clrf fsr1h	
	
	movf	(??_CC2500_RxData+0)+0,w
	movwf	indf1
	line	77
	
l2683:	
	movlw	(01h)
	movwf	(??_CC2500_RxData+0)+0
	movf	(??_CC2500_RxData+0)+0,w
	addwf	(CC2500_RxData@loop_f),f
	goto	l2685
	
l126:	
	
l2685:	
	movf	(_Rx_Length),w
	subwf	(CC2500_RxData@loop_f),w
	skipc
	goto	u2581
	goto	u2580
u2581:
	goto	l2679
u2580:
	goto	l2687
	
l128:	
	line	82
	
l2687:	
;CC2500_B1.c: 81: }
;CC2500_B1.c: 82: CC2500_ReadByte();
	fcall	_CC2500_ReadByte
	line	83
	
l2689:	
;CC2500_B1.c: 83: RSSI=SPI0Buffer;
	movlb 0	; select bank0
	movf	(_SPI0Buffer),w
	movwf	(??_CC2500_RxData+0)+0
	movf	(??_CC2500_RxData+0)+0,w
	movwf	(_RSSI)
	line	84
	
l2691:	
;CC2500_B1.c: 84: CC2500_ReadByte();
	fcall	_CC2500_ReadByte
	line	85
;CC2500_B1.c: 85: CRC=SPI0Buffer;
	movlb 0	; select bank0
	movf	(_SPI0Buffer),w
	movwf	(??_CC2500_RxData+0)+0
	movf	(??_CC2500_RxData+0)+0,w
	movwf	(_CRC)
	line	86
	
l2693:	
;CC2500_B1.c: 86: RB5=1;
	bsf	(109/8),(109)&7	;volatile
	line	87
	
l2695:	
;CC2500_B1.c: 87: if(CRC & 0x80)
	btfss	(_CRC),(7)&7
	goto	u2591
	goto	u2590
u2591:
	goto	l2699
u2590:
	line	88
	
l2697:	
;CC2500_B1.c: 88: Receive_OK=1;
	bsf	(_Receive_OK/8),(_Receive_OK)&7
	goto	l2699
	
l129:	
	goto	l2699
	line	89
	
l122:	
	line	90
	
l2699:	
;CC2500_B1.c: 89: }
;CC2500_B1.c: 90: CC2500_WriteCommand(0x36);
	movlw	(036h)
	fcall	_CC2500_WriteCommand
	line	91
;CC2500_B1.c: 91: CC2500_WriteCommand(0x3A);
	movlw	(03Ah)
	fcall	_CC2500_WriteCommand
	line	92
	
l2701:	
;CC2500_B1.c: 92: setRF_RxStatus(1,0);
	movlb 0	; select bank0
	clrf	(setRF_RxStatus@command)
	movlw	(01h)
	fcall	_setRF_RxStatus
	line	93
	
l130:	
	return
	opt stack 0
GLOBAL	__end_of_CC2500_RxData
	__end_of_CC2500_RxData:
	signat	_CC2500_RxData,88
	global	_setRF_RxStatus

;; *************** function _setRF_RxStatus *****************
;; Defined at:
;;		line 43 in file "C:\Users\Eric\Documents\GitHub\myPicCode\Source_File\RF_Control_B1.c"
;; Parameters:    Size  Location     Type
;;  rf              1    wreg     unsigned char 
;;  command         1    2[BANK0 ] unsigned char 
;; Auto vars:     Size  Location     Type
;;  rf              1    3[BANK0 ] unsigned char 
;; Return value:  Size  Location     Type
;;		None               void
;; Registers used:
;;		wreg, fsr1l, fsr1h, status,2, status,0, pclath, cstack
;; Tracked objects:
;;		On entry : 0/0
;;		On exit  : 0/0
;;		Unchanged: 0/0
;; Data sizes:     COMMON   BANK0   BANK1   BANK2   BANK3   BANK4   BANK5   BANK6
;;      Params:         0       1       0       0       0       0       0       0
;;      Locals:         0       1       0       0       0       0       0       0
;;      Temps:          0       0       0       0       0       0       0       0
;;      Totals:         0       2       0       0       0       0       0       0
;;Total ram usage:        2 bytes
;; Hardware stack levels used:    1
;; Hardware stack levels required when called:    5
;; This function calls:
;;		_RfPointSelect
;; This function is called by:
;;		_CC2500_RxData
;; This function uses a non-reentrant model
;;
psect	text6,local,class=CODE,delta=2,merge=1
	file	"C:\Users\Eric\Documents\GitHub\myPicCode\Source_File\RF_Control_B1.c"
	line	43
global __ptext6
__ptext6:	;psect for function _setRF_RxStatus
psect	text6
	file	"C:\Users\Eric\Documents\GitHub\myPicCode\Source_File\RF_Control_B1.c"
	line	43
	global	__size_of_setRF_RxStatus
	__size_of_setRF_RxStatus	equ	__end_of_setRF_RxStatus-_setRF_RxStatus
	
_setRF_RxStatus:	
;incstack = 0
	opt	stack 7
; Regs used in _setRF_RxStatus: [wreg+fsr1l+fsr1h+status,2+status,0+pclath+cstack]
;setRF_RxStatus@rf stored from wreg
	movlb 0	; select bank0
	movwf	(setRF_RxStatus@rf)
	line	45
	
l2627:	
;RF_Control_B1.c: 45: RfPointSelect(rf);
	movf	(setRF_RxStatus@rf),w
	fcall	_RfPointSelect
	line	46
	
l2629:	
;RF_Control_B1.c: 46: RF->RxStatus=command;
	movf	(_RF),w
	movwf	fsr1l
	clrf fsr1h	
	
	movlb 0	; select bank0
	movf	(setRF_RxStatus@command),w
	bcf	indf1,3
	skipz
	bsf	indf1,3
	line	47
	
l633:	
	return
	opt stack 0
GLOBAL	__end_of_setRF_RxStatus
	__end_of_setRF_RxStatus:
	signat	_setRF_RxStatus,8312
	global	_CC2500_ReadStatus

;; *************** function _CC2500_ReadStatus *****************
;; Defined at:
;;		line 267 in file "C:\Users\Eric\Documents\GitHub\myPicCode\Source_File\CC2500_B1.c"
;; Parameters:    Size  Location     Type
;;  status_addr     1    wreg     unsigned char 
;; Auto vars:     Size  Location     Type
;;  status_addr     1    3[BANK0 ] unsigned char 
;; Return value:  Size  Location     Type
;;		None               void
;; Registers used:
;;		wreg, status,2, status,0, pclath, cstack
;; Tracked objects:
;;		On entry : 0/0
;;		On exit  : 0/0
;;		Unchanged: 0/0
;; Data sizes:     COMMON   BANK0   BANK1   BANK2   BANK3   BANK4   BANK5   BANK6
;;      Params:         0       0       0       0       0       0       0       0
;;      Locals:         0       1       0       0       0       0       0       0
;;      Temps:          0       1       0       0       0       0       0       0
;;      Totals:         0       2       0       0       0       0       0       0
;;Total ram usage:        2 bytes
;; Hardware stack levels used:    1
;; Hardware stack levels required when called:    5
;; This function calls:
;;		_CC2500_ReadByte
;;		_CC2500_WriteByte
;; This function is called by:
;;		_CC2500_RxData
;; This function uses a non-reentrant model
;;
psect	text7,local,class=CODE,delta=2,merge=1
	file	"C:\Users\Eric\Documents\GitHub\myPicCode\Source_File\CC2500_B1.c"
	line	267
global __ptext7
__ptext7:	;psect for function _CC2500_ReadStatus
psect	text7
	file	"C:\Users\Eric\Documents\GitHub\myPicCode\Source_File\CC2500_B1.c"
	line	267
	global	__size_of_CC2500_ReadStatus
	__size_of_CC2500_ReadStatus	equ	__end_of_CC2500_ReadStatus-_CC2500_ReadStatus
	
_CC2500_ReadStatus:	
;incstack = 0
	opt	stack 7
; Regs used in _CC2500_ReadStatus: [wreg+status,2+status,0+pclath+cstack]
;CC2500_ReadStatus@status_addr stored from wreg
	movlb 0	; select bank0
	movwf	(CC2500_ReadStatus@status_addr)
	line	269
	
l2617:	
;CC2500_B1.c: 269: RB5=0;
	bcf	(109/8),(109)&7	;volatile
	line	270
	
l2619:	
;CC2500_B1.c: 270: SPI0Buffer=status_addr+0xC0;
	movf	(CC2500_ReadStatus@status_addr),w
	addlw	0C0h
	movwf	(??_CC2500_ReadStatus+0)+0
	movf	(??_CC2500_ReadStatus+0)+0,w
	movwf	(_SPI0Buffer)
	line	272
;CC2500_B1.c: 272: while(RB3==1);
	goto	l199
	
l200:	
	
l199:	
	btfsc	(107/8),(107)&7	;volatile
	goto	u2471
	goto	u2470
u2471:
	goto	l199
u2470:
	goto	l2621
	
l201:	
	line	274
	
l2621:	
;CC2500_B1.c: 274: CC2500_WriteByte();
	fcall	_CC2500_WriteByte
	line	275
;CC2500_B1.c: 275: CC2500_ReadByte();
	fcall	_CC2500_ReadByte
	line	276
	
l2623:	
;CC2500_B1.c: 276: RB5=1;
	movlb 0	; select bank0
	bsf	(109/8),(109)&7	;volatile
	line	278
	
l2625:	
;CC2500_B1.c: 278: s_data=SPI0Buffer;
	movf	(_SPI0Buffer),w
	movwf	(??_CC2500_ReadStatus+0)+0
	movf	(??_CC2500_ReadStatus+0)+0,w
	movwf	(_s_data)
	line	279
	
l202:	
	return
	opt stack 0
GLOBAL	__end_of_CC2500_ReadStatus
	__end_of_CC2500_ReadStatus:
	signat	_CC2500_ReadStatus,4216
	global	_CC2500_ReadByte

;; *************** function _CC2500_ReadByte *****************
;; Defined at:
;;		line 210 in file "C:\Users\Eric\Documents\GitHub\myPicCode\Source_File\CC2500_B1.c"
;; Parameters:    Size  Location     Type
;;		None
;; Auto vars:     Size  Location     Type
;;  loop_b          1    1[BANK0 ] unsigned char 
;; Return value:  Size  Location     Type
;;		None               void
;; Registers used:
;;		wreg, status,2, status,0
;; Tracked objects:
;;		On entry : 0/0
;;		On exit  : 0/0
;;		Unchanged: 0/0
;; Data sizes:     COMMON   BANK0   BANK1   BANK2   BANK3   BANK4   BANK5   BANK6
;;      Params:         0       0       0       0       0       0       0       0
;;      Locals:         0       1       0       0       0       0       0       0
;;      Temps:          0       1       0       0       0       0       0       0
;;      Totals:         0       2       0       0       0       0       0       0
;;Total ram usage:        2 bytes
;; Hardware stack levels used:    1
;; Hardware stack levels required when called:    4
;; This function calls:
;;		Nothing
;; This function is called by:
;;		_CC2500_RxData
;;		_CC2500_ReadStatus
;;		_CC2500_ReadREG
;; This function uses a non-reentrant model
;;
psect	text8,local,class=CODE,delta=2,merge=1
	line	210
global __ptext8
__ptext8:	;psect for function _CC2500_ReadByte
psect	text8
	file	"C:\Users\Eric\Documents\GitHub\myPicCode\Source_File\CC2500_B1.c"
	line	210
	global	__size_of_CC2500_ReadByte
	__size_of_CC2500_ReadByte	equ	__end_of_CC2500_ReadByte-_CC2500_ReadByte
	
_CC2500_ReadByte:	
;incstack = 0
	opt	stack 7
; Regs used in _CC2500_ReadByte: [wreg+status,2+status,0]
	line	213
	
l2587:	
;CC2500_B1.c: 212: unsigned char loop_b;
;CC2500_B1.c: 213: for(loop_b=0;loop_b<8;loop_b++)
	movlb 0	; select bank0
	clrf	(CC2500_ReadByte@loop_b)
	
l2589:	
	movlw	(08h)
	subwf	(CC2500_ReadByte@loop_b),w
	skipc
	goto	u2421
	goto	u2420
u2421:
	goto	l174
u2420:
	goto	l178
	
l2591:	
	goto	l178
	line	214
	
l174:	
	line	215
;CC2500_B1.c: 214: {
;CC2500_B1.c: 215: RB2=1;
	bsf	(106/8),(106)&7	;volatile
	line	216
	
l2593:	
;CC2500_B1.c: 216: SPI0Buffer<<=1;
	clrc
	rlf	(_SPI0Buffer),f

	line	217
	
l2595:	
;CC2500_B1.c: 217: if(RB3 == 1)
	btfss	(107/8),(107)&7	;volatile
	goto	u2431
	goto	u2430
u2431:
	goto	l2599
u2430:
	line	218
	
l2597:	
;CC2500_B1.c: 218: SPI0Buffer |= 0x01;
	bsf	(_SPI0Buffer)+(0/8),(0)&7
	goto	l2601
	line	219
	
l176:	
	line	220
	
l2599:	
;CC2500_B1.c: 219: else
;CC2500_B1.c: 220: SPI0Buffer &= 0xFE;
	movlw	(0FEh)
	movwf	(??_CC2500_ReadByte+0)+0
	movf	(??_CC2500_ReadByte+0)+0,w
	andwf	(_SPI0Buffer),f
	goto	l2601
	
l177:	
	line	221
	
l2601:	
;CC2500_B1.c: 221: RB2=0;
	bcf	(106/8),(106)&7	;volatile
	line	213
	movlw	(01h)
	movwf	(??_CC2500_ReadByte+0)+0
	movf	(??_CC2500_ReadByte+0)+0,w
	addwf	(CC2500_ReadByte@loop_b),f
	
l2603:	
	movlw	(08h)
	subwf	(CC2500_ReadByte@loop_b),w
	skipc
	goto	u2441
	goto	u2440
u2441:
	goto	l174
u2440:
	goto	l178
	
l175:	
	line	223
	
l178:	
	return
	opt stack 0
GLOBAL	__end_of_CC2500_ReadByte
	__end_of_CC2500_ReadByte:
	signat	_CC2500_ReadByte,88
	global	_RF_Initialization

;; *************** function _RF_Initialization *****************
;; Defined at:
;;		line 17 in file "C:\Users\Eric\Documents\GitHub\myPicCode\Source_File\RF_Control_B1.c"
;; Parameters:    Size  Location     Type
;;		None
;; Auto vars:     Size  Location     Type
;;		None
;; Return value:  Size  Location     Type
;;		None               void
;; Registers used:
;;		wreg, status,2, status,0, pclath, cstack
;; Tracked objects:
;;		On entry : 0/0
;;		On exit  : 0/0
;;		Unchanged: 0/0
;; Data sizes:     COMMON   BANK0   BANK1   BANK2   BANK3   BANK4   BANK5   BANK6
;;      Params:         0       0       0       0       0       0       0       0
;;      Locals:         0       0       0       0       0       0       0       0
;;      Temps:          0       0       0       0       0       0       0       0
;;      Totals:         0       0       0       0       0       0       0       0
;;Total ram usage:        0 bytes
;; Hardware stack levels used:    1
;; Hardware stack levels required when called:    5
;; This function calls:
;;		_setRF_Initialization
;; This function is called by:
;;		_main
;; This function uses a non-reentrant model
;;
psect	text9,local,class=CODE,delta=2,merge=1
	file	"C:\Users\Eric\Documents\GitHub\myPicCode\Source_File\RF_Control_B1.c"
	line	17
global __ptext9
__ptext9:	;psect for function _RF_Initialization
psect	text9
	file	"C:\Users\Eric\Documents\GitHub\myPicCode\Source_File\RF_Control_B1.c"
	line	17
	global	__size_of_RF_Initialization
	__size_of_RF_Initialization	equ	__end_of_RF_Initialization-_RF_Initialization
	
_RF_Initialization:	
;incstack = 0
	opt	stack 10
; Regs used in _RF_Initialization: [wreg+status,2+status,0+pclath+cstack]
	line	20
	
l3011:	
;RF_Control_B1.c: 20: setRF_Initialization(1);
	movlw	(01h)
	fcall	_setRF_Initialization
	line	22
	
l621:	
	return
	opt stack 0
GLOBAL	__end_of_RF_Initialization
	__end_of_RF_Initialization:
	signat	_RF_Initialization,88
	global	_setRF_Initialization

;; *************** function _setRF_Initialization *****************
;; Defined at:
;;		line 50 in file "C:\Users\Eric\Documents\GitHub\myPicCode\Source_File\RF_Control_B1.c"
;; Parameters:    Size  Location     Type
;;  rf              1    wreg     unsigned char 
;; Auto vars:     Size  Location     Type
;;  rf              1    0[COMMON] unsigned char 
;; Return value:  Size  Location     Type
;;		None               void
;; Registers used:
;;		wreg
;; Tracked objects:
;;		On entry : 0/0
;;		On exit  : 0/0
;;		Unchanged: 0/0
;; Data sizes:     COMMON   BANK0   BANK1   BANK2   BANK3   BANK4   BANK5   BANK6
;;      Params:         0       0       0       0       0       0       0       0
;;      Locals:         0       0       0       0       0       0       0       0
;;      Temps:          0       1       0       0       0       0       0       0
;;      Totals:         0       1       0       0       0       0       0       0
;;Total ram usage:        1 bytes
;; Hardware stack levels used:    1
;; Hardware stack levels required when called:    4
;; This function calls:
;;		Nothing
;; This function is called by:
;;		_RF_Initialization
;; This function uses a non-reentrant model
;;
psect	text10,local,class=CODE,delta=2,merge=1
	line	50
global __ptext10
__ptext10:	;psect for function _setRF_Initialization
psect	text10
	file	"C:\Users\Eric\Documents\GitHub\myPicCode\Source_File\RF_Control_B1.c"
	line	50
	global	__size_of_setRF_Initialization
	__size_of_setRF_Initialization	equ	__end_of_setRF_Initialization-_setRF_Initialization
	
_setRF_Initialization:	
;incstack = 0
	opt	stack 10
; Regs used in _setRF_Initialization: [wreg]
	line	54
	
l2905:	
;RF_Control_B1.c: 54: Tx_Length=21;
	movlw	(015h)
	movlb 0	; select bank0
	movwf	(??_setRF_Initialization+0)+0
	movf	(??_setRF_Initialization+0)+0,w
	movwf	(_Tx_Length)
	line	56
	
l636:	
	return
	opt stack 0
GLOBAL	__end_of_setRF_Initialization
	__end_of_setRF_Initialization:
	signat	_setRF_Initialization,4216
	global	_Mcu_Initial

;; *************** function _Mcu_Initial *****************
;; Defined at:
;;		line 11 in file "C:\Users\Eric\Documents\GitHub\myPicCode\Source_File\MCU_16f1516_B1.c"
;; Parameters:    Size  Location     Type
;;		None
;; Auto vars:     Size  Location     Type
;;		None
;; Return value:  Size  Location     Type
;;		None               void
;; Registers used:
;;		wreg, status,2, status,0, pclath, cstack
;; Tracked objects:
;;		On entry : 0/0
;;		On exit  : 0/0
;;		Unchanged: 0/0
;; Data sizes:     COMMON   BANK0   BANK1   BANK2   BANK3   BANK4   BANK5   BANK6
;;      Params:         0       0       0       0       0       0       0       0
;;      Locals:         0       0       0       0       0       0       0       0
;;      Temps:          0       0       0       0       0       0       0       0
;;      Totals:         0       0       0       0       0       0       0       0
;;Total ram usage:        0 bytes
;; Hardware stack levels used:    1
;; Hardware stack levels required when called:    5
;; This function calls:
;;		_I2C_Set
;;		_INT_Set
;;		_IO_Set
;;		_TMR1_Set
;; This function is called by:
;;		_main
;; This function uses a non-reentrant model
;;
psect	text11,local,class=CODE,delta=2,merge=1
	file	"C:\Users\Eric\Documents\GitHub\myPicCode\Source_File\MCU_16f1516_B1.c"
	line	11
global __ptext11
__ptext11:	;psect for function _Mcu_Initial
psect	text11
	file	"C:\Users\Eric\Documents\GitHub\myPicCode\Source_File\MCU_16f1516_B1.c"
	line	11
	global	__size_of_Mcu_Initial
	__size_of_Mcu_Initial	equ	__end_of_Mcu_Initial-_Mcu_Initial
	
_Mcu_Initial:	
;incstack = 0
	opt	stack 10
; Regs used in _Mcu_Initial: [wreg+status,2+status,0+pclath+cstack]
	line	14
	
l2977:	
;MCU_16f1516_B1.c: 14: OSCCON=0x78; ;;
	movlw	(078h)
	movlb 1	; select bank1
	movwf	(153)^080h	;volatile
	line	16
	
l2979:	
;MCU_16f1516_B1.c: 16: IO_Set();
	fcall	_IO_Set
	line	18
	
l2981:	
;MCU_16f1516_B1.c: 18: __nop();
	opt	asmopt_off
	nop
	opt	asmopt_on
	line	20
	
l2983:	
;MCU_16f1516_B1.c: 20: TMR1_Set();
	fcall	_TMR1_Set
	line	22
	
l2985:	
;MCU_16f1516_B1.c: 22: __nop();
	opt	asmopt_off
	nop
	opt	asmopt_on
	line	26
	
l2987:	
;MCU_16f1516_B1.c: 26: INT_Set();
	fcall	_INT_Set
	line	28
	
l2989:	
;MCU_16f1516_B1.c: 28: __nop();
	opt	asmopt_off
	nop
	opt	asmopt_on
	line	30
;MCU_16f1516_B1.c: 30: I2C_Set();
	fcall	_I2C_Set
	line	35
	
l383:	
	return
	opt stack 0
GLOBAL	__end_of_Mcu_Initial
	__end_of_Mcu_Initial:
	signat	_Mcu_Initial,88
	global	_TMR1_Set

;; *************** function _TMR1_Set *****************
;; Defined at:
;;		line 114 in file "C:\Users\Eric\Documents\GitHub\myPicCode\Source_File\MCU_16f1516_B1.c"
;; Parameters:    Size  Location     Type
;;		None
;; Auto vars:     Size  Location     Type
;;		None
;; Return value:  Size  Location     Type
;;		None               void
;; Registers used:
;;		wreg
;; Tracked objects:
;;		On entry : 0/0
;;		On exit  : 0/0
;;		Unchanged: 0/0
;; Data sizes:     COMMON   BANK0   BANK1   BANK2   BANK3   BANK4   BANK5   BANK6
;;      Params:         0       0       0       0       0       0       0       0
;;      Locals:         0       0       0       0       0       0       0       0
;;      Temps:          0       1       0       0       0       0       0       0
;;      Totals:         0       1       0       0       0       0       0       0
;;Total ram usage:        1 bytes
;; Hardware stack levels used:    1
;; Hardware stack levels required when called:    4
;; This function calls:
;;		Nothing
;; This function is called by:
;;		_Mcu_Initial
;; This function uses a non-reentrant model
;;
psect	text12,local,class=CODE,delta=2,merge=1
	line	114
global __ptext12
__ptext12:	;psect for function _TMR1_Set
psect	text12
	file	"C:\Users\Eric\Documents\GitHub\myPicCode\Source_File\MCU_16f1516_B1.c"
	line	114
	global	__size_of_TMR1_Set
	__size_of_TMR1_Set	equ	__end_of_TMR1_Set-_TMR1_Set
	
_TMR1_Set:	
;incstack = 0
	opt	stack 10
; Regs used in _TMR1_Set: [wreg]
	line	116
	
l2839:	
;MCU_16f1516_B1.c: 116: Timer1=&VarTimer1;
	movlw	(_VarTimer1)&0ffh
	movlb 0	; select bank0
	movwf	(??_TMR1_Set+0)+0
	movf	(??_TMR1_Set+0)+0,w
	movwf	(_Timer1)
	line	117
;MCU_16f1516_B1.c: 117: T1CON=(0x40 | 0x00 | 0x01);
	movlw	(041h)
	movwf	(24)	;volatile
	line	118
;MCU_16f1516_B1.c: 118: TMR1H=((65536-700)/256);
	movlw	(0FDh)
	movwf	(23)	;volatile
	line	119
;MCU_16f1516_B1.c: 119: TMR1L=((65536-700)%256);
	movlw	(044h)
	movwf	(22)	;volatile
	line	120
	
l2841:	
;MCU_16f1516_B1.c: 120: TMR1IE=1;
	movlb 1	; select bank1
	bsf	(1160/8)^080h,(1160)&7	;volatile
	line	121
	
l2843:	
;MCU_16f1516_B1.c: 121: PEIE=1;
	bsf	(94/8),(94)&7	;volatile
	line	122
	
l2845:	
;MCU_16f1516_B1.c: 122: GIE=1;
	bsf	(95/8),(95)&7	;volatile
	line	123
	
l392:	
	return
	opt stack 0
GLOBAL	__end_of_TMR1_Set
	__end_of_TMR1_Set:
	signat	_TMR1_Set,88
	global	_IO_Set

;; *************** function _IO_Set *****************
;; Defined at:
;;		line 37 in file "C:\Users\Eric\Documents\GitHub\myPicCode\Source_File\MCU_16f1516_B1.c"
;; Parameters:    Size  Location     Type
;;		None
;; Auto vars:     Size  Location     Type
;;		None
;; Return value:  Size  Location     Type
;;		None               void
;; Registers used:
;;		wreg, status,2
;; Tracked objects:
;;		On entry : 0/0
;;		On exit  : 0/0
;;		Unchanged: 0/0
;; Data sizes:     COMMON   BANK0   BANK1   BANK2   BANK3   BANK4   BANK5   BANK6
;;      Params:         0       0       0       0       0       0       0       0
;;      Locals:         0       0       0       0       0       0       0       0
;;      Temps:          0       0       0       0       0       0       0       0
;;      Totals:         0       0       0       0       0       0       0       0
;;Total ram usage:        0 bytes
;; Hardware stack levels used:    1
;; Hardware stack levels required when called:    4
;; This function calls:
;;		Nothing
;; This function is called by:
;;		_Mcu_Initial
;; This function uses a non-reentrant model
;;
psect	text13,local,class=CODE,delta=2,merge=1
	line	37
global __ptext13
__ptext13:	;psect for function _IO_Set
psect	text13
	file	"C:\Users\Eric\Documents\GitHub\myPicCode\Source_File\MCU_16f1516_B1.c"
	line	37
	global	__size_of_IO_Set
	__size_of_IO_Set	equ	__end_of_IO_Set-_IO_Set
	
_IO_Set:	
;incstack = 0
	opt	stack 10
; Regs used in _IO_Set: [wreg+status,2]
	line	39
	
l2829:	
;MCU_16f1516_B1.c: 39: TRISA=0b00000000;;
	movlb 1	; select bank1
	clrf	(140)^080h	;volatile
	line	40
	
l2831:	
;MCU_16f1516_B1.c: 40: TRISB=0b00011001;;
	movlw	(019h)
	movwf	(141)^080h	;volatile
	line	41
	
l2833:	
;MCU_16f1516_B1.c: 41: TRISC=0b00011000;;
	movlw	(018h)
	movwf	(142)^080h	;volatile
	line	42
;MCU_16f1516_B1.c: 42: LATA=0b00000000;;
	movlb 2	; select bank2
	clrf	(268)^0100h	;volatile
	line	43
;MCU_16f1516_B1.c: 43: LATB=0b00000000;;
	clrf	(269)^0100h	;volatile
	line	44
;MCU_16f1516_B1.c: 44: LATC=0b00000000;;
	clrf	(270)^0100h	;volatile
	line	45
;MCU_16f1516_B1.c: 45: ANSELA=0b00000000;;
	movlb 3	; select bank3
	clrf	(396)^0180h	;volatile
	line	46
;MCU_16f1516_B1.c: 46: ANSELB=0b00000000;;
	clrf	(397)^0180h	;volatile
	line	47
;MCU_16f1516_B1.c: 47: ANSELC=0b00000000;;
	clrf	(398)^0180h	;volatile
	line	48
;MCU_16f1516_B1.c: 48: PORTA=0b00000000;;
	movlb 0	; select bank0
	clrf	(12)	;volatile
	line	49
	
l2835:	
;MCU_16f1516_B1.c: 49: PORTB=0b00011001;;
	movlw	(019h)
	movwf	(13)	;volatile
	line	50
	
l2837:	
;MCU_16f1516_B1.c: 50: PORTC=0b00011000;;
	movlw	(018h)
	movwf	(14)	;volatile
	line	51
	
l386:	
	return
	opt stack 0
GLOBAL	__end_of_IO_Set
	__end_of_IO_Set:
	signat	_IO_Set,88
	global	_INT_Set

;; *************** function _INT_Set *****************
;; Defined at:
;;		line 148 in file "C:\Users\Eric\Documents\GitHub\myPicCode\Source_File\MCU_16f1516_B1.c"
;; Parameters:    Size  Location     Type
;;		None
;; Auto vars:     Size  Location     Type
;;		None
;; Return value:  Size  Location     Type
;;		None               void
;; Registers used:
;;		None
;; Tracked objects:
;;		On entry : 0/0
;;		On exit  : 0/0
;;		Unchanged: 0/0
;; Data sizes:     COMMON   BANK0   BANK1   BANK2   BANK3   BANK4   BANK5   BANK6
;;      Params:         0       0       0       0       0       0       0       0
;;      Locals:         0       0       0       0       0       0       0       0
;;      Temps:          0       0       0       0       0       0       0       0
;;      Totals:         0       0       0       0       0       0       0       0
;;Total ram usage:        0 bytes
;; Hardware stack levels used:    1
;; Hardware stack levels required when called:    4
;; This function calls:
;;		Nothing
;; This function is called by:
;;		_Mcu_Initial
;; This function uses a non-reentrant model
;;
psect	text14,local,class=CODE,delta=2,merge=1
	line	148
global __ptext14
__ptext14:	;psect for function _INT_Set
psect	text14
	file	"C:\Users\Eric\Documents\GitHub\myPicCode\Source_File\MCU_16f1516_B1.c"
	line	148
	global	__size_of_INT_Set
	__size_of_INT_Set	equ	__end_of_INT_Set-_INT_Set
	
_INT_Set:	
;incstack = 0
	opt	stack 10
; Regs used in _INT_Set: []
	line	150
	
l2847:	
;MCU_16f1516_B1.c: 150: WPUB0=0;
	movlb 4	; select bank4
	bcf	(4200/8)^0200h,(4200)&7	;volatile
	line	152
;MCU_16f1516_B1.c: 152: PEIE=1;
	bsf	(94/8),(94)&7	;volatile
	line	153
;MCU_16f1516_B1.c: 153: GIE=1;
	bsf	(95/8),(95)&7	;volatile
	line	154
	
l400:	
	return
	opt stack 0
GLOBAL	__end_of_INT_Set
	__end_of_INT_Set:
	signat	_INT_Set,88
	global	_I2C_Set

;; *************** function _I2C_Set *****************
;; Defined at:
;;		line 233 in file "C:\Users\Eric\Documents\GitHub\myPicCode\Source_File\MCU_16f1516_B1.c"
;; Parameters:    Size  Location     Type
;;		None
;; Auto vars:     Size  Location     Type
;;		None
;; Return value:  Size  Location     Type
;;		None               void
;; Registers used:
;;		wreg
;; Tracked objects:
;;		On entry : 0/0
;;		On exit  : 0/0
;;		Unchanged: 0/0
;; Data sizes:     COMMON   BANK0   BANK1   BANK2   BANK3   BANK4   BANK5   BANK6
;;      Params:         0       0       0       0       0       0       0       0
;;      Locals:         0       0       0       0       0       0       0       0
;;      Temps:          0       1       0       0       0       0       0       0
;;      Totals:         0       1       0       0       0       0       0       0
;;Total ram usage:        1 bytes
;; Hardware stack levels used:    1
;; Hardware stack levels required when called:    4
;; This function calls:
;;		Nothing
;; This function is called by:
;;		_Mcu_Initial
;; This function uses a non-reentrant model
;;
psect	text15,local,class=CODE,delta=2,merge=1
	line	233
global __ptext15
__ptext15:	;psect for function _I2C_Set
psect	text15
	file	"C:\Users\Eric\Documents\GitHub\myPicCode\Source_File\MCU_16f1516_B1.c"
	line	233
	global	__size_of_I2C_Set
	__size_of_I2C_Set	equ	__end_of_I2C_Set-_I2C_Set
	
_I2C_Set:	
;incstack = 0
	opt	stack 10
; Regs used in _I2C_Set: [wreg]
	line	235
	
l2849:	
;MCU_16f1516_B1.c: 235: I2C=&VarI2C;
	movlw	(_VarI2C)&0ffh
	movlb 0	; select bank0
	movwf	(??_I2C_Set+0)+0
	movf	(??_I2C_Set+0)+0,w
	movwf	(_I2C)
	line	245
;MCU_16f1516_B1.c: 245: SSPADD=0x10;
	movlw	(010h)
	movlb 4	; select bank4
	movwf	(530)^0200h	;volatile
	line	247
;MCU_16f1516_B1.c: 247: SSPSTAT = 0x80;
	movlw	(080h)
	movwf	(532)^0200h	;volatile
	line	248
;MCU_16f1516_B1.c: 248: SSPCON2 = 0x80;
	movlw	(080h)
	movwf	(534)^0200h	;volatile
	line	249
;MCU_16f1516_B1.c: 249: SSPCON1=0b100110;
	movlw	(026h)
	movwf	(533)^0200h	;volatile
	line	251
	
l2851:	
;MCU_16f1516_B1.c: 251: SEN=1;
	bsf	(4272/8)^0200h,(4272)&7	;volatile
	line	252
	
l2853:	
;MCU_16f1516_B1.c: 252: AHEN=0;
	bcf	(4281/8)^0200h,(4281)&7	;volatile
	line	253
	
l2855:	
;MCU_16f1516_B1.c: 253: DHEN=0;
	bcf	(4280/8)^0200h,(4280)&7	;volatile
	line	254
	
l2857:	
;MCU_16f1516_B1.c: 254: SSPIE=1;
	movlb 1	; select bank1
	bsf	(1163/8)^080h,(1163)&7	;volatile
	line	255
	
l2859:	
;MCU_16f1516_B1.c: 255: PEIE=1;
	bsf	(94/8),(94)&7	;volatile
	line	256
	
l2861:	
;MCU_16f1516_B1.c: 256: GIE=1;
	bsf	(95/8),(95)&7	;volatile
	line	258
	
l410:	
	return
	opt stack 0
GLOBAL	__end_of_I2C_Set
	__end_of_I2C_Set:
	signat	_I2C_Set,88
	global	_MainT_Initial

;; *************** function _MainT_Initial *****************
;; Defined at:
;;		line 33 in file "C:\Users\Eric\Documents\GitHub\myPicCode\Source_File\myMain.c"
;; Parameters:    Size  Location     Type
;;		None
;; Auto vars:     Size  Location     Type
;;		None
;; Return value:  Size  Location     Type
;;		None               void
;; Registers used:
;;		wreg, fsr1l, fsr1h
;; Tracked objects:
;;		On entry : 0/0
;;		On exit  : 0/0
;;		Unchanged: 0/0
;; Data sizes:     COMMON   BANK0   BANK1   BANK2   BANK3   BANK4   BANK5   BANK6
;;      Params:         0       0       0       0       0       0       0       0
;;      Locals:         0       0       0       0       0       0       0       0
;;      Temps:          0       1       0       0       0       0       0       0
;;      Totals:         0       1       0       0       0       0       0       0
;;Total ram usage:        1 bytes
;; Hardware stack levels used:    1
;; Hardware stack levels required when called:    4
;; This function calls:
;;		Nothing
;; This function is called by:
;;		_main
;; This function uses a non-reentrant model
;;
psect	text16,local,class=CODE,delta=2,merge=1
	file	"C:\Users\Eric\Documents\GitHub\myPicCode\Source_File\myMain.c"
	line	33
global __ptext16
__ptext16:	;psect for function _MainT_Initial
psect	text16
	file	"C:\Users\Eric\Documents\GitHub\myPicCode\Source_File\myMain.c"
	line	33
	global	__size_of_MainT_Initial
	__size_of_MainT_Initial	equ	__end_of_MainT_Initial-_MainT_Initial
	
_MainT_Initial:	
;incstack = 0
	opt	stack 11
; Regs used in _MainT_Initial: [wregfsr1]
	line	35
	
l3029:	
;myMain.c: 35: TMain=&VarTMain;
	movlw	(_VarTMain)&0ffh
	movlb 0	; select bank0
	movwf	(??_MainT_Initial+0)+0
	movf	(??_MainT_Initial+0)+0,w
	movwf	(_TMain)
	line	36
	
l3031:	
;myMain.c: 36: TMain->FirstOpen=1;
	movf	(_TMain),w
	addlw	0Dh
	movwf	fsr1l
	clrf fsr1h	
	
	bsf	indf1,0
	line	37
	
l3033:	
;myMain.c: 37: Product=&VarProduct;
	movlw	(_VarProduct)&0ffh
	movwf	(??_MainT_Initial+0)+0
	movf	(??_MainT_Initial+0)+0,w
	movwf	(_Product)
	line	38
	
l796:	
	return
	opt stack 0
GLOBAL	__end_of_MainT_Initial
	__end_of_MainT_Initial:
	signat	_MainT_Initial,88
	global	_MainT

;; *************** function _MainT *****************
;; Defined at:
;;		line 41 in file "C:\Users\Eric\Documents\GitHub\myPicCode\Source_File\myMain.c"
;; Parameters:    Size  Location     Type
;;		None
;; Auto vars:     Size  Location     Type
;;  i               1    0        unsigned char 
;; Return value:  Size  Location     Type
;;		None               void
;; Registers used:
;;		wreg, fsr1l, fsr1h, status,2, status,0, pclath, cstack
;; Tracked objects:
;;		On entry : 0/0
;;		On exit  : 0/0
;;		Unchanged: 0/0
;; Data sizes:     COMMON   BANK0   BANK1   BANK2   BANK3   BANK4   BANK5   BANK6
;;      Params:         0       0       0       0       0       0       0       0
;;      Locals:         0       0       0       0       0       0       0       0
;;      Temps:          0       1       0       0       0       0       0       0
;;      Totals:         0       1       0       0       0       0       0       0
;;Total ram usage:        1 bytes
;; Hardware stack levels used:    1
;; Hardware stack levels required when called:    6
;; This function calls:
;;		_setRF_Enable
;; This function is called by:
;;		_main
;; This function uses a non-reentrant model
;;
psect	text17,local,class=CODE,delta=2,merge=1
	line	41
global __ptext17
__ptext17:	;psect for function _MainT
psect	text17
	file	"C:\Users\Eric\Documents\GitHub\myPicCode\Source_File\myMain.c"
	line	41
	global	__size_of_MainT
	__size_of_MainT	equ	__end_of_MainT-_MainT
	
_MainT:	
;incstack = 0
	opt	stack 9
; Regs used in _MainT: [wreg+fsr1l+fsr1h+status,2+status,0+pclath+cstack]
	line	45
	
l3035:	
;myMain.c: 43: char i;
;myMain.c: 45: if(!TMain->PowerON)
	movlb 0	; select bank0
	movf	(_TMain),w
	movwf	fsr1l
	clrf fsr1h	
	
	btfsc	indf1,0
	goto	u2981
	goto	u2980
u2981:
	goto	l3045
u2980:
	line	47
	
l3037:	
;myMain.c: 46: {
;myMain.c: 47: TMain->PowerCount++;
	incf	(_TMain),w
	movwf	fsr1l
	clrf fsr1h	
	
	movlw	01h
	addwf	indf1,f
	addfsr	fsr1,1
	skipnc
	incf	indf1,f
	line	48
	
l3039:	
;myMain.c: 48: if(TMain->PowerCount == 1500)
	incf	(_TMain),w
	movwf	fsr1l
	clrf fsr1h	
	
	moviw	[0]fsr1
	xorlw	low(05DCh)
	skipz
	goto	u2995
	moviw	[1]fsr1
	xorlw	high(05DCh)
u2995:
	skipz
	goto	u2991
	goto	u2990
u2991:
	goto	l806
u2990:
	line	50
	
l3041:	
;myMain.c: 49: {
;myMain.c: 50: TMain->PowerCount=0;
	incf	(_TMain),w
	movwf	fsr1l
	clrf fsr1h	
	
	movlw	0
	movwi	[0]fsr1
	movwi	[1]fsr1
	line	51
;myMain.c: 51: TMain->PowerON=1;
	movf	(_TMain),w
	movwf	fsr1l
	clrf fsr1h	
	
	bsf	indf1,0
	line	54
	
l3043:	
;myMain.c: 54: setRF_Enable(1,1);
	clrf	(setRF_Enable@command)
	incf	(setRF_Enable@command),f
	movlw	(01h)
	fcall	_setRF_Enable
	goto	l806
	line	56
	
l800:	
	line	57
;myMain.c: 56: }
;myMain.c: 57: }
	goto	l806
	line	58
	
l799:	
	line	60
	
l3045:	
;myMain.c: 58: else
;myMain.c: 59: {
;myMain.c: 60: TMain->Count1++;
	movlb 0	; select bank0
	movf	(_TMain),w
	addlw	05h
	movwf	fsr1l
	clrf fsr1h	
	
	movlw	01h
	addwf	indf1,f
	addfsr	fsr1,1
	skipnc
	incf	indf1,f
	line	61
	
l3047:	
;myMain.c: 61: if(TMain->Count1 == 1000)
	movf	(_TMain),w
	addlw	05h
	movwf	fsr1l
	clrf fsr1h	
	
	moviw	[0]fsr1
	xorlw	low(03E8h)
	skipz
	goto	u3005
	moviw	[1]fsr1
	xorlw	high(03E8h)
u3005:
	skipz
	goto	u3001
	goto	u3000
u3001:
	goto	l806
u3000:
	line	63
	
l3049:	
;myMain.c: 62: {
;myMain.c: 63: TMain->Count1=0;
	movf	(_TMain),w
	addlw	05h
	movwf	fsr1l
	clrf fsr1h	
	
	movlw	0
	movwi	[0]fsr1
	movwi	[1]fsr1
	line	64
	
l3051:	
;myMain.c: 64: RA0=~RA0;
	movlw	1<<((96)&7)
	xorwf	((96)/8),f
	goto	l3055
	line	78
	
l3053:	
	goto	l3055
	line	82
;myMain.c: 79: {
	
l803:	
	line	84
	
l3055:	
;myMain.c: 82: }
;myMain.c: 84: if(TMain->Test)
	movf	(_TMain),w
	addlw	0Ch
	movwf	fsr1l
	clrf fsr1h	
	
	movf	indf1,w
	xorlw	0&0ffh
	skipnz
	goto	u3011
	goto	u3010
u3011:
	goto	l806
u3010:
	line	87
	
l3057:	
;myMain.c: 85: {
;myMain.c: 86: ;;
;myMain.c: 87: I2C->Count++;
	movlw	(01h)
	movwf	(??_MainT+0)+0
	movf	(_I2C),w
	addlw	040h
	movwf	fsr1l
	movlw 1	; select bank2/3
	movwf fsr1h	
	
	movf	(??_MainT+0)+0,w
	addwf	indf1,f
	line	88
	
l3059:	
;myMain.c: 88: if(I2C->Count==32)
	movf	(_I2C),w
	addlw	040h
	movwf	fsr1l
	movlw 1	; select bank2/3
	movwf fsr1h	
	
	movf	indf1,w
	xorlw	020h&0ffh
	skipz
	goto	u3021
	goto	u3020
u3021:
	goto	l806
u3020:
	line	90
	
l3061:	
;myMain.c: 89: {
;myMain.c: 90: I2C->Count=0;
	movf	(_I2C),w
	addlw	040h
	movwf	fsr1l
	movlw 1	; select bank2/3
	movwf fsr1h	
	
	clrf	indf1
	goto	l806
	line	91
	
l805:	
	goto	l806
	line	92
	
l804:	
	goto	l806
	line	105
	
l802:	
	goto	l806
	line	127
	
l801:	
	line	128
	
l806:	
	return
	opt stack 0
GLOBAL	__end_of_MainT
	__end_of_MainT:
	signat	_MainT,88
	global	_setRF_Enable

;; *************** function _setRF_Enable *****************
;; Defined at:
;;		line 178 in file "C:\Users\Eric\Documents\GitHub\myPicCode\Source_File\RF_Control_B1.c"
;; Parameters:    Size  Location     Type
;;  rf              1    wreg     unsigned char 
;;  command         1    2[BANK0 ] unsigned char 
;; Auto vars:     Size  Location     Type
;;  rf              1    3[BANK0 ] unsigned char 
;; Return value:  Size  Location     Type
;;		None               void
;; Registers used:
;;		wreg, fsr1l, fsr1h, status,2, status,0, pclath, cstack
;; Tracked objects:
;;		On entry : 0/0
;;		On exit  : 0/0
;;		Unchanged: 0/0
;; Data sizes:     COMMON   BANK0   BANK1   BANK2   BANK3   BANK4   BANK5   BANK6
;;      Params:         0       1       0       0       0       0       0       0
;;      Locals:         0       1       0       0       0       0       0       0
;;      Temps:          0       0       0       0       0       0       0       0
;;      Totals:         0       2       0       0       0       0       0       0
;;Total ram usage:        2 bytes
;; Hardware stack levels used:    1
;; Hardware stack levels required when called:    5
;; This function calls:
;;		_RfPointSelect
;;		_setINT_GO
;; This function is called by:
;;		_MainT
;; This function uses a non-reentrant model
;;
psect	text18,local,class=CODE,delta=2,merge=1
	file	"C:\Users\Eric\Documents\GitHub\myPicCode\Source_File\RF_Control_B1.c"
	line	178
global __ptext18
__ptext18:	;psect for function _setRF_Enable
psect	text18
	file	"C:\Users\Eric\Documents\GitHub\myPicCode\Source_File\RF_Control_B1.c"
	line	178
	global	__size_of_setRF_Enable
	__size_of_setRF_Enable	equ	__end_of_setRF_Enable-_setRF_Enable
	
_setRF_Enable:	
;incstack = 0
	opt	stack 9
; Regs used in _setRF_Enable: [wreg+fsr1l+fsr1h+status,2+status,0+pclath+cstack]
;setRF_Enable@rf stored from wreg
	movlb 0	; select bank0
	movwf	(setRF_Enable@rf)
	line	180
	
l2953:	
;RF_Control_B1.c: 180: RfPointSelect(rf);
	movf	(setRF_Enable@rf),w
	fcall	_RfPointSelect
	line	181
	
l2955:	
;RF_Control_B1.c: 181: RF->Enable=command;
	movf	(_RF),w
	movwf	fsr1l
	clrf fsr1h	
	
	movlb 0	; select bank0
	movf	(setRF_Enable@command),w
	bcf	indf1,0
	skipz
	bsf	indf1,0
	line	182
	
l2957:	
;RF_Control_B1.c: 182: RF->Learn=0;
	movf	(_RF),w
	movwf	fsr1l
	clrf fsr1h	
	
	bcf	indf1,6
	line	183
	
l2959:	
;RF_Control_B1.c: 183: RF->TransceiveGO=0;
	movf	(_RF),w
	movwf	fsr1l
	clrf fsr1h	
	
	bcf	indf1,2
	line	184
	
l2961:	
;RF_Control_B1.c: 184: RF->RxStatus=0;
	movf	(_RF),w
	movwf	fsr1l
	clrf fsr1h	
	
	bcf	indf1,3
	line	185
	
l2963:	
;RF_Control_B1.c: 185: RF->ReceiveGO=0;
	movf	(_RF),w
	movwf	fsr1l
	clrf fsr1h	
	
	bcf	indf1,1
	line	186
	
l2965:	
;RF_Control_B1.c: 186: RF->DebounceTime=0;
	incf	(_RF),w
	movwf	fsr1l
	clrf fsr1h	
	
	clrf	indf1
	line	187
	
l2967:	
;RF_Control_B1.c: 187: RF->Debounce=0;
	movf	(_RF),w
	movwf	fsr1l
	clrf fsr1h	
	
	bcf	indf1,5
	line	188
	
l2969:	
;RF_Control_B1.c: 188: setINT_GO(0);
	movlw	(0)
	fcall	_setINT_GO
	line	189
	
l658:	
	return
	opt stack 0
GLOBAL	__end_of_setRF_Enable
	__end_of_setRF_Enable:
	signat	_setRF_Enable,8312
	global	_setINT_GO

;; *************** function _setINT_GO *****************
;; Defined at:
;;		line 166 in file "C:\Users\Eric\Documents\GitHub\myPicCode\Source_File\MCU_16f1516_B1.c"
;; Parameters:    Size  Location     Type
;;  command         1    wreg     unsigned char 
;; Auto vars:     Size  Location     Type
;;  command         1    0[BANK0 ] unsigned char 
;; Return value:  Size  Location     Type
;;		None               void
;; Registers used:
;;		wreg
;; Tracked objects:
;;		On entry : 0/0
;;		On exit  : 0/0
;;		Unchanged: 0/0
;; Data sizes:     COMMON   BANK0   BANK1   BANK2   BANK3   BANK4   BANK5   BANK6
;;      Params:         0       0       0       0       0       0       0       0
;;      Locals:         0       1       0       0       0       0       0       0
;;      Temps:          0       0       0       0       0       0       0       0
;;      Totals:         0       1       0       0       0       0       0       0
;;Total ram usage:        1 bytes
;; Hardware stack levels used:    1
;; Hardware stack levels required when called:    4
;; This function calls:
;;		Nothing
;; This function is called by:
;;		_setRF_Main
;;		_setRF_Enable
;;		_RF_RxDisable
;; This function uses a non-reentrant model
;;
psect	text19,local,class=CODE,delta=2,merge=1
	file	"C:\Users\Eric\Documents\GitHub\myPicCode\Source_File\MCU_16f1516_B1.c"
	line	166
global __ptext19
__ptext19:	;psect for function _setINT_GO
psect	text19
	file	"C:\Users\Eric\Documents\GitHub\myPicCode\Source_File\MCU_16f1516_B1.c"
	line	166
	global	__size_of_setINT_GO
	__size_of_setINT_GO	equ	__end_of_setINT_GO-_setINT_GO
	
_setINT_GO:	
;incstack = 0
	opt	stack 9
; Regs used in _setINT_GO: [wreg]
;setINT_GO@command stored from wreg
	movlb 0	; select bank0
	movwf	(setINT_GO@command)
	line	168
	
l2631:	
;MCU_16f1516_B1.c: 168: INTF=0;
	bcf	(89/8),(89)&7	;volatile
	line	169
	
l2633:	
;MCU_16f1516_B1.c: 169: INTE=command;
	btfsc	(setINT_GO@command),0
	goto	u2481
	goto	u2480
	
u2481:
	bsf	(92/8),(92)&7	;volatile
	goto	u2494
u2480:
	bcf	(92/8),(92)&7	;volatile
u2494:
	line	170
	
l407:	
	return
	opt stack 0
GLOBAL	__end_of_setINT_GO
	__end_of_setINT_GO:
	signat	_setINT_GO,4216
	global	_RfPointSelect

;; *************** function _RfPointSelect *****************
;; Defined at:
;;		line 7 in file "C:\Users\Eric\Documents\GitHub\myPicCode\Source_File\RF_Control_B1.c"
;; Parameters:    Size  Location     Type
;;  rf              1    wreg     unsigned char 
;; Auto vars:     Size  Location     Type
;;  rf              1    1[BANK0 ] unsigned char 
;; Return value:  Size  Location     Type
;;		None               void
;; Registers used:
;;		wreg
;; Tracked objects:
;;		On entry : 0/0
;;		On exit  : 0/0
;;		Unchanged: 0/0
;; Data sizes:     COMMON   BANK0   BANK1   BANK2   BANK3   BANK4   BANK5   BANK6
;;      Params:         0       0       0       0       0       0       0       0
;;      Locals:         0       1       0       0       0       0       0       0
;;      Temps:          0       1       0       0       0       0       0       0
;;      Totals:         0       2       0       0       0       0       0       0
;;Total ram usage:        2 bytes
;; Hardware stack levels used:    1
;; Hardware stack levels required when called:    4
;; This function calls:
;;		Nothing
;; This function is called by:
;;		_setRF_RxStatus
;;		_setRF_Main
;;		_setRF_Enable
;;		_RF_RxDisable
;;		_setRF_Learn
;;		_setTxData
;;		_getRxData
;;		_setLog_Code
;;		_setControl_Lights_Table
;; This function uses a non-reentrant model
;;
psect	text20,local,class=CODE,delta=2,merge=1
	file	"C:\Users\Eric\Documents\GitHub\myPicCode\Source_File\RF_Control_B1.c"
	line	7
global __ptext20
__ptext20:	;psect for function _RfPointSelect
psect	text20
	file	"C:\Users\Eric\Documents\GitHub\myPicCode\Source_File\RF_Control_B1.c"
	line	7
	global	__size_of_RfPointSelect
	__size_of_RfPointSelect	equ	__end_of_RfPointSelect-_RfPointSelect
	
_RfPointSelect:	
;incstack = 0
	opt	stack 9
; Regs used in _RfPointSelect: [wreg]
;RfPointSelect@rf stored from wreg
	movlb 0	; select bank0
	movwf	(RfPointSelect@rf)
	line	10
	
l2605:	
;RF_Control_B1.c: 10: if(rf == 1)
	movf	(RfPointSelect@rf),w
	xorlw	01h&0ffh
	skipz
	goto	u2451
	goto	u2450
u2451:
	goto	l618
u2450:
	line	12
	
l2607:	
;RF_Control_B1.c: 11: {
;RF_Control_B1.c: 12: RF=&RF1;
	movlw	(_RF1)&0ffh
	movwf	(??_RfPointSelect+0)+0
	movf	(??_RfPointSelect+0)+0,w
	movwf	(_RF)
	goto	l618
	line	13
	
l617:	
	line	15
	
l618:	
	return
	opt stack 0
GLOBAL	__end_of_RfPointSelect
	__end_of_RfPointSelect:
	signat	_RfPointSelect,4216
	global	_I2C_Main

;; *************** function _I2C_Main *****************
;; Defined at:
;;		line 275 in file "C:\Users\Eric\Documents\GitHub\myPicCode\Source_File\MCU_16f1516_B1.c"
;; Parameters:    Size  Location     Type
;;		None
;; Auto vars:     Size  Location     Type
;;  i               1    0        unsigned char 
;; Return value:  Size  Location     Type
;;		None               void
;; Registers used:
;;		wreg, fsr1l, fsr1h, status,2, status,0, pclath, cstack
;; Tracked objects:
;;		On entry : 0/0
;;		On exit  : 0/0
;;		Unchanged: 0/0
;; Data sizes:     COMMON   BANK0   BANK1   BANK2   BANK3   BANK4   BANK5   BANK6
;;      Params:         0       0       0       0       0       0       0       0
;;      Locals:         0       0       0       0       0       0       0       0
;;      Temps:          0       0       0       0       0       0       0       0
;;      Totals:         0       0       0       0       0       0       0       0
;;Total ram usage:        0 bytes
;; Hardware stack levels used:    1
;; Hardware stack levels required when called:    5
;; This function calls:
;;		_I2C_SetData
;;		_I2C_Slave_Mode
;; This function is called by:
;;		_main
;; This function uses a non-reentrant model
;;
psect	text21,local,class=CODE,delta=2,merge=1
	file	"C:\Users\Eric\Documents\GitHub\myPicCode\Source_File\MCU_16f1516_B1.c"
	line	275
global __ptext21
__ptext21:	;psect for function _I2C_Main
psect	text21
	file	"C:\Users\Eric\Documents\GitHub\myPicCode\Source_File\MCU_16f1516_B1.c"
	line	275
	global	__size_of_I2C_Main
	__size_of_I2C_Main	equ	__end_of_I2C_Main-_I2C_Main
	
_I2C_Main:	
;incstack = 0
	opt	stack 10
; Regs used in _I2C_Main: [wreg+fsr1l+fsr1h+status,2+status,0+pclath+cstack]
	line	279
	
l2991:	
;MCU_16f1516_B1.c: 277: char i;
;MCU_16f1516_B1.c: 279: if(I2C->SlaveGO)
	movf	(_I2C),w
	addlw	042h
	movwf	fsr1l
	movlw 1	; select bank2/3
	movwf fsr1h	
	
	btfss	indf1,0
	goto	u2931
	goto	u2930
u2931:
	goto	l420
u2930:
	line	281
	
l2993:	
;MCU_16f1516_B1.c: 280: {
;MCU_16f1516_B1.c: 281: I2C->SlaveGO=0;
	movf	(_I2C),w
	addlw	042h
	movwf	fsr1l
	movlw 1	; select bank2/3
	movwf fsr1h	
	
	bcf	indf1,0
	line	282
	
l2995:	
;MCU_16f1516_B1.c: 282: I2C_Slave_Mode();
	fcall	_I2C_Slave_Mode
	line	283
	
l2997:	
;MCU_16f1516_B1.c: 283: SSPIE=1;
	movlb 1	; select bank1
	bsf	(1163/8)^080h,(1163)&7	;volatile
	line	285
	
l2999:	
;MCU_16f1516_B1.c: 285: if(I2C->SlaveTxGO)
	movf	(_I2C),w
	addlw	042h
	movwf	fsr1l
	movlw 1	; select bank2/3
	movwf fsr1h	
	
	btfss	indf1,2
	goto	u2941
	goto	u2940
u2941:
	goto	l418
u2940:
	line	287
	
l3001:	
;MCU_16f1516_B1.c: 286: {
;MCU_16f1516_B1.c: 287: I2C->SlaveTxGO=0;
	movf	(_I2C),w
	addlw	042h
	movwf	fsr1l
	movlw 1	; select bank2/3
	movwf fsr1h	
	
	bcf	indf1,2
	line	288
	
l3003:	
;MCU_16f1516_B1.c: 288: RC0=0;
	movlb 0	; select bank0
	bcf	(112/8),(112)&7	;volatile
	line	289
;MCU_16f1516_B1.c: 289: I2C->SS=0;
	movf	(_I2C),w
	addlw	042h
	movwf	fsr1l
	movlw 1	; select bank2/3
	movwf fsr1h	
	
	bcf	indf1,5
	line	290
	
l418:	
	line	291
;MCU_16f1516_B1.c: 290: }
;MCU_16f1516_B1.c: 291: if(I2C->SlaveRxGO)
	movf	(_I2C),w
	addlw	042h
	movwf	fsr1l
	movlw 1	; select bank2/3
	movwf fsr1h	
	
	btfss	indf1,1
	goto	u2951
	goto	u2950
u2951:
	goto	l3009
u2950:
	line	293
	
l3005:	
;MCU_16f1516_B1.c: 292: {
;MCU_16f1516_B1.c: 293: I2C->SlaveRxGO=0;
	movf	(_I2C),w
	addlw	042h
	movwf	fsr1l
	movlw 1	; select bank2/3
	movwf fsr1h	
	
	bcf	indf1,1
	line	294
	
l3007:	
;MCU_16f1516_B1.c: 294: I2C_SetData(0);
	movlw	(0)
	fcall	_I2C_SetData
	goto	l3009
	line	295
	
l419:	
	line	296
	
l3009:	
;MCU_16f1516_B1.c: 295: }
;MCU_16f1516_B1.c: 296: RA1=~RA1;
	movlw	1<<((97)&7)
	movlb 0	; select bank0
	xorwf	((97)/8),f
	goto	l420
	line	297
	
l417:	
	line	341
	
l420:	
	return
	opt stack 0
GLOBAL	__end_of_I2C_Main
	__end_of_I2C_Main:
	signat	_I2C_Main,88
	global	_I2C_Slave_Mode

;; *************** function _I2C_Slave_Mode *****************
;; Defined at:
;;		line 446 in file "C:\Users\Eric\Documents\GitHub\myPicCode\Source_File\MCU_16f1516_B1.c"
;; Parameters:    Size  Location     Type
;;		None
;; Auto vars:     Size  Location     Type
;;  i               1    2[BANK0 ] unsigned char 
;; Return value:  Size  Location     Type
;;		None               void
;; Registers used:
;;		wreg, fsr1l, fsr1h, status,2, status,0
;; Tracked objects:
;;		On entry : 0/0
;;		On exit  : 0/0
;;		Unchanged: 0/0
;; Data sizes:     COMMON   BANK0   BANK1   BANK2   BANK3   BANK4   BANK5   BANK6
;;      Params:         0       0       0       0       0       0       0       0
;;      Locals:         0       1       0       0       0       0       0       0
;;      Temps:          0       2       0       0       0       0       0       0
;;      Totals:         0       3       0       0       0       0       0       0
;;Total ram usage:        3 bytes
;; Hardware stack levels used:    1
;; Hardware stack levels required when called:    4
;; This function calls:
;;		Nothing
;; This function is called by:
;;		_I2C_Main
;; This function uses a non-reentrant model
;;
psect	text22,local,class=CODE,delta=2,merge=1
	line	446
global __ptext22
__ptext22:	;psect for function _I2C_Slave_Mode
psect	text22
	file	"C:\Users\Eric\Documents\GitHub\myPicCode\Source_File\MCU_16f1516_B1.c"
	line	446
	global	__size_of_I2C_Slave_Mode
	__size_of_I2C_Slave_Mode	equ	__end_of_I2C_Slave_Mode-_I2C_Slave_Mode
	
_I2C_Slave_Mode:	
;incstack = 0
	opt	stack 10
; Regs used in _I2C_Slave_Mode: [wreg+fsr1l+fsr1h+status,2+status,0]
	line	449
	
l2863:	
;MCU_16f1516_B1.c: 448: char i;
;MCU_16f1516_B1.c: 449: SSPIF=0;
	movlb 0	; select bank0
	bcf	(139/8),(139)&7	;volatile
	line	450
	
l2865:	
;MCU_16f1516_B1.c: 450: I2C->Address=SSPBUF;
	movlb 4	; select bank4
	movf	(529)^0200h,w	;volatile
	movlb 0	; select bank0
	movwf	(??_I2C_Slave_Mode+0)+0
	movf	(_I2C),w
	addlw	041h
	movwf	fsr1l
	movlw 1	; select bank2/3
	movwf fsr1h	
	
	movf	(??_I2C_Slave_Mode+0)+0,w
	movwf	indf1
	line	452
	
l2867:	
;MCU_16f1516_B1.c: 452: if(R_nW)
	movlb 4	; select bank4
	btfss	(4258/8)^0200h,(4258)&7	;volatile
	goto	u2771
	goto	u2770
u2771:
	goto	l515
u2770:
	line	454
	
l2869:	
;MCU_16f1516_B1.c: 453: {
;MCU_16f1516_B1.c: 454: SSPOV=0;
	bcf	(4270/8)^0200h,(4270)&7	;volatile
	line	455
	
l2871:	
;MCU_16f1516_B1.c: 455: for(i=0;i<32;i++)
	movlb 0	; select bank0
	clrf	(I2C_Slave_Mode@i)
	
l2873:	
	movlw	(020h)
	subwf	(I2C_Slave_Mode@i),w
	skipc
	goto	u2781
	goto	u2780
u2781:
	goto	l2877
u2780:
	goto	l517
	
l2875:	
	goto	l517
	line	456
	
l516:	
	line	457
	
l2877:	
;MCU_16f1516_B1.c: 456: {
;MCU_16f1516_B1.c: 457: SSPBUF=I2C->BufferWriter[i];
	movf	(I2C_Slave_Mode@i),w
	addlw	020h
	addwf	(_I2C),w
	movwf	(??_I2C_Slave_Mode+0)+0
	movf	0+(??_I2C_Slave_Mode+0)+0,w
	movwf	fsr1l
	movlw 1	; select bank2/3
	movwf fsr1h	
	
	movf	indf1,w
	movlb 4	; select bank4
	movwf	(529)^0200h	;volatile
	line	459
	
l2879:	
;MCU_16f1516_B1.c: 459: CKP=1;
	bsf	(4268/8)^0200h,(4268)&7	;volatile
	line	460
;MCU_16f1516_B1.c: 460: while(!SSPIF);
	goto	l518
	
l519:	
	
l518:	
	movlb 0	; select bank0
	btfss	(139/8),(139)&7	;volatile
	goto	u2791
	goto	u2790
u2791:
	goto	l518
u2790:
	
l520:	
	line	461
;MCU_16f1516_B1.c: 461: SSPIF=0;
	bcf	(139/8),(139)&7	;volatile
	line	462
;MCU_16f1516_B1.c: 462: while(ACKSTAT);
	goto	l521
	
l522:	
	
l521:	
	movlb 4	; select bank4
	btfsc	(4278/8)^0200h,(4278)&7	;volatile
	goto	u2801
	goto	u2800
u2801:
	goto	l521
u2800:
	goto	l2881
	
l523:	
	line	455
	
l2881:	
	movlw	(01h)
	movlb 0	; select bank0
	movwf	(??_I2C_Slave_Mode+0)+0
	movf	(??_I2C_Slave_Mode+0)+0,w
	addwf	(I2C_Slave_Mode@i),f
	
l2883:	
	movlw	(020h)
	subwf	(I2C_Slave_Mode@i),w
	skipc
	goto	u2811
	goto	u2810
u2811:
	goto	l2877
u2810:
	
l517:	
	line	464
;MCU_16f1516_B1.c: 463: }
;MCU_16f1516_B1.c: 464: CKP=1;
	movlb 4	; select bank4
	bsf	(4268/8)^0200h,(4268)&7	;volatile
	line	466
	
l2885:	
;MCU_16f1516_B1.c: 466: I2C->SlaveTxGO=1;
	movf	(_I2C),w
	addlw	042h
	movwf	fsr1l
	movlw 1	; select bank2/3
	movwf fsr1h	
	
	bsf	indf1,2
	line	467
	
l2887:	
;MCU_16f1516_B1.c: 467: RA1=1;
	movlb 0	; select bank0
	bsf	(97/8),(97)&7	;volatile
	line	468
;MCU_16f1516_B1.c: 468: }
	goto	l530
	line	469
	
l515:	
	line	472
;MCU_16f1516_B1.c: 469: else
;MCU_16f1516_B1.c: 470: {
;MCU_16f1516_B1.c: 472: CKP=1;
	bsf	(4268/8)^0200h,(4268)&7	;volatile
	line	473
	
l2889:	
;MCU_16f1516_B1.c: 473: for(i=0;i<32;i++)
	movlb 0	; select bank0
	clrf	(I2C_Slave_Mode@i)
	
l2891:	
	movlw	(020h)
	subwf	(I2C_Slave_Mode@i),w
	skipc
	goto	u2821
	goto	u2820
u2821:
	goto	l527
u2820:
	goto	l2903
	
l2893:	
	goto	l2903
	line	474
	
l525:	
	line	475
;MCU_16f1516_B1.c: 474: {
;MCU_16f1516_B1.c: 475: while(!SSPIF);
	goto	l527
	
l528:	
	
l527:	
	btfss	(139/8),(139)&7	;volatile
	goto	u2831
	goto	u2830
u2831:
	goto	l527
u2830:
	
l529:	
	line	476
;MCU_16f1516_B1.c: 476: SSPIF=0;
	bcf	(139/8),(139)&7	;volatile
	line	477
	
l2895:	
;MCU_16f1516_B1.c: 477: I2C->BufferReader[i]=SSPBUF;
	movlb 4	; select bank4
	movf	(529)^0200h,w	;volatile
	movlb 0	; select bank0
	movwf	(??_I2C_Slave_Mode+0)+0
	movf	(I2C_Slave_Mode@i),w
	addwf	(_I2C),w
	movwf	(??_I2C_Slave_Mode+1)+0
	movf	0+(??_I2C_Slave_Mode+1)+0,w
	movwf	fsr1l
	movlw 1	; select bank2/3
	movwf fsr1h	
	
	movf	(??_I2C_Slave_Mode+0)+0,w
	movwf	indf1
	line	479
	
l2897:	
;MCU_16f1516_B1.c: 479: CKP=1;
	movlb 4	; select bank4
	bsf	(4268/8)^0200h,(4268)&7	;volatile
	line	473
	
l2899:	
	movlw	(01h)
	movlb 0	; select bank0
	movwf	(??_I2C_Slave_Mode+0)+0
	movf	(??_I2C_Slave_Mode+0)+0,w
	addwf	(I2C_Slave_Mode@i),f
	
l2901:	
	movlw	(020h)
	subwf	(I2C_Slave_Mode@i),w
	skipc
	goto	u2841
	goto	u2840
u2841:
	goto	l527
u2840:
	goto	l2903
	
l526:	
	line	483
	
l2903:	
;MCU_16f1516_B1.c: 480: }
;MCU_16f1516_B1.c: 483: I2C->SlaveRxGO=1;
	movf	(_I2C),w
	addlw	042h
	movwf	fsr1l
	movlw 1	; select bank2/3
	movwf fsr1h	
	
	bsf	indf1,1
	goto	l530
	line	484
	
l524:	
	line	487
	
l530:	
	return
	opt stack 0
GLOBAL	__end_of_I2C_Slave_Mode
	__end_of_I2C_Slave_Mode:
	signat	_I2C_Slave_Mode,88
	global	_I2C_SetData

;; *************** function _I2C_SetData *****************
;; Defined at:
;;		line 342 in file "C:\Users\Eric\Documents\GitHub\myPicCode\Source_File\MCU_16f1516_B1.c"
;; Parameters:    Size  Location     Type
;;  command         1    wreg     unsigned char 
;; Auto vars:     Size  Location     Type
;;  command         1    2[BANK0 ] unsigned char 
;;  i               1    3[BANK0 ] unsigned char 
;; Return value:  Size  Location     Type
;;		None               void
;; Registers used:
;;		wreg, fsr1l, fsr1h, status,2, status,0
;; Tracked objects:
;;		On entry : 0/0
;;		On exit  : 0/0
;;		Unchanged: 0/0
;; Data sizes:     COMMON   BANK0   BANK1   BANK2   BANK3   BANK4   BANK5   BANK6
;;      Params:         0       0       0       0       0       0       0       0
;;      Locals:         0       2       0       0       0       0       0       0
;;      Temps:          0       2       0       0       0       0       0       0
;;      Totals:         0       4       0       0       0       0       0       0
;;Total ram usage:        4 bytes
;; Hardware stack levels used:    1
;; Hardware stack levels required when called:    4
;; This function calls:
;;		Nothing
;; This function is called by:
;;		_I2C_Main
;;		_setRF_Main
;; This function uses a non-reentrant model
;;
psect	text23,local,class=CODE,delta=2,merge=1
	line	342
global __ptext23
__ptext23:	;psect for function _I2C_SetData
psect	text23
	file	"C:\Users\Eric\Documents\GitHub\myPicCode\Source_File\MCU_16f1516_B1.c"
	line	342
	global	__size_of_I2C_SetData
	__size_of_I2C_SetData	equ	__end_of_I2C_SetData-_I2C_SetData
	
_I2C_SetData:	
;incstack = 0
	opt	stack 9
; Regs used in _I2C_SetData: [wreg+fsr1l+fsr1h+status,2+status,0]
;I2C_SetData@command stored from wreg
	movlb 0	; select bank0
	movwf	(I2C_SetData@command)
	line	346
	
l2727:	
;MCU_16f1516_B1.c: 345: char i;
;MCU_16f1516_B1.c: 346: if(command)
	movf	(I2C_SetData@command),w
	skipz
	goto	u2640
	goto	l2749
u2640:
	line	348
	
l2729:	
;MCU_16f1516_B1.c: 347: {
;MCU_16f1516_B1.c: 348: if(!I2C->SS)
	movf	(_I2C),w
	addlw	042h
	movwf	fsr1l
	movlw 1	; select bank2/3
	movwf fsr1h	
	
	btfsc	indf1,5
	goto	u2651
	goto	u2650
u2651:
	goto	l430
u2650:
	line	350
	
l2731:	
;MCU_16f1516_B1.c: 349: {
;MCU_16f1516_B1.c: 350: I2C->SS=1;
	movf	(_I2C),w
	addlw	042h
	movwf	fsr1l
	movlw 1	; select bank2/3
	movwf fsr1h	
	
	bsf	indf1,5
	line	351
	
l2733:	
;MCU_16f1516_B1.c: 351: for(i=0 ;i< 21 ;i++)
	clrf	(I2C_SetData@i)
	
l2735:	
	movlw	(015h)
	subwf	(I2C_SetData@i),w
	skipc
	goto	u2661
	goto	u2660
u2661:
	goto	l2739
u2660:
	goto	l2745
	
l2737:	
	goto	l2745
	line	352
	
l425:	
	line	353
	
l2739:	
;MCU_16f1516_B1.c: 352: {
;MCU_16f1516_B1.c: 353: I2C->BufferWriter[i]=RF_Data[i];
	movf	(I2C_SetData@i),w
	addlw	_RF_Data&0ffh
	movwf	fsr1l
	clrf fsr1h	
	
	movf	indf1,w
	movwf	(??_I2C_SetData+0)+0
	movf	(I2C_SetData@i),w
	addlw	020h
	addwf	(_I2C),w
	movwf	(??_I2C_SetData+1)+0
	movf	0+(??_I2C_SetData+1)+0,w
	movwf	fsr1l
	movlw 1	; select bank2/3
	movwf fsr1h	
	
	movf	(??_I2C_SetData+0)+0,w
	movwf	indf1
	line	351
	
l2741:	
	movlw	(01h)
	movwf	(??_I2C_SetData+0)+0
	movf	(??_I2C_SetData+0)+0,w
	addwf	(I2C_SetData@i),f
	
l2743:	
	movlw	(015h)
	subwf	(I2C_SetData@i),w
	skipc
	goto	u2671
	goto	u2670
u2671:
	goto	l2739
u2670:
	goto	l2745
	
l426:	
	line	355
	
l2745:	
;MCU_16f1516_B1.c: 354: }
;MCU_16f1516_B1.c: 355: I2C->BufferWriter[21]=Tx_Length;
	movf	(_Tx_Length),w
	movwf	(??_I2C_SetData+0)+0
	movf	(_I2C),w
	addlw	035h
	movwf	fsr1l
	movlw 1	; select bank2/3
	movwf fsr1h	
	
	movf	(??_I2C_SetData+0)+0,w
	movwf	indf1
	line	356
;MCU_16f1516_B1.c: 356: I2C->BufferWriter[22]=RSSI;
	movf	(_RSSI),w
	movwf	(??_I2C_SetData+0)+0
	movf	(_I2C),w
	addlw	036h
	movwf	fsr1l
	movlw 1	; select bank2/3
	movwf fsr1h	
	
	movf	(??_I2C_SetData+0)+0,w
	movwf	indf1
	line	357
;MCU_16f1516_B1.c: 357: I2C->BufferWriter[23]=CRC;
	movf	(_CRC),w
	movwf	(??_I2C_SetData+0)+0
	movf	(_I2C),w
	addlw	037h
	movwf	fsr1l
	movlw 1	; select bank2/3
	movwf fsr1h	
	
	movf	(??_I2C_SetData+0)+0,w
	movwf	indf1
	line	358
	
l2747:	
;MCU_16f1516_B1.c: 358: RC0=1;
	bsf	(112/8),(112)&7	;volatile
	goto	l430
	line	359
	
l424:	
	line	360
;MCU_16f1516_B1.c: 359: }
;MCU_16f1516_B1.c: 360: }
	goto	l430
	line	361
	
l423:	
	line	363
	
l2749:	
;MCU_16f1516_B1.c: 361: else
;MCU_16f1516_B1.c: 362: {
;MCU_16f1516_B1.c: 363: for(i=0;i<21;i++)
	clrf	(I2C_SetData@i)
	
l2751:	
	movlw	(015h)
	subwf	(I2C_SetData@i),w
	skipc
	goto	u2681
	goto	u2680
u2681:
	goto	l2755
u2680:
	goto	l2761
	
l2753:	
	goto	l2761
	line	364
	
l428:	
	line	365
	
l2755:	
;MCU_16f1516_B1.c: 364: {
;MCU_16f1516_B1.c: 365: RF_Data[i]=I2C->BufferReader[i];
	movf	(I2C_SetData@i),w
	addwf	(_I2C),w
	movwf	(??_I2C_SetData+0)+0
	movf	0+(??_I2C_SetData+0)+0,w
	movwf	fsr1l
	movlw 1	; select bank2/3
	movwf fsr1h	
	
	movf	indf1,w
	movwf	(??_I2C_SetData+1)+0
	movf	(I2C_SetData@i),w
	addlw	_RF_Data&0ffh
	movwf	fsr1l
	clrf fsr1h	
	
	movf	(??_I2C_SetData+1)+0,w
	movwf	indf1
	line	363
	
l2757:	
	movlw	(01h)
	movwf	(??_I2C_SetData+0)+0
	movf	(??_I2C_SetData+0)+0,w
	addwf	(I2C_SetData@i),f
	
l2759:	
	movlw	(015h)
	subwf	(I2C_SetData@i),w
	skipc
	goto	u2691
	goto	u2690
u2691:
	goto	l2755
u2690:
	goto	l2761
	
l429:	
	line	368
	
l2761:	
;MCU_16f1516_B1.c: 366: }
;MCU_16f1516_B1.c: 368: RF->TransceiveGO=1;
	movf	(_RF),w
	movwf	fsr1l
	clrf fsr1h	
	
	bsf	indf1,2
	goto	l430
	line	370
	
l427:	
	line	373
	
l430:	
	return
	opt stack 0
GLOBAL	__end_of_I2C_SetData
	__end_of_I2C_SetData:
	signat	_I2C_SetData,4216
	global	_CC2500_PowerOnInitial

;; *************** function _CC2500_PowerOnInitial *****************
;; Defined at:
;;		line 97 in file "C:\Users\Eric\Documents\GitHub\myPicCode\Source_File\CC2500_B1.c"
;; Parameters:    Size  Location     Type
;;		None
;; Auto vars:     Size  Location     Type
;;		None
;; Return value:  Size  Location     Type
;;		None               void
;; Registers used:
;;		wreg, fsr0l, fsr0h, status,2, status,0, pclath, cstack
;; Tracked objects:
;;		On entry : 0/0
;;		On exit  : 0/0
;;		Unchanged: 0/0
;; Data sizes:     COMMON   BANK0   BANK1   BANK2   BANK3   BANK4   BANK5   BANK6
;;      Params:         0       0       0       0       0       0       0       0
;;      Locals:         0       0       0       0       0       0       0       0
;;      Temps:          0       0       0       0       0       0       0       0
;;      Totals:         0       0       0       0       0       0       0       0
;;Total ram usage:        0 bytes
;; Hardware stack levels used:    1
;; Hardware stack levels required when called:    7
;; This function calls:
;;		_CC2500_ClearRXFIFO
;;		_CC2500_ClearTXFIFO
;;		_CC2500_FrequencyCabr
;;		_CC2500_InitPATable
;;		_CC2500_InitSetREG
;;		_CC2500_PowerRST
;;		_CC2500_SIDLEMode
;; This function is called by:
;;		_main
;; This function uses a non-reentrant model
;;
psect	text24,local,class=CODE,delta=2,merge=1
	file	"C:\Users\Eric\Documents\GitHub\myPicCode\Source_File\CC2500_B1.c"
	line	97
global __ptext24
__ptext24:	;psect for function _CC2500_PowerOnInitial
psect	text24
	file	"C:\Users\Eric\Documents\GitHub\myPicCode\Source_File\CC2500_B1.c"
	line	97
	global	__size_of_CC2500_PowerOnInitial
	__size_of_CC2500_PowerOnInitial	equ	__end_of_CC2500_PowerOnInitial-_CC2500_PowerOnInitial
	
_CC2500_PowerOnInitial:	
;incstack = 0
	opt	stack 8
; Regs used in _CC2500_PowerOnInitial: [wreg-fsr0h+status,2+status,0+pclath+cstack]
	line	99
	
l2971:	
;CC2500_B1.c: 99: CC2500_PowerRST();
	fcall	_CC2500_PowerRST
	line	100
	
l2973:	
;CC2500_B1.c: 100: CC2500_InitSetREG();
	fcall	_CC2500_InitSetREG
	line	101
	
l2975:	
;CC2500_B1.c: 101: CC2500_InitPATable();
	fcall	_CC2500_InitPATable
	line	102
;CC2500_B1.c: 102: CC2500_ClearTXFIFO();
	fcall	_CC2500_ClearTXFIFO
	line	103
;CC2500_B1.c: 103: CC2500_ClearRXFIFO();
	fcall	_CC2500_ClearRXFIFO
	line	104
;CC2500_B1.c: 104: CC2500_FrequencyCabr();
	fcall	_CC2500_FrequencyCabr
	line	105
;CC2500_B1.c: 105: CC2500_SIDLEMode();
	fcall	_CC2500_SIDLEMode
	line	106
	
l133:	
	return
	opt stack 0
GLOBAL	__end_of_CC2500_PowerOnInitial
	__end_of_CC2500_PowerOnInitial:
	signat	_CC2500_PowerOnInitial,88
	global	_CC2500_SIDLEMode

;; *************** function _CC2500_SIDLEMode *****************
;; Defined at:
;;		line 183 in file "C:\Users\Eric\Documents\GitHub\myPicCode\Source_File\CC2500_B1.c"
;; Parameters:    Size  Location     Type
;;		None
;; Auto vars:     Size  Location     Type
;;		None
;; Return value:  Size  Location     Type
;;		None               void
;; Registers used:
;;		wreg, status,2, status,0, pclath, cstack
;; Tracked objects:
;;		On entry : 0/0
;;		On exit  : 0/0
;;		Unchanged: 0/0
;; Data sizes:     COMMON   BANK0   BANK1   BANK2   BANK3   BANK4   BANK5   BANK6
;;      Params:         0       0       0       0       0       0       0       0
;;      Locals:         0       0       0       0       0       0       0       0
;;      Temps:          0       0       0       0       0       0       0       0
;;      Totals:         0       0       0       0       0       0       0       0
;;Total ram usage:        0 bytes
;; Hardware stack levels used:    1
;; Hardware stack levels required when called:    6
;; This function calls:
;;		_CC2500_WriteCommand
;; This function is called by:
;;		_CC2500_PowerOnInitial
;; This function uses a non-reentrant model
;;
psect	text25,local,class=CODE,delta=2,merge=1
	line	183
global __ptext25
__ptext25:	;psect for function _CC2500_SIDLEMode
psect	text25
	file	"C:\Users\Eric\Documents\GitHub\myPicCode\Source_File\CC2500_B1.c"
	line	183
	global	__size_of_CC2500_SIDLEMode
	__size_of_CC2500_SIDLEMode	equ	__end_of_CC2500_SIDLEMode-_CC2500_SIDLEMode
	
_CC2500_SIDLEMode:	
;incstack = 0
	opt	stack 8
; Regs used in _CC2500_SIDLEMode: [wreg+status,2+status,0+pclath+cstack]
	line	185
	
l2827:	
;CC2500_B1.c: 185: CC2500_WriteCommand(0x36);
	movlw	(036h)
	fcall	_CC2500_WriteCommand
	line	186
	
l164:	
	return
	opt stack 0
GLOBAL	__end_of_CC2500_SIDLEMode
	__end_of_CC2500_SIDLEMode:
	signat	_CC2500_SIDLEMode,88
	global	_CC2500_PowerRST

;; *************** function _CC2500_PowerRST *****************
;; Defined at:
;;		line 110 in file "C:\Users\Eric\Documents\GitHub\myPicCode\Source_File\CC2500_B1.c"
;; Parameters:    Size  Location     Type
;;		None
;; Auto vars:     Size  Location     Type
;;		None
;; Return value:  Size  Location     Type
;;		None               void
;; Registers used:
;;		wreg, status,2, status,0, pclath, cstack
;; Tracked objects:
;;		On entry : 0/0
;;		On exit  : 0/0
;;		Unchanged: 0/0
;; Data sizes:     COMMON   BANK0   BANK1   BANK2   BANK3   BANK4   BANK5   BANK6
;;      Params:         0       0       0       0       0       0       0       0
;;      Locals:         0       0       0       0       0       0       0       0
;;      Temps:          0       1       0       0       0       0       0       0
;;      Totals:         0       1       0       0       0       0       0       0
;;Total ram usage:        1 bytes
;; Hardware stack levels used:    1
;; Hardware stack levels required when called:    5
;; This function calls:
;;		_CC2500_WriteByte
;;		_DelayTime_1us
;; This function is called by:
;;		_CC2500_PowerOnInitial
;; This function uses a non-reentrant model
;;
psect	text26,local,class=CODE,delta=2,merge=1
	line	110
global __ptext26
__ptext26:	;psect for function _CC2500_PowerRST
psect	text26
	file	"C:\Users\Eric\Documents\GitHub\myPicCode\Source_File\CC2500_B1.c"
	line	110
	global	__size_of_CC2500_PowerRST
	__size_of_CC2500_PowerRST	equ	__end_of_CC2500_PowerRST-_CC2500_PowerRST
	
_CC2500_PowerRST:	
;incstack = 0
	opt	stack 9
; Regs used in _CC2500_PowerRST: [wreg+status,2+status,0+pclath+cstack]
	line	112
	
l2779:	
;CC2500_B1.c: 112: RB2=0;
	movlb 0	; select bank0
	bcf	(106/8),(106)&7	;volatile
	line	113
;CC2500_B1.c: 113: RB1=0;
	bcf	(105/8),(105)&7	;volatile
	line	114
;CC2500_B1.c: 114: RB5=1;
	bsf	(109/8),(109)&7	;volatile
	line	115
	
l2781:	
;CC2500_B1.c: 115: DelayTime_1us(10);
	movlw	low(0Ah)
	movwf	(DelayTime_1us@count)
	movlw	high(0Ah)
	movwf	((DelayTime_1us@count))+1
	fcall	_DelayTime_1us
	line	116
	
l2783:	
;CC2500_B1.c: 116: RB5=0;
	movlb 0	; select bank0
	bcf	(109/8),(109)&7	;volatile
	line	117
;CC2500_B1.c: 117: DelayTime_1us(10);
	movlw	low(0Ah)
	movwf	(DelayTime_1us@count)
	movlw	high(0Ah)
	movwf	((DelayTime_1us@count))+1
	fcall	_DelayTime_1us
	line	118
	
l2785:	
;CC2500_B1.c: 118: RB5=1;
	movlb 0	; select bank0
	bsf	(109/8),(109)&7	;volatile
	line	119
;CC2500_B1.c: 119: DelayTime_1us(40);
	movlw	low(028h)
	movwf	(DelayTime_1us@count)
	movlw	high(028h)
	movwf	((DelayTime_1us@count))+1
	fcall	_DelayTime_1us
	line	120
	
l2787:	
;CC2500_B1.c: 120: RB5=0;
	movlb 0	; select bank0
	bcf	(109/8),(109)&7	;volatile
	line	121
	
l2789:	
;CC2500_B1.c: 121: SPI0Buffer=0x30;
	movlw	(030h)
	movwf	(??_CC2500_PowerRST+0)+0
	movf	(??_CC2500_PowerRST+0)+0,w
	movwf	(_SPI0Buffer)
	line	122
;CC2500_B1.c: 122: while(RB3==1);
	goto	l136
	
l137:	
	
l136:	
	btfsc	(107/8),(107)&7	;volatile
	goto	u2711
	goto	u2710
u2711:
	goto	l136
u2710:
	goto	l2791
	
l138:	
	line	123
	
l2791:	
;CC2500_B1.c: 123: CC2500_WriteByte();
	fcall	_CC2500_WriteByte
	line	124
;CC2500_B1.c: 124: while(RB3==1);
	goto	l139
	
l140:	
	
l139:	
	movlb 0	; select bank0
	btfsc	(107/8),(107)&7	;volatile
	goto	u2721
	goto	u2720
u2721:
	goto	l139
u2720:
	
l141:	
	line	125
;CC2500_B1.c: 125: RB1=0;
	bcf	(105/8),(105)&7	;volatile
	line	126
;CC2500_B1.c: 126: RB5=1;
	bsf	(109/8),(109)&7	;volatile
	line	127
	
l142:	
	return
	opt stack 0
GLOBAL	__end_of_CC2500_PowerRST
	__end_of_CC2500_PowerRST:
	signat	_CC2500_PowerRST,88
	global	_CC2500_InitSetREG

;; *************** function _CC2500_InitSetREG *****************
;; Defined at:
;;		line 131 in file "C:\Users\Eric\Documents\GitHub\myPicCode\Source_File\CC2500_B1.c"
;; Parameters:    Size  Location     Type
;;		None
;; Auto vars:     Size  Location     Type
;;  loop_c          1    8[BANK0 ] unsigned char 
;;  temp2           1    7[BANK0 ] unsigned char 
;;  temp1           1    6[BANK0 ] unsigned char 
;; Return value:  Size  Location     Type
;;		None               void
;; Registers used:
;;		wreg, fsr0l, fsr0h, status,2, status,0, pclath, cstack
;; Tracked objects:
;;		On entry : 0/0
;;		On exit  : 0/0
;;		Unchanged: 0/0
;; Data sizes:     COMMON   BANK0   BANK1   BANK2   BANK3   BANK4   BANK5   BANK6
;;      Params:         0       0       0       0       0       0       0       0
;;      Locals:         0       3       0       0       0       0       0       0
;;      Temps:          0       1       0       0       0       0       0       0
;;      Totals:         0       4       0       0       0       0       0       0
;;Total ram usage:        4 bytes
;; Hardware stack levels used:    1
;; Hardware stack levels required when called:    6
;; This function calls:
;;		_CC2500_WriteREG
;; This function is called by:
;;		_CC2500_PowerOnInitial
;; This function uses a non-reentrant model
;;
psect	text27,local,class=CODE,delta=2,merge=1
	line	131
global __ptext27
__ptext27:	;psect for function _CC2500_InitSetREG
psect	text27
	file	"C:\Users\Eric\Documents\GitHub\myPicCode\Source_File\CC2500_B1.c"
	line	131
	global	__size_of_CC2500_InitSetREG
	__size_of_CC2500_InitSetREG	equ	__end_of_CC2500_InitSetREG-_CC2500_InitSetREG
	
_CC2500_InitSetREG:	
;incstack = 0
	opt	stack 8
; Regs used in _CC2500_InitSetREG: [wreg-fsr0h+status,2+status,0+pclath+cstack]
	line	136
	
l2793:	
;CC2500_B1.c: 133: unsigned char loop_c;
;CC2500_B1.c: 134: unsigned char temp1,temp2;
;CC2500_B1.c: 136: for(loop_c=0;loop_c<47;loop_c++)
	movlb 0	; select bank0
	clrf	(CC2500_InitSetREG@loop_c)
	
l2795:	
	movlw	(02Fh)
	subwf	(CC2500_InitSetREG@loop_c),w
	skipc
	goto	u2731
	goto	u2730
u2731:
	goto	l2799
u2730:
	goto	l147
	
l2797:	
	goto	l147
	line	137
	
l145:	
	line	138
	
l2799:	
;CC2500_B1.c: 137: {
;CC2500_B1.c: 138: temp1 = CC2500_registers_address[loop_c];
	movf	(CC2500_InitSetREG@loop_c),w
	addlw	low((_CC2500_registers_address)|8000h)
	movwf	fsr0l
	movlw	high((_CC2500_registers_address)|8000h)
	skipnc
	addlw	1
	movwf	fsr0h
	movf	indf0,w ;code access
	movwf	(??_CC2500_InitSetREG+0)+0
	movf	(??_CC2500_InitSetREG+0)+0,w
	movwf	(CC2500_InitSetREG@temp1)
	line	139
;CC2500_B1.c: 139: temp2 = CC2500_rfSettings[loop_c];
	movf	(CC2500_InitSetREG@loop_c),w
	addlw	low((_CC2500_rfSettings)|8000h)
	movwf	fsr0l
	movlw	high((_CC2500_rfSettings)|8000h)
	skipnc
	addlw	1
	movwf	fsr0h
	movf	indf0,w ;code access
	movwf	(??_CC2500_InitSetREG+0)+0
	movf	(??_CC2500_InitSetREG+0)+0,w
	movwf	(CC2500_InitSetREG@temp2)
	line	141
	
l2801:	
;CC2500_B1.c: 141: CC2500_WriteREG(temp1,temp2);
	movf	(CC2500_InitSetREG@temp2),w
	movwf	(??_CC2500_InitSetREG+0)+0
	movf	(??_CC2500_InitSetREG+0)+0,w
	movwf	(CC2500_WriteREG@value)
	movf	(CC2500_InitSetREG@temp1),w
	fcall	_CC2500_WriteREG
	line	136
	
l2803:	
	movlw	(01h)
	movlb 0	; select bank0
	movwf	(??_CC2500_InitSetREG+0)+0
	movf	(??_CC2500_InitSetREG+0)+0,w
	addwf	(CC2500_InitSetREG@loop_c),f
	
l2805:	
	movlw	(02Fh)
	subwf	(CC2500_InitSetREG@loop_c),w
	skipc
	goto	u2741
	goto	u2740
u2741:
	goto	l2799
u2740:
	goto	l147
	
l146:	
	line	143
	
l147:	
	return
	opt stack 0
GLOBAL	__end_of_CC2500_InitSetREG
	__end_of_CC2500_InitSetREG:
	signat	_CC2500_InitSetREG,88
	global	_CC2500_InitPATable

;; *************** function _CC2500_InitPATable *****************
;; Defined at:
;;		line 147 in file "C:\Users\Eric\Documents\GitHub\myPicCode\Source_File\CC2500_B1.c"
;; Parameters:    Size  Location     Type
;;		None
;; Auto vars:     Size  Location     Type
;;  loop_d          1    7[BANK0 ] unsigned char 
;;  temp            1    6[BANK0 ] unsigned char 
;; Return value:  Size  Location     Type
;;		None               void
;; Registers used:
;;		wreg, fsr0l, fsr0h, status,2, status,0, pclath, cstack
;; Tracked objects:
;;		On entry : 0/0
;;		On exit  : 0/0
;;		Unchanged: 0/0
;; Data sizes:     COMMON   BANK0   BANK1   BANK2   BANK3   BANK4   BANK5   BANK6
;;      Params:         0       0       0       0       0       0       0       0
;;      Locals:         0       2       0       0       0       0       0       0
;;      Temps:          0       1       0       0       0       0       0       0
;;      Totals:         0       3       0       0       0       0       0       0
;;Total ram usage:        3 bytes
;; Hardware stack levels used:    1
;; Hardware stack levels required when called:    6
;; This function calls:
;;		_CC2500_WriteREG
;; This function is called by:
;;		_CC2500_PowerOnInitial
;; This function uses a non-reentrant model
;;
psect	text28,local,class=CODE,delta=2,merge=1
	line	147
global __ptext28
__ptext28:	;psect for function _CC2500_InitPATable
psect	text28
	file	"C:\Users\Eric\Documents\GitHub\myPicCode\Source_File\CC2500_B1.c"
	line	147
	global	__size_of_CC2500_InitPATable
	__size_of_CC2500_InitPATable	equ	__end_of_CC2500_InitPATable-_CC2500_InitPATable
	
_CC2500_InitPATable:	
;incstack = 0
	opt	stack 8
; Regs used in _CC2500_InitPATable: [wreg-fsr0h+status,2+status,0+pclath+cstack]
	line	152
	
l2807:	
;CC2500_B1.c: 149: unsigned char loop_d;
;CC2500_B1.c: 150: unsigned char temp;
;CC2500_B1.c: 152: for(loop_d=0;loop_d<8;loop_d++)
	movlb 0	; select bank0
	clrf	(CC2500_InitPATable@loop_d)
	
l2809:	
	movlw	(08h)
	subwf	(CC2500_InitPATable@loop_d),w
	skipc
	goto	u2751
	goto	u2750
u2751:
	goto	l2813
u2750:
	goto	l152
	
l2811:	
	goto	l152
	line	153
	
l150:	
	line	154
	
l2813:	
;CC2500_B1.c: 153: {
;CC2500_B1.c: 154: temp=CC2500_patable_vaule[loop_d];
	movf	(CC2500_InitPATable@loop_d),w
	addlw	low((_CC2500_patable_vaule)|8000h)
	movwf	fsr0l
	movlw	high((_CC2500_patable_vaule)|8000h)
	skipnc
	addlw	1
	movwf	fsr0h
	movf	indf0,w ;code access
	movwf	(??_CC2500_InitPATable+0)+0
	movf	(??_CC2500_InitPATable+0)+0,w
	movwf	(CC2500_InitPATable@temp)
	line	155
	
l2815:	
;CC2500_B1.c: 155: CC2500_WriteREG(0x3E,temp);
	movf	(CC2500_InitPATable@temp),w
	movwf	(??_CC2500_InitPATable+0)+0
	movf	(??_CC2500_InitPATable+0)+0,w
	movwf	(CC2500_WriteREG@value)
	movlw	(03Eh)
	fcall	_CC2500_WriteREG
	line	152
	
l2817:	
	movlw	(01h)
	movlb 0	; select bank0
	movwf	(??_CC2500_InitPATable+0)+0
	movf	(??_CC2500_InitPATable+0)+0,w
	addwf	(CC2500_InitPATable@loop_d),f
	
l2819:	
	movlw	(08h)
	subwf	(CC2500_InitPATable@loop_d),w
	skipc
	goto	u2761
	goto	u2760
u2761:
	goto	l2813
u2760:
	goto	l152
	
l151:	
	line	157
	
l152:	
	return
	opt stack 0
GLOBAL	__end_of_CC2500_InitPATable
	__end_of_CC2500_InitPATable:
	signat	_CC2500_InitPATable,88
	global	_CC2500_WriteREG

;; *************** function _CC2500_WriteREG *****************
;; Defined at:
;;		line 227 in file "C:\Users\Eric\Documents\GitHub\myPicCode\Source_File\CC2500_B1.c"
;; Parameters:    Size  Location     Type
;;  w_addr          1    wreg     unsigned char 
;;  value           1    2[BANK0 ] unsigned char 
;; Auto vars:     Size  Location     Type
;;  w_addr          1    4[BANK0 ] unsigned char 
;; Return value:  Size  Location     Type
;;		None               void
;; Registers used:
;;		wreg, status,2, status,0, pclath, cstack
;; Tracked objects:
;;		On entry : 0/0
;;		On exit  : 0/0
;;		Unchanged: 0/0
;; Data sizes:     COMMON   BANK0   BANK1   BANK2   BANK3   BANK4   BANK5   BANK6
;;      Params:         0       1       0       0       0       0       0       0
;;      Locals:         0       1       0       0       0       0       0       0
;;      Temps:          0       1       0       0       0       0       0       0
;;      Totals:         0       3       0       0       0       0       0       0
;;Total ram usage:        3 bytes
;; Hardware stack levels used:    1
;; Hardware stack levels required when called:    5
;; This function calls:
;;		_CC2500_WriteByte
;; This function is called by:
;;		_CC2500_InitSetREG
;;		_CC2500_InitPATable
;; This function uses a non-reentrant model
;;
psect	text29,local,class=CODE,delta=2,merge=1
	line	227
global __ptext29
__ptext29:	;psect for function _CC2500_WriteREG
psect	text29
	file	"C:\Users\Eric\Documents\GitHub\myPicCode\Source_File\CC2500_B1.c"
	line	227
	global	__size_of_CC2500_WriteREG
	__size_of_CC2500_WriteREG	equ	__end_of_CC2500_WriteREG-_CC2500_WriteREG
	
_CC2500_WriteREG:	
;incstack = 0
	opt	stack 8
; Regs used in _CC2500_WriteREG: [wreg+status,2+status,0+pclath+cstack]
;CC2500_WriteREG@w_addr stored from wreg
	movlb 0	; select bank0
	movwf	(CC2500_WriteREG@w_addr)
	line	229
	
l2715:	
;CC2500_B1.c: 229: RB5=0;
	bcf	(109/8),(109)&7	;volatile
	line	230
	
l2717:	
;CC2500_B1.c: 230: SPI0Buffer=w_addr;
	movf	(CC2500_WriteREG@w_addr),w
	movwf	(??_CC2500_WriteREG+0)+0
	movf	(??_CC2500_WriteREG+0)+0,w
	movwf	(_SPI0Buffer)
	line	231
;CC2500_B1.c: 231: while(RB3==1);
	goto	l181
	
l182:	
	
l181:	
	btfsc	(107/8),(107)&7	;volatile
	goto	u2631
	goto	u2630
u2631:
	goto	l181
u2630:
	goto	l2719
	
l183:	
	line	232
	
l2719:	
;CC2500_B1.c: 232: CC2500_WriteByte();
	fcall	_CC2500_WriteByte
	line	233
	
l2721:	
;CC2500_B1.c: 233: SPI0Buffer=value;
	movlb 0	; select bank0
	movf	(CC2500_WriteREG@value),w
	movwf	(??_CC2500_WriteREG+0)+0
	movf	(??_CC2500_WriteREG+0)+0,w
	movwf	(_SPI0Buffer)
	line	234
	
l2723:	
;CC2500_B1.c: 234: CC2500_WriteByte();
	fcall	_CC2500_WriteByte
	line	235
	
l2725:	
;CC2500_B1.c: 235: RB5=1;
	movlb 0	; select bank0
	bsf	(109/8),(109)&7	;volatile
	line	236
	
l184:	
	return
	opt stack 0
GLOBAL	__end_of_CC2500_WriteREG
	__end_of_CC2500_WriteREG:
	signat	_CC2500_WriteREG,8312
	global	_CC2500_FrequencyCabr

;; *************** function _CC2500_FrequencyCabr *****************
;; Defined at:
;;		line 175 in file "C:\Users\Eric\Documents\GitHub\myPicCode\Source_File\CC2500_B1.c"
;; Parameters:    Size  Location     Type
;;		None
;; Auto vars:     Size  Location     Type
;;		None
;; Return value:  Size  Location     Type
;;		None               void
;; Registers used:
;;		wreg, status,2, status,0, pclath, cstack
;; Tracked objects:
;;		On entry : 0/0
;;		On exit  : 0/0
;;		Unchanged: 0/0
;; Data sizes:     COMMON   BANK0   BANK1   BANK2   BANK3   BANK4   BANK5   BANK6
;;      Params:         0       0       0       0       0       0       0       0
;;      Locals:         0       0       0       0       0       0       0       0
;;      Temps:          0       0       0       0       0       0       0       0
;;      Totals:         0       0       0       0       0       0       0       0
;;Total ram usage:        0 bytes
;; Hardware stack levels used:    1
;; Hardware stack levels required when called:    6
;; This function calls:
;;		_CC2500_WriteCommand
;;		_DelayTime_1us
;; This function is called by:
;;		_CC2500_PowerOnInitial
;; This function uses a non-reentrant model
;;
psect	text30,local,class=CODE,delta=2,merge=1
	line	175
global __ptext30
__ptext30:	;psect for function _CC2500_FrequencyCabr
psect	text30
	file	"C:\Users\Eric\Documents\GitHub\myPicCode\Source_File\CC2500_B1.c"
	line	175
	global	__size_of_CC2500_FrequencyCabr
	__size_of_CC2500_FrequencyCabr	equ	__end_of_CC2500_FrequencyCabr-_CC2500_FrequencyCabr
	
_CC2500_FrequencyCabr:	
;incstack = 0
	opt	stack 8
; Regs used in _CC2500_FrequencyCabr: [wreg+status,2+status,0+pclath+cstack]
	line	177
	
l2825:	
;CC2500_B1.c: 177: CC2500_WriteCommand(0x33);
	movlw	(033h)
	fcall	_CC2500_WriteCommand
	line	178
;CC2500_B1.c: 178: DelayTime_1us(1000);
	movlw	low(03E8h)
	movlb 0	; select bank0
	movwf	(DelayTime_1us@count)
	movlw	high(03E8h)
	movwf	((DelayTime_1us@count))+1
	fcall	_DelayTime_1us
	line	179
	
l161:	
	return
	opt stack 0
GLOBAL	__end_of_CC2500_FrequencyCabr
	__end_of_CC2500_FrequencyCabr:
	signat	_CC2500_FrequencyCabr,88
	global	_DelayTime_1us

;; *************** function _DelayTime_1us *****************
;; Defined at:
;;		line 283 in file "C:\Users\Eric\Documents\GitHub\myPicCode\Source_File\CC2500_B1.c"
;; Parameters:    Size  Location     Type
;;  count           2    0[BANK0 ] int 
;; Auto vars:     Size  Location     Type
;;  j               2    4[BANK0 ] unsigned int 
;;  i               2    2[BANK0 ] unsigned int 
;; Return value:  Size  Location     Type
;;		None               void
;; Registers used:
;;		wreg, status,2
;; Tracked objects:
;;		On entry : 0/0
;;		On exit  : 0/0
;;		Unchanged: 0/0
;; Data sizes:     COMMON   BANK0   BANK1   BANK2   BANK3   BANK4   BANK5   BANK6
;;      Params:         0       2       0       0       0       0       0       0
;;      Locals:         0       4       0       0       0       0       0       0
;;      Temps:          0       0       0       0       0       0       0       0
;;      Totals:         0       6       0       0       0       0       0       0
;;Total ram usage:        6 bytes
;; Hardware stack levels used:    1
;; Hardware stack levels required when called:    4
;; This function calls:
;;		Nothing
;; This function is called by:
;;		_CC2500_PowerRST
;;		_CC2500_FrequencyCabr
;; This function uses a non-reentrant model
;;
psect	text31,local,class=CODE,delta=2,merge=1
	line	283
global __ptext31
__ptext31:	;psect for function _DelayTime_1us
psect	text31
	file	"C:\Users\Eric\Documents\GitHub\myPicCode\Source_File\CC2500_B1.c"
	line	283
	global	__size_of_DelayTime_1us
	__size_of_DelayTime_1us	equ	__end_of_DelayTime_1us-_DelayTime_1us
	
_DelayTime_1us:	
;incstack = 0
	opt	stack 9
; Regs used in _DelayTime_1us: [wreg+status,2]
	line	286
	
l2703:	
;CC2500_B1.c: 285: unsigned int i,j;
;CC2500_B1.c: 286: for(i=1;i<count;i++)
	movlw	low(01h)
	movlb 0	; select bank0
	movwf	(DelayTime_1us@i)
	movlw	high(01h)
	movwf	((DelayTime_1us@i))+1
	goto	l205
	line	287
	
l206:	
	
l2705:	
;CC2500_B1.c: 287: for(j=0;j<=1;j++);
	clrf	(DelayTime_1us@j)
	clrf	(DelayTime_1us@j+1)
	
l2707:	
	movlw	high(02h)
	subwf	(DelayTime_1us@j+1),w
	movlw	low(02h)
	skipnz
	subwf	(DelayTime_1us@j),w
	skipc
	goto	u2601
	goto	u2600
u2601:
	goto	l2711
u2600:
	goto	l2713
	
l2709:	
	goto	l2713
	
l207:	
	
l2711:	
	movlw	low(01h)
	addwf	(DelayTime_1us@j),f
	movlw	high(01h)
	addwfc	(DelayTime_1us@j+1),f
	movlw	high(02h)
	subwf	(DelayTime_1us@j+1),w
	movlw	low(02h)
	skipnz
	subwf	(DelayTime_1us@j),w
	skipc
	goto	u2611
	goto	u2610
u2611:
	goto	l2711
u2610:
	goto	l2713
	
l208:	
	line	286
	
l2713:	
	movlw	low(01h)
	addwf	(DelayTime_1us@i),f
	movlw	high(01h)
	addwfc	(DelayTime_1us@i+1),f
	
l205:	
	movf	(DelayTime_1us@count+1),w
	subwf	(DelayTime_1us@i+1),w
	skipz
	goto	u2625
	movf	(DelayTime_1us@count),w
	subwf	(DelayTime_1us@i),w
u2625:
	skipc
	goto	u2621
	goto	u2620
u2621:
	goto	l2705
u2620:
	goto	l210
	
l209:	
	line	288
	
l210:	
	return
	opt stack 0
GLOBAL	__end_of_DelayTime_1us
	__end_of_DelayTime_1us:
	signat	_DelayTime_1us,4216
	global	_CC2500_ClearTXFIFO

;; *************** function _CC2500_ClearTXFIFO *****************
;; Defined at:
;;		line 161 in file "C:\Users\Eric\Documents\GitHub\myPicCode\Source_File\CC2500_B1.c"
;; Parameters:    Size  Location     Type
;;		None
;; Auto vars:     Size  Location     Type
;;		None
;; Return value:  Size  Location     Type
;;		None               void
;; Registers used:
;;		wreg, status,2, status,0, pclath, cstack
;; Tracked objects:
;;		On entry : 0/0
;;		On exit  : 0/0
;;		Unchanged: 0/0
;; Data sizes:     COMMON   BANK0   BANK1   BANK2   BANK3   BANK4   BANK5   BANK6
;;      Params:         0       0       0       0       0       0       0       0
;;      Locals:         0       0       0       0       0       0       0       0
;;      Temps:          0       0       0       0       0       0       0       0
;;      Totals:         0       0       0       0       0       0       0       0
;;Total ram usage:        0 bytes
;; Hardware stack levels used:    1
;; Hardware stack levels required when called:    6
;; This function calls:
;;		_CC2500_WriteCommand
;; This function is called by:
;;		_CC2500_PowerOnInitial
;; This function uses a non-reentrant model
;;
psect	text32,local,class=CODE,delta=2,merge=1
	line	161
global __ptext32
__ptext32:	;psect for function _CC2500_ClearTXFIFO
psect	text32
	file	"C:\Users\Eric\Documents\GitHub\myPicCode\Source_File\CC2500_B1.c"
	line	161
	global	__size_of_CC2500_ClearTXFIFO
	__size_of_CC2500_ClearTXFIFO	equ	__end_of_CC2500_ClearTXFIFO-_CC2500_ClearTXFIFO
	
_CC2500_ClearTXFIFO:	
;incstack = 0
	opt	stack 8
; Regs used in _CC2500_ClearTXFIFO: [wreg+status,2+status,0+pclath+cstack]
	line	163
	
l2821:	
;CC2500_B1.c: 163: CC2500_WriteCommand(0x3B);
	movlw	(03Bh)
	fcall	_CC2500_WriteCommand
	line	164
	
l155:	
	return
	opt stack 0
GLOBAL	__end_of_CC2500_ClearTXFIFO
	__end_of_CC2500_ClearTXFIFO:
	signat	_CC2500_ClearTXFIFO,88
	global	_CC2500_ClearRXFIFO

;; *************** function _CC2500_ClearRXFIFO *****************
;; Defined at:
;;		line 168 in file "C:\Users\Eric\Documents\GitHub\myPicCode\Source_File\CC2500_B1.c"
;; Parameters:    Size  Location     Type
;;		None
;; Auto vars:     Size  Location     Type
;;		None
;; Return value:  Size  Location     Type
;;		None               void
;; Registers used:
;;		wreg, status,2, status,0, pclath, cstack
;; Tracked objects:
;;		On entry : 0/0
;;		On exit  : 0/0
;;		Unchanged: 0/0
;; Data sizes:     COMMON   BANK0   BANK1   BANK2   BANK3   BANK4   BANK5   BANK6
;;      Params:         0       0       0       0       0       0       0       0
;;      Locals:         0       0       0       0       0       0       0       0
;;      Temps:          0       0       0       0       0       0       0       0
;;      Totals:         0       0       0       0       0       0       0       0
;;Total ram usage:        0 bytes
;; Hardware stack levels used:    1
;; Hardware stack levels required when called:    6
;; This function calls:
;;		_CC2500_WriteCommand
;; This function is called by:
;;		_CC2500_PowerOnInitial
;; This function uses a non-reentrant model
;;
psect	text33,local,class=CODE,delta=2,merge=1
	line	168
global __ptext33
__ptext33:	;psect for function _CC2500_ClearRXFIFO
psect	text33
	file	"C:\Users\Eric\Documents\GitHub\myPicCode\Source_File\CC2500_B1.c"
	line	168
	global	__size_of_CC2500_ClearRXFIFO
	__size_of_CC2500_ClearRXFIFO	equ	__end_of_CC2500_ClearRXFIFO-_CC2500_ClearRXFIFO
	
_CC2500_ClearRXFIFO:	
;incstack = 0
	opt	stack 8
; Regs used in _CC2500_ClearRXFIFO: [wreg+status,2+status,0+pclath+cstack]
	line	170
	
l2823:	
;CC2500_B1.c: 170: CC2500_WriteCommand(0x3A);
	movlw	(03Ah)
	fcall	_CC2500_WriteCommand
	line	171
	
l158:	
	return
	opt stack 0
GLOBAL	__end_of_CC2500_ClearRXFIFO
	__end_of_CC2500_ClearRXFIFO:
	signat	_CC2500_ClearRXFIFO,88
	global	_CC2500_WriteCommand

;; *************** function _CC2500_WriteCommand *****************
;; Defined at:
;;		line 253 in file "C:\Users\Eric\Documents\GitHub\myPicCode\Source_File\CC2500_B1.c"
;; Parameters:    Size  Location     Type
;;  command         1    wreg     unsigned char 
;; Auto vars:     Size  Location     Type
;;  command         1    3[BANK0 ] unsigned char 
;; Return value:  Size  Location     Type
;;		None               void
;; Registers used:
;;		wreg, status,2, status,0, pclath, cstack
;; Tracked objects:
;;		On entry : 0/0
;;		On exit  : 0/0
;;		Unchanged: 0/0
;; Data sizes:     COMMON   BANK0   BANK1   BANK2   BANK3   BANK4   BANK5   BANK6
;;      Params:         0       0       0       0       0       0       0       0
;;      Locals:         0       1       0       0       0       0       0       0
;;      Temps:          0       1       0       0       0       0       0       0
;;      Totals:         0       2       0       0       0       0       0       0
;;Total ram usage:        2 bytes
;; Hardware stack levels used:    1
;; Hardware stack levels required when called:    5
;; This function calls:
;;		_CC2500_WriteByte
;; This function is called by:
;;		_CC2500_TxData
;;		_CC2500_RxData
;;		_CC2500_ClearTXFIFO
;;		_CC2500_ClearRXFIFO
;;		_CC2500_FrequencyCabr
;;		_CC2500_SIDLEMode
;;		_setRF_Main
;;		_RF_RxDisable
;; This function uses a non-reentrant model
;;
psect	text34,local,class=CODE,delta=2,merge=1
	line	253
global __ptext34
__ptext34:	;psect for function _CC2500_WriteCommand
psect	text34
	file	"C:\Users\Eric\Documents\GitHub\myPicCode\Source_File\CC2500_B1.c"
	line	253
	global	__size_of_CC2500_WriteCommand
	__size_of_CC2500_WriteCommand	equ	__end_of_CC2500_WriteCommand-_CC2500_WriteCommand
	
_CC2500_WriteCommand:	
;incstack = 0
	opt	stack 7
; Regs used in _CC2500_WriteCommand: [wreg+status,2+status,0+pclath+cstack]
;CC2500_WriteCommand@command stored from wreg
	movlb 0	; select bank0
	movwf	(CC2500_WriteCommand@command)
	line	255
	
l2609:	
;CC2500_B1.c: 255: RB5=0;
	bcf	(109/8),(109)&7	;volatile
	line	256
	
l2611:	
;CC2500_B1.c: 256: SPI0Buffer=command;
	movf	(CC2500_WriteCommand@command),w
	movwf	(??_CC2500_WriteCommand+0)+0
	movf	(??_CC2500_WriteCommand+0)+0,w
	movwf	(_SPI0Buffer)
	line	258
;CC2500_B1.c: 258: while(RB3==1);
	goto	l193
	
l194:	
	
l193:	
	btfsc	(107/8),(107)&7	;volatile
	goto	u2461
	goto	u2460
u2461:
	goto	l193
u2460:
	goto	l2613
	
l195:	
	line	260
	
l2613:	
;CC2500_B1.c: 260: CC2500_WriteByte();
	fcall	_CC2500_WriteByte
	line	261
	
l2615:	
;CC2500_B1.c: 261: RB5=1;
	movlb 0	; select bank0
	bsf	(109/8),(109)&7	;volatile
	line	263
	
l196:	
	return
	opt stack 0
GLOBAL	__end_of_CC2500_WriteCommand
	__end_of_CC2500_WriteCommand:
	signat	_CC2500_WriteCommand,4216
	global	_CC2500_WriteByte

;; *************** function _CC2500_WriteByte *****************
;; Defined at:
;;		line 193 in file "C:\Users\Eric\Documents\GitHub\myPicCode\Source_File\CC2500_B1.c"
;; Parameters:    Size  Location     Type
;;		None
;; Auto vars:     Size  Location     Type
;;  loop_a          1    1[BANK0 ] unsigned char 
;; Return value:  Size  Location     Type
;;		None               void
;; Registers used:
;;		wreg, status,2, status,0
;; Tracked objects:
;;		On entry : 0/0
;;		On exit  : 0/0
;;		Unchanged: 0/0
;; Data sizes:     COMMON   BANK0   BANK1   BANK2   BANK3   BANK4   BANK5   BANK6
;;      Params:         0       0       0       0       0       0       0       0
;;      Locals:         0       1       0       0       0       0       0       0
;;      Temps:          0       1       0       0       0       0       0       0
;;      Totals:         0       2       0       0       0       0       0       0
;;Total ram usage:        2 bytes
;; Hardware stack levels used:    1
;; Hardware stack levels required when called:    4
;; This function calls:
;;		Nothing
;; This function is called by:
;;		_CC2500_TxData
;;		_CC2500_RxData
;;		_CC2500_PowerRST
;;		_CC2500_WriteREG
;;		_CC2500_WriteCommand
;;		_CC2500_ReadStatus
;;		_CC2500_ReadREG
;; This function uses a non-reentrant model
;;
psect	text35,local,class=CODE,delta=2,merge=1
	line	193
global __ptext35
__ptext35:	;psect for function _CC2500_WriteByte
psect	text35
	file	"C:\Users\Eric\Documents\GitHub\myPicCode\Source_File\CC2500_B1.c"
	line	193
	global	__size_of_CC2500_WriteByte
	__size_of_CC2500_WriteByte	equ	__end_of_CC2500_WriteByte-_CC2500_WriteByte
	
_CC2500_WriteByte:	
;incstack = 0
	opt	stack 7
; Regs used in _CC2500_WriteByte: [wreg+status,2+status,0]
	line	196
	
l2571:	
;CC2500_B1.c: 195: unsigned char loop_a;
;CC2500_B1.c: 196: for(loop_a=0;loop_a<8;loop_a++)
	movlb 0	; select bank0
	clrf	(CC2500_WriteByte@loop_a)
	
l2573:	
	movlw	(08h)
	subwf	(CC2500_WriteByte@loop_a),w
	skipc
	goto	u2391
	goto	u2390
u2391:
	goto	l167
u2390:
	goto	l171
	
l2575:	
	goto	l171
	line	197
	
l167:	
	line	198
;CC2500_B1.c: 197: {
;CC2500_B1.c: 198: if(SPI0Buffer&0x80)
	btfss	(_SPI0Buffer),(7)&7
	goto	u2401
	goto	u2400
u2401:
	goto	l169
u2400:
	line	199
	
l2577:	
;CC2500_B1.c: 199: RB1=1;
	bsf	(105/8),(105)&7	;volatile
	goto	l170
	line	200
	
l169:	
	line	201
;CC2500_B1.c: 200: else
;CC2500_B1.c: 201: RB1=0;
	bcf	(105/8),(105)&7	;volatile
	
l170:	
	line	202
;CC2500_B1.c: 202: RB2=1;
	bsf	(106/8),(106)&7	;volatile
	line	203
	
l2579:	
;CC2500_B1.c: 203: SPI0Buffer<<=1;
	clrc
	rlf	(_SPI0Buffer),f

	line	204
	
l2581:	
;CC2500_B1.c: 204: RB2=0;
	bcf	(106/8),(106)&7	;volatile
	line	196
	
l2583:	
	movlw	(01h)
	movwf	(??_CC2500_WriteByte+0)+0
	movf	(??_CC2500_WriteByte+0)+0,w
	addwf	(CC2500_WriteByte@loop_a),f
	
l2585:	
	movlw	(08h)
	subwf	(CC2500_WriteByte@loop_a),w
	skipc
	goto	u2411
	goto	u2410
u2411:
	goto	l167
u2410:
	goto	l171
	
l168:	
	line	206
	
l171:	
	return
	opt stack 0
GLOBAL	__end_of_CC2500_WriteByte
	__end_of_CC2500_WriteByte:
	signat	_CC2500_WriteByte,88
	global	_ISR

;; *************** function _ISR *****************
;; Defined at:
;;		line 56 in file "C:\Users\Eric\Documents\GitHub\myPicCode\Source_File\MCU_16f1516_B1.c"
;; Parameters:    Size  Location     Type
;;		None
;; Auto vars:     Size  Location     Type
;;		None
;; Return value:  Size  Location     Type
;;		None               void
;; Registers used:
;;		wreg, fsr1l, fsr1h, status,2, status,0, pclath, cstack
;; Tracked objects:
;;		On entry : 0/0
;;		On exit  : 0/0
;;		Unchanged: 0/0
;; Data sizes:     COMMON   BANK0   BANK1   BANK2   BANK3   BANK4   BANK5   BANK6
;;      Params:         0       0       0       0       0       0       0       0
;;      Locals:         0       0       0       0       0       0       0       0
;;      Temps:          1       0       0       0       0       0       0       0
;;      Totals:         1       0       0       0       0       0       0       0
;;Total ram usage:        1 bytes
;; Hardware stack levels used:    1
;; Hardware stack levels required when called:    3
;; This function calls:
;;		_I2C_ISR
;;		_INT_ISR
;;		_TMR1_ISR
;; This function is called by:
;;		Interrupt level 1
;; This function uses a non-reentrant model
;;
psect	intentry,class=CODE,delta=2
global __pintentry
__pintentry:
psect	intentry
	file	"C:\Users\Eric\Documents\GitHub\myPicCode\Source_File\MCU_16f1516_B1.c"
	line	56
	global	__size_of_ISR
	__size_of_ISR	equ	__end_of_ISR-_ISR
	
_ISR:	
;incstack = 0
	opt	stack 7
; Regs used in _ISR: [wreg+fsr1l+fsr1h+status,2+status,0+pclath+cstack]
psect	intentry
	bsf	pic14e$flags,0 ;set compiler interrupt flag
	pagesel	$
	movlb 0	; select bank0
	movf	btemp+1,w
	movwf	(??_ISR+0)
	line	58
	
i1l2417:	
;MCU_16f1516_B1.c: 58: __nop();
	opt	asmopt_off
	nop
	opt	asmopt_on
	line	60
;MCU_16f1516_B1.c: 60: __nop();
	opt	asmopt_off
	nop
	opt	asmopt_on
	line	62
	
i1l2419:	
;MCU_16f1516_B1.c: 62: TMR1_ISR();
	fcall	_TMR1_ISR
	line	66
;MCU_16f1516_B1.c: 66: INT_ISR();
	fcall	_INT_ISR
	line	70
;MCU_16f1516_B1.c: 68: ;;
;MCU_16f1516_B1.c: 70: I2C_ISR();
	fcall	_I2C_ISR
	line	71
	
i1l389:	
	movf	(??_ISR+0),w
	movlb 0	; select bank0
	movwf	btemp+1
	bcf	pic14e$flags,0 ;clear compiler interrupt flag
	retfie
	opt stack 0
GLOBAL	__end_of_ISR
	__end_of_ISR:
	signat	_ISR,88
	global	_TMR1_ISR

;; *************** function _TMR1_ISR *****************
;; Defined at:
;;		line 125 in file "C:\Users\Eric\Documents\GitHub\myPicCode\Source_File\MCU_16f1516_B1.c"
;; Parameters:    Size  Location     Type
;;		None
;; Auto vars:     Size  Location     Type
;;		None
;; Return value:  Size  Location     Type
;;		None               void
;; Registers used:
;;		wreg, fsr1l, fsr1h, status,2, status,0
;; Tracked objects:
;;		On entry : 0/0
;;		On exit  : 0/0
;;		Unchanged: 0/0
;; Data sizes:     COMMON   BANK0   BANK1   BANK2   BANK3   BANK4   BANK5   BANK6
;;      Params:         0       0       0       0       0       0       0       0
;;      Locals:         0       0       0       0       0       0       0       0
;;      Temps:          0       0       0       0       0       0       0       0
;;      Totals:         0       0       0       0       0       0       0       0
;;Total ram usage:        0 bytes
;; Hardware stack levels used:    1
;; This function calls:
;;		Nothing
;; This function is called by:
;;		_ISR
;; This function uses a non-reentrant model
;;
psect	text37,local,class=CODE,delta=2,merge=1
	line	125
global __ptext37
__ptext37:	;psect for function _TMR1_ISR
psect	text37
	file	"C:\Users\Eric\Documents\GitHub\myPicCode\Source_File\MCU_16f1516_B1.c"
	line	125
	global	__size_of_TMR1_ISR
	__size_of_TMR1_ISR	equ	__end_of_TMR1_ISR-_TMR1_ISR
	
_TMR1_ISR:	
;incstack = 0
	opt	stack 9
; Regs used in _TMR1_ISR: [wreg+fsr1l+fsr1h+status,2+status,0]
	line	127
	
i1l2305:	
;MCU_16f1516_B1.c: 127: if(TMR1IE && TMR1IF)
	movlb 1	; select bank1
	btfss	(1160/8)^080h,(1160)&7	;volatile
	goto	u175_21
	goto	u175_20
u175_21:
	goto	i1l397
u175_20:
	
i1l2307:	
	movlb 0	; select bank0
	btfss	(136/8),(136)&7	;volatile
	goto	u176_21
	goto	u176_20
u176_21:
	goto	i1l397
u176_20:
	line	129
	
i1l2309:	
;MCU_16f1516_B1.c: 128: {
;MCU_16f1516_B1.c: 129: TMR1H=((65536-700)/256);
	movlw	(0FDh)
	movwf	(23)	;volatile
	line	130
;MCU_16f1516_B1.c: 130: TMR1L=((65536-700)%256);
	movlw	(044h)
	movwf	(22)	;volatile
	line	131
	
i1l2311:	
;MCU_16f1516_B1.c: 131: TMR1IF=0;
	bcf	(136/8),(136)&7	;volatile
	line	132
	
i1l2313:	
;MCU_16f1516_B1.c: 132: Timer1->Count++;
	incf	(_Timer1),w
	movwf	fsr1l
	clrf fsr1h	
	
	movlw	01h
	addwf	indf1,f
	addfsr	fsr1,1
	skipnc
	incf	indf1,f
	line	133
	
i1l2315:	
;MCU_16f1516_B1.c: 133: if(Timer1->Count == 20)
	incf	(_Timer1),w
	movwf	fsr1l
	clrf fsr1h	
	
	moviw	[0]fsr1
	xorlw	low(014h)
	skipz
	goto	u177_25
	moviw	[1]fsr1
	xorlw	high(014h)
u177_25:
	skipz
	goto	u177_21
	goto	u177_20
u177_21:
	goto	i1l397
u177_20:
	line	135
	
i1l2317:	
;MCU_16f1516_B1.c: 134: {
;MCU_16f1516_B1.c: 135: Timer1->Count=0;
	incf	(_Timer1),w
	movwf	fsr1l
	clrf fsr1h	
	
	movlw	0
	movwi	[0]fsr1
	movwi	[1]fsr1
	line	136
;MCU_16f1516_B1.c: 136: TMain->T1_Timerout=1;
	movf	(_TMain),w
	movwf	fsr1l
	clrf fsr1h	
	
	bsf	indf1,2
	goto	i1l397
	line	137
	
i1l396:	
	goto	i1l397
	line	138
	
i1l395:	
	line	139
	
i1l397:	
	return
	opt stack 0
GLOBAL	__end_of_TMR1_ISR
	__end_of_TMR1_ISR:
	signat	_TMR1_ISR,88
	global	_INT_ISR

;; *************** function _INT_ISR *****************
;; Defined at:
;;		line 156 in file "C:\Users\Eric\Documents\GitHub\myPicCode\Source_File\MCU_16f1516_B1.c"
;; Parameters:    Size  Location     Type
;;		None
;; Auto vars:     Size  Location     Type
;;		None
;; Return value:  Size  Location     Type
;;		None               void
;; Registers used:
;;		wreg, fsr1l, fsr1h, status,2, status,0, pclath, cstack
;; Tracked objects:
;;		On entry : 0/0
;;		On exit  : 0/0
;;		Unchanged: 0/0
;; Data sizes:     COMMON   BANK0   BANK1   BANK2   BANK3   BANK4   BANK5   BANK6
;;      Params:         0       0       0       0       0       0       0       0
;;      Locals:         0       0       0       0       0       0       0       0
;;      Temps:          0       0       0       0       0       0       0       0
;;      Totals:         0       0       0       0       0       0       0       0
;;Total ram usage:        0 bytes
;; Hardware stack levels used:    1
;; Hardware stack levels required when called:    2
;; This function calls:
;;		_setRF_ReceiveGO
;; This function is called by:
;;		_ISR
;; This function uses a non-reentrant model
;;
psect	text38,local,class=CODE,delta=2,merge=1
	line	156
global __ptext38
__ptext38:	;psect for function _INT_ISR
psect	text38
	file	"C:\Users\Eric\Documents\GitHub\myPicCode\Source_File\MCU_16f1516_B1.c"
	line	156
	global	__size_of_INT_ISR
	__size_of_INT_ISR	equ	__end_of_INT_ISR-_INT_ISR
	
_INT_ISR:	
;incstack = 0
	opt	stack 7
; Regs used in _INT_ISR: [wreg+fsr1l+fsr1h+status,2+status,0+pclath+cstack]
	line	158
	
i1l2319:	
;MCU_16f1516_B1.c: 158: if(INTE && INTF)
	btfss	(92/8),(92)&7	;volatile
	goto	u178_21
	goto	u178_20
u178_21:
	goto	i1l404
u178_20:
	
i1l2321:	
	btfss	(89/8),(89)&7	;volatile
	goto	u179_21
	goto	u179_20
u179_21:
	goto	i1l404
u179_20:
	line	160
	
i1l2323:	
;MCU_16f1516_B1.c: 159: {
;MCU_16f1516_B1.c: 160: INTF=0;
	bcf	(89/8),(89)&7	;volatile
	line	161
;MCU_16f1516_B1.c: 161: INTE=0;
	bcf	(92/8),(92)&7	;volatile
	line	162
	
i1l2325:	
;MCU_16f1516_B1.c: 162: setRF_ReceiveGO(1,1);
	clrf	(setRF_ReceiveGO@command)
	incf	(setRF_ReceiveGO@command),f
	movlw	(01h)
	fcall	_setRF_ReceiveGO
	goto	i1l404
	line	163
	
i1l403:	
	line	164
	
i1l404:	
	return
	opt stack 0
GLOBAL	__end_of_INT_ISR
	__end_of_INT_ISR:
	signat	_INT_ISR,88
	global	_setRF_ReceiveGO

;; *************** function _setRF_ReceiveGO *****************
;; Defined at:
;;		line 37 in file "C:\Users\Eric\Documents\GitHub\myPicCode\Source_File\RF_Control_B1.c"
;; Parameters:    Size  Location     Type
;;  rf              1    wreg     unsigned char 
;;  command         1    2[COMMON] unsigned char 
;; Auto vars:     Size  Location     Type
;;  rf              1    3[COMMON] unsigned char 
;; Return value:  Size  Location     Type
;;		None               void
;; Registers used:
;;		wreg, fsr1l, fsr1h, status,2, status,0, pclath, cstack
;; Tracked objects:
;;		On entry : 0/0
;;		On exit  : 0/0
;;		Unchanged: 0/0
;; Data sizes:     COMMON   BANK0   BANK1   BANK2   BANK3   BANK4   BANK5   BANK6
;;      Params:         1       0       0       0       0       0       0       0
;;      Locals:         1       0       0       0       0       0       0       0
;;      Temps:          0       0       0       0       0       0       0       0
;;      Totals:         2       0       0       0       0       0       0       0
;;Total ram usage:        2 bytes
;; Hardware stack levels used:    1
;; Hardware stack levels required when called:    1
;; This function calls:
;;		i1_RfPointSelect
;; This function is called by:
;;		_INT_ISR
;; This function uses a non-reentrant model
;;
psect	text39,local,class=CODE,delta=2,merge=1
	file	"C:\Users\Eric\Documents\GitHub\myPicCode\Source_File\RF_Control_B1.c"
	line	37
global __ptext39
__ptext39:	;psect for function _setRF_ReceiveGO
psect	text39
	file	"C:\Users\Eric\Documents\GitHub\myPicCode\Source_File\RF_Control_B1.c"
	line	37
	global	__size_of_setRF_ReceiveGO
	__size_of_setRF_ReceiveGO	equ	__end_of_setRF_ReceiveGO-_setRF_ReceiveGO
	
_setRF_ReceiveGO:	
;incstack = 0
	opt	stack 7
; Regs used in _setRF_ReceiveGO: [wreg+fsr1l+fsr1h+status,2+status,0+pclath+cstack]
;setRF_ReceiveGO@rf stored from wreg
	movwf	(setRF_ReceiveGO@rf)
	line	39
	
i1l2173:	
;RF_Control_B1.c: 39: RfPointSelect(rf);
	movf	(setRF_ReceiveGO@rf),w
	fcall	i1_RfPointSelect
	line	40
	
i1l2175:	
;RF_Control_B1.c: 40: RF->ReceiveGO=command;
	movf	(_RF),w
	movwf	fsr1l
	clrf fsr1h	
	
	movf	(setRF_ReceiveGO@command),w
	bcf	indf1,1
	skipz
	bsf	indf1,1
	line	41
	
i1l630:	
	return
	opt stack 0
GLOBAL	__end_of_setRF_ReceiveGO
	__end_of_setRF_ReceiveGO:
	signat	_setRF_ReceiveGO,8312
	global	i1_RfPointSelect

;; *************** function i1_RfPointSelect *****************
;; Defined at:
;;		line 7 in file "C:\Users\Eric\Documents\GitHub\myPicCode\Source_File\RF_Control_B1.c"
;; Parameters:    Size  Location     Type
;;  rf              1    wreg     unsigned char 
;; Auto vars:     Size  Location     Type
;;  rf              1    1[COMMON] unsigned char 
;; Return value:  Size  Location     Type
;;		None               void
;; Registers used:
;;		wreg
;; Tracked objects:
;;		On entry : 0/0
;;		On exit  : 0/0
;;		Unchanged: 0/0
;; Data sizes:     COMMON   BANK0   BANK1   BANK2   BANK3   BANK4   BANK5   BANK6
;;      Params:         0       0       0       0       0       0       0       0
;;      Locals:         1       0       0       0       0       0       0       0
;;      Temps:          1       0       0       0       0       0       0       0
;;      Totals:         2       0       0       0       0       0       0       0
;;Total ram usage:        2 bytes
;; Hardware stack levels used:    1
;; This function calls:
;;		Nothing
;; This function is called by:
;;		_setRF_ReceiveGO
;; This function uses a non-reentrant model
;;
psect	text40,local,class=CODE,delta=2,merge=1
	line	7
global __ptext40
__ptext40:	;psect for function i1_RfPointSelect
psect	text40
	file	"C:\Users\Eric\Documents\GitHub\myPicCode\Source_File\RF_Control_B1.c"
	line	7
	global	__size_ofi1_RfPointSelect
	__size_ofi1_RfPointSelect	equ	__end_ofi1_RfPointSelect-i1_RfPointSelect
	
i1_RfPointSelect:	
;incstack = 0
	opt	stack 7
; Regs used in i1_RfPointSelect: [wreg]
;i1RfPointSelect@rf stored from wreg
	movwf	(i1RfPointSelect@rf)
	line	10
	
i1l2085:	
;RF_Control_B1.c: 10: if(rf == 1)
	movf	(i1RfPointSelect@rf),w
	xorlw	01h&0ffh
	skipz
	goto	u152_21
	goto	u152_20
u152_21:
	goto	i1l618
u152_20:
	line	12
	
i1l2087:	
;RF_Control_B1.c: 11: {
;RF_Control_B1.c: 12: RF=&RF1;
	movlw	(_RF1)&0ffh
	movwf	(??i1_RfPointSelect+0)+0
	movf	(??i1_RfPointSelect+0)+0,w
	movwf	(_RF)
	goto	i1l618
	line	13
	
i1l617:	
	line	15
	
i1l618:	
	return
	opt stack 0
GLOBAL	__end_ofi1_RfPointSelect
	__end_ofi1_RfPointSelect:
	signat	i1_RfPointSelect,88
	global	_I2C_ISR

;; *************** function _I2C_ISR *****************
;; Defined at:
;;		line 260 in file "C:\Users\Eric\Documents\GitHub\myPicCode\Source_File\MCU_16f1516_B1.c"
;; Parameters:    Size  Location     Type
;;		None
;; Auto vars:     Size  Location     Type
;;		None
;; Return value:  Size  Location     Type
;;		None               void
;; Registers used:
;;		wreg, fsr1l, fsr1h
;; Tracked objects:
;;		On entry : 0/0
;;		On exit  : 0/0
;;		Unchanged: 0/0
;; Data sizes:     COMMON   BANK0   BANK1   BANK2   BANK3   BANK4   BANK5   BANK6
;;      Params:         0       0       0       0       0       0       0       0
;;      Locals:         0       0       0       0       0       0       0       0
;;      Temps:          0       0       0       0       0       0       0       0
;;      Totals:         0       0       0       0       0       0       0       0
;;Total ram usage:        0 bytes
;; Hardware stack levels used:    1
;; This function calls:
;;		Nothing
;; This function is called by:
;;		_ISR
;; This function uses a non-reentrant model
;;
psect	text41,local,class=CODE,delta=2,merge=1
	file	"C:\Users\Eric\Documents\GitHub\myPicCode\Source_File\MCU_16f1516_B1.c"
	line	260
global __ptext41
__ptext41:	;psect for function _I2C_ISR
psect	text41
	file	"C:\Users\Eric\Documents\GitHub\myPicCode\Source_File\MCU_16f1516_B1.c"
	line	260
	global	__size_of_I2C_ISR
	__size_of_I2C_ISR	equ	__end_of_I2C_ISR-_I2C_ISR
	
_I2C_ISR:	
;incstack = 0
	opt	stack 9
; Regs used in _I2C_ISR: [wregfsr1]
	line	262
	
i1l2327:	
;MCU_16f1516_B1.c: 262: if(SSPIE && SSPIF)
	movlb 1	; select bank1
	btfss	(1163/8)^080h,(1163)&7	;volatile
	goto	u180_21
	goto	u180_20
u180_21:
	goto	i1l414
u180_20:
	
i1l2329:	
	movlb 0	; select bank0
	btfss	(139/8),(139)&7	;volatile
	goto	u181_21
	goto	u181_20
u181_21:
	goto	i1l414
u181_20:
	line	264
	
i1l2331:	
;MCU_16f1516_B1.c: 263: {
;MCU_16f1516_B1.c: 264: SSPIE=0;
	movlb 1	; select bank1
	bcf	(1163/8)^080h,(1163)&7	;volatile
	line	265
	
i1l2333:	
;MCU_16f1516_B1.c: 265: I2C->SlaveGO=1;
	movf	(_I2C),w
	addlw	042h
	movwf	fsr1l
	movlw 1	; select bank2/3
	movwf fsr1h	
	
	bsf	indf1,0
	goto	i1l414
	line	272
	
i1l413:	
	line	273
	
i1l414:	
	return
	opt stack 0
GLOBAL	__end_of_I2C_ISR
	__end_of_I2C_ISR:
	signat	_I2C_ISR,88
global	___latbits
___latbits	equ	2
	global	btemp
	btemp set 07Eh

	DABS	1,126,2	;btemp
	global	pic14e$flags
	pic14e$flags	set btemp
	global	wtemp
	global	wtemp0
	wtemp set btemp
	wtemp0 set btemp
	global	wtemp1
	wtemp1 set btemp+2
	global	wtemp2
	wtemp2 set btemp+4
	global	wtemp3
	wtemp3 set btemp+6
	global	wtemp4
	wtemp4 set btemp+8
	global	wtemp5
	wtemp5 set btemp+10
	global	wtemp6
	wtemp6 set btemp+1
	global	ttemp
	global	ttemp0
	ttemp set btemp
	ttemp0 set btemp
	global	ttemp1
	ttemp1 set btemp+3
	global	ttemp2
	ttemp2 set btemp+6
	global	ttemp3
	ttemp3 set btemp+9
	global	ttemp4
	ttemp4 set btemp+1
	global	ltemp
	global	ltemp0
	ltemp set btemp
	ltemp0 set btemp
	global	ltemp1
	ltemp1 set btemp+4
	global	ltemp2
	ltemp2 set btemp+8
	global	ltemp3
	ltemp3 set btemp+2
	end
