

HI-TECH Software PIC LITE Macro Assembler V9.82 build 9453 
                                                                                               Wed Jul 02 00:00:30 2014

HI-TECH Software Omniscient Code Generator (Lite mode) build 9453
     1  0000                     opt subtitle "HI-TECH Software Omniscient Code Generator (Lite mode) build 9453"
     2                           
     3                           opt pagewidth 120
     4                           
     5                           	opt lm
     6                           
     7                           	processor	16F1516
     8                           clrc	macro
     9                           	bcf	3,0
    10  0000                     	endm
    11                           clrz	macro
    12                           	bcf	3,2
    13  0000                     	endm
    14                           setc	macro
    15                           	bsf	3,0
    16  0000                     	endm
    17                           setz	macro
    18                           	bsf	3,2
    19  0000                     	endm
    20                           skipc	macro
    21                           	btfss	3,0
    22  0000                     	endm
    23                           skipz	macro
    24                           	btfss	3,2
    25  0000                     	endm
    26                           skipnc	macro
    27                           	btfsc	3,0
    28  0000                     	endm
    29                           skipnz	macro
    30                           	btfsc	3,2
    31  0000                     	endm
    32  0000                     indf	equ	0
    33  0000                     indf0	equ	0
    34  0001                     indf1	equ	1
    35  0002                     pc	equ	2
    36  0002                     pcl	equ	2
    37  0003                     status	equ	3
    38  0004                     fsr0l	equ	4
    39  0005                     fsr0h	equ	5
    40  0006                     fsr1l	equ	6
    41  0007                     fsr1h	equ	7
    42  0008                     bsr	equ	8
    43  0009                     wreg	equ	9
    44  000B                     intcon	equ	11
    45  0001                     c	equ	1
    46  0000                     z	equ	0
    47  000A                     pclath	equ	10
    48                           # 6 "G:\Program\PIC\7.Development\Release\Development.c"
    49                           	psect config,class=CONFIG,delta=2 ;#
    50                           # 6 "G:\Program\PIC\7.Development\Release\Development.c"
    51  8007  FFE4               	dw 0xFFFC & 0xFFE7 ;#
    52                           # 7 "G:\Program\PIC\7.Development\Release\Development.c"
    53                           	psect config,class=CONFIG,delta=2 ;#
    54                           # 7 "G:\Program\PIC\7.Development\Release\Development.c"
    55  8008  FFFF               	dw 0xFFFF ;#
    56                           	FNCALL	_main,_MainT_Initial
    57                           	FNCALL	_main,_MainT
    58                           	FNCALL	_main,___lwdiv
    59                           	FNCALL	_main,___lwmod
    60                           	FNCALL	_MainT,_setOverLoadtoEnable
    61                           	FNCALL	_MainT,_printf
    62                           	FNCALL	_MainT,_CDS_Get
    63                           	FNCALL	_printf,_putch
    64                           	FNCALL	_printf,___lwdiv
    65                           	FNCALL	_printf,___lwmod
    66                           	FNROOT	_main
    67                           	FNCALL	intlevel1,_ISR
    68                           	global	intlevel1
    69                           	FNROOT	intlevel1
    70                           	global	_VarProduct
    71                           	global	_VarUart
    72                           	global	_VarSegment
    73                           psect	idataBANK0,class=CODE,space=0,delta=2
    74                           global __pidataBANK0
    75  06B1                     __pidataBANK0:
    76                           	file	"G:\Program\PIC\7.Development\Release\Development.c"
    77                           	line	16
    78                           
    79                           ;initializer for _VarProduct
    80  06B1  34AA               	retlw	0AAh
    81  06B2  340B               	retlw	0Bh
    82  06B3  340C               	retlw	0Ch
    83  06B4  340D               	retlw	0Dh
    84                           psect	idataBANK1,class=CODE,space=0,delta=2
    85                           global __pidataBANK1
    86  0574                     __pidataBANK1:
    87                           	file	"G:\Program\PIC\Header_File\../Header_File/MCU_16F1516_A.h"
    88                           	line	499
    89                           
    90                           ;initializer for _VarUart
    91  0574  34AA               	retlw	0AAh
    92  0575  34AA               	retlw	0AAh
    93  0576  3400               	retlw	0
    94  0577  3400               	retlw	0
    95  0578  3400               	retlw	0
    96  0579  3400               	retlw	0
    97  057A  3400               	retlw	0
    98  057B  3400               	retlw	0
    99  057C  3400               	retlw	0
   100  057D  3400               	retlw	0
   101  057E  3400               	retlw	0
   102  057F  3400               	retlw	0
   103  0580  3400               	retlw	0
   104  0581  3400               	retlw	0
   105  0582  3400               	retlw	0
   106  0583  3400               	retlw	0
   107  0584  3400               	retlw	0
   108  0585  3400               	retlw	0
   109  0586  3400               	retlw	0
   110  0587  3400               	retlw	0
   111  0588  3400               	retlw	0
   112  0589  3400               	retlw	0
   113  058A  3400               	retlw	0
   114  058B  3400               	retlw	0
   115  058C  3400               	retlw	0
   116  058D  3400               	retlw	0
   117  058E  3400               	retlw	0
   118  058F  3400               	retlw	0
   119  0590  3400               	retlw	0
   120  0591  3400               	retlw	0
   121  0592  3400               	retlw	0
   122  0593  3400               	retlw	0
   123  0594  3400               	retlw	0
   124  0595  3400               	retlw	0
   125  0596  3400               	retlw	0
   126  0597  3400               	retlw	0
   127  0598  3400               	retlw	0
   128  0599  3400               	retlw	0
   129  059A  3400               	retlw	0
   130  059B  3400               	retlw	0
   131  059C  3400               	retlw	0
   132  059D  3400               	retlw	0
   133  059E  3400               	retlw	0
   134  059F  3400               	retlw	0
   135  05A0  3400               	retlw	0
   136  05A1  3400               	retlw	0
   137  05A2  3400               	retlw	0
   138  05A3  3400               	retlw	0
   139  05A4  3400               	retlw	0
   140  05A5  3400               	retlw	0
   141                           	file	"G:\Program\PIC\Header_File\../Header_File/SegmentDisplay_A.h"
   142                           	line	78
   143                           
   144                           ;initializer for _VarSegment
   145  05A6  34C0               	retlw	0C0h
   146  05A7  34F9               	retlw	0F9h
   147  05A8  34A4               	retlw	0A4h
   148  05A9  34B0               	retlw	0B0h
   149  05AA  3499               	retlw	099h
   150  05AB  3492               	retlw	092h
   151  05AC  3482               	retlw	082h
   152  05AD  34D8               	retlw	0D8h
   153  05AE  3480               	retlw	080h
   154  05AF  3490               	retlw	090h
   155  05B0  3488               	retlw	088h
   156  05B1  3483               	retlw	083h
   157  05B2  34A7               	retlw	0A7h
   158  05B3  34A1               	retlw	0A1h
   159  05B4  3486               	retlw	086h
   160  05B5  348E               	retlw	08Eh
   161  05B6  34BF               	retlw	0BFh
   162  05B7  3400               	retlw	0
   163  05B8  3400               	retlw	0
   164  05B9  3400               	retlw	0
   165  05BA  3400               	retlw	0
   166  05BB  3400               	retlw	0
   167  05BC  3400               	retlw	0
   168  05BD  3400               	retlw	0
   169  05BE  3400               	retlw	0
   170  05BF  3400               	retlw	0
   171  05C0  3400               	retlw	0
   172  05C1  3400               	retlw	0
   173  05C2  3400               	retlw	0
   174                           	global	_CC2500_registers_address
   175                           psect	strings,class=STRING,delta=2
   176                           global __pstrings
   177  0500                     __pstrings:
   178                           	global    __stringtab
   179  0500                     __stringtab:
   180  0500  3400               	retlw	0
   181                           psect	strings
   182                           	file	"G:\Program\PIC\Header_File\../Header_File/CC2500.h"
   183                           	line	221
   184  0501                     _CC2500_registers_address:
   185  0501  3403               	retlw	03h
   186  0502  3416               	retlw	016h
   187  0503  3417               	retlw	017h
   188  0504  341E               	retlw	01Eh
   189  0505  341F               	retlw	01Fh
   190  0506  3420               	retlw	020h
   191  0507  342A               	retlw	02Ah
   192  0508  342B               	retlw	02Bh
   193  0509  340B               	retlw	0Bh
   194  050A  340C               	retlw	0Ch
   195  050B  340D               	retlw	0Dh
   196  050C  340E               	retlw	0Eh
   197  050D  340F               	retlw	0Fh
   198  050E  3410               	retlw	010h
   199  050F  3411               	retlw	011h
   200  0510  3412               	retlw	012h
   201  0511  3413               	retlw	013h
   202  0512  3414               	retlw	014h
   203  0513  340A               	retlw	0Ah
   204  0514  3415               	retlw	015h
   205  0515  3421               	retlw	021h
   206  0516  3422               	retlw	022h
   207  0517  3418               	retlw	018h
   208  0518  3419               	retlw	019h
   209  0519  341A               	retlw	01Ah
   210  051A  341B               	retlw	01Bh
   211  051B  341C               	retlw	01Ch
   212  051C  341D               	retlw	01Dh
   213  051D  3423               	retlw	023h
   214  051E  3424               	retlw	024h
   215  051F  3425               	retlw	025h
   216  0520  3426               	retlw	026h
   217  0521  3429               	retlw	029h
   218  0522  342C               	retlw	02Ch
   219  0523  342D               	retlw	02Dh
   220  0524  342E               	retlw	02Eh
   221  0525  3400               	retlw	0
   222  0526  3401               	retlw	01h
   223  0527  3402               	retlw	02h
   224  0528  3407               	retlw	07h
   225  0529  3408               	retlw	08h
   226  052A  3409               	retlw	09h
   227  052B  3406               	retlw	06h
   228  052C  3404               	retlw	04h
   229  052D  3405               	retlw	05h
   230  052E  3427               	retlw	027h
   231  052F  3428               	retlw	028h
   232                           	global	_CC2500_rfSettings
   233                           psect	strings
   234                           	file	"G:\Program\PIC\Header_File\../Header_File/CC2500.h"
   235                           	line	164
   236  0530                     _CC2500_rfSettings:
   237  0530  3407               	retlw	07h
   238  0531  3407               	retlw	07h
   239  0532  3430               	retlw	030h
   240  0533  3487               	retlw	087h
   241  0534  346B               	retlw	06Bh
   242  0535  34F8               	retlw	0F8h
   243  0536  347F               	retlw	07Fh
   244  0537  343F               	retlw	03Fh
   245  0538  3409               	retlw	09h
   246  0539  3400               	retlw	0
   247  053A  345C               	retlw	05Ch
   248  053B  34A7               	retlw	0A7h
   249  053C  3462               	retlw	062h
   250  053D  3486               	retlw	086h
   251  053E  3483               	retlw	083h
   252  053F  3403               	retlw	03h
   253  0540  3422               	retlw	022h
   254  0541  34F8               	retlw	0F8h
   255  0542  3400               	retlw	0
   256  0543  3444               	retlw	044h
   257  0544  34B6               	retlw	0B6h
   258  0545  3410               	retlw	010h
   259  0546  3418               	retlw	018h
   260  0547  341D               	retlw	01Dh
   261  0548  341C               	retlw	01Ch
   262  0549  34C7               	retlw	0C7h
   263  054A  3400               	retlw	0
   264  054B  34B2               	retlw	0B2h
   265  054C  34EA               	retlw	0EAh
   266  054D  340A               	retlw	0Ah
   267  054E  3400               	retlw	0
   268  054F  3411               	retlw	011h
   269  0550  3459               	retlw	059h
   270  0551  3488               	retlw	088h
   271  0552  3431               	retlw	031h
   272  0553  340B               	retlw	0Bh
   273  0554  342F               	retlw	02Fh
   274  0555  342E               	retlw	02Eh
   275  0556  3406               	retlw	06h
   276  0557  3404               	retlw	04h
   277  0558  3405               	retlw	05h
   278  0559  3400               	retlw	0
   279  055A  3430               	retlw	030h
   280  055B  34D3               	retlw	0D3h
   281  055C  3491               	retlw	091h
   282  055D  3441               	retlw	041h
   283  055E  3400               	retlw	0
   284                           	global	_dpowers
   285                           psect	strings
   286                           	file	"C:\Program Files (x86)\HI-TECH Software\PICC\9.82\lib\doprnt.c"
   287                           	line	350
   288  055F                     _dpowers:
   289  055F  3401               	retlw	01h
   290  0560  3400               	retlw	0
   291                           
   292  0561  340A               	retlw	0Ah
   293  0562  3400               	retlw	0
   294                           
   295  0563  3464               	retlw	064h
   296  0564  3400               	retlw	0
   297                           
   298  0565  34E8               	retlw	0E8h
   299  0566  3403               	retlw	03h
   300                           
   301  0567  3410               	retlw	010h
   302  0568  3427               	retlw	027h
   303                           
   304                           	global	_CC2500_patable_vaule
   305                           psect	strings
   306                           	file	"G:\Program\PIC\Header_File\../Header_File/CC2500.h"
   307                           	line	316
   308  0569                     _CC2500_patable_vaule:
   309  0569  34FE               	retlw	0FEh
   310  056A  34FE               	retlw	0FEh
   311  056B  34FE               	retlw	0FEh
   312  056C  34FE               	retlw	0FEh
   313  056D  34FE               	retlw	0FEh
   314  056E  34FE               	retlw	0FEh
   315  056F  34FE               	retlw	0FEh
   316  0570  34FE               	retlw	0FEh
   317                           	global	_CC2500_registers_address
   318                           	global	_CC2500_rfSettings
   319                           	global	_dpowers
   320                           	global	_CC2500_patable_vaule
   321                           	global	_RF_Data
   322                           	global	_RF_Count
   323                           	global	_CRC
   324                           	global	_RSSI
   325                           	global	_Rx_Length
   326                           	global	_SPI0Buffer
   327                           	global	_Segment
   328                           	global	_Timer1
   329                           	global	_Tx_Length
   330                           	global	_Uart
   331                           	global	_r_address
   332                           	global	_r_data
   333                           	global	_s_data
   334                           	global	_CC2500_Enable
   335                           	global	_CC2500_OK
   336                           	global	_Receive_GO
   337                           	global	_Receive_OK
   338                           	global	_RxStatus
   339                           	global	_Transceive_GO
   340                           	global	_Transceive_OK
   341                           	global	_TxStatus
   342                           	global	_VarTMain
   343                           	global	_VarTimer1
   344                           	global	_Product
   345                           psect	nvBANK0,class=BANK0,space=1
   346                           global __pnvBANK0
   347  006B                     __pnvBANK0:
   348  006B                     _Product:
   349  006B                            ds      1
   350                           
   351                           	global	_TMain
   352  006C                     _TMain:
   353  006C                            ds      1
   354                           
   355                           	global	_PORTA
   356  000C                     _PORTA	set	12
   357                           	global	_PORTB
   358  000D                     _PORTB	set	13
   359                           	global	_PORTC
   360  000E                     _PORTC	set	14
   361                           	global	_T1CON
   362  0018                     _T1CON	set	24
   363                           	global	_TMR1H
   364  0017                     _TMR1H	set	23
   365                           	global	_TMR1L
   366  0016                     _TMR1L	set	22
   367                           	global	_GIE
   368  005F                     _GIE	set	95
   369                           	global	_PEIE
   370  005E                     _PEIE	set	94
   371                           	global	_RA1
   372  0061                     _RA1	set	97
   373                           	global	_RA4
   374  0064                     _RA4	set	100
   375                           	global	_RA5
   376  0065                     _RA5	set	101
   377                           	global	_RA6
   378  0066                     _RA6	set	102
   379                           	global	_RA7
   380  0067                     _RA7	set	103
   381                           	global	_RCIF
   382  008D                     _RCIF	set	141
   383                           	global	_TMR1IF
   384  0088                     _TMR1IF	set	136
   385                           	global	_TXIF
   386  008C                     _TXIF	set	140
   387                           	global	_ADCON0
   388  009D                     _ADCON0	set	157
   389                           	global	_ADCON1
   390  009E                     _ADCON1	set	158
   391                           	global	_ADRESH
   392  009C                     _ADRESH	set	156
   393                           	global	_ADRESL
   394  009B                     _ADRESL	set	155
   395                           	global	_OSCCON
   396  0099                     _OSCCON	set	153
   397                           	global	_TRISA
   398  008C                     _TRISA	set	140
   399                           	global	_TRISB
   400  008D                     _TRISB	set	141
   401                           	global	_TRISC
   402  008E                     _TRISC	set	142
   403                           	global	_GO_nDONE
   404  04E9                     _GO_nDONE	set	1257
   405                           	global	_RCIE
   406  048D                     _RCIE	set	1165
   407                           	global	_TMR1IE
   408  0488                     _TMR1IE	set	1160
   409                           	global	_TRISC6
   410  0476                     _TRISC6	set	1142
   411                           	global	_TRISC7
   412  0477                     _TRISC7	set	1143
   413                           	global	_TXIE
   414  048C                     _TXIE	set	1164
   415                           	global	_FVRCON
   416  0117                     _FVRCON	set	279
   417                           	global	_LATA
   418  010C                     _LATA	set	268
   419                           	global	_LATB
   420  010D                     _LATB	set	269
   421                           	global	_LATC
   422  010E                     _LATC	set	270
   423                           	global	_ANSELA
   424  018C                     _ANSELA	set	396
   425                           	global	_ANSELB
   426  018D                     _ANSELB	set	397
   427                           	global	_ANSELC
   428  018E                     _ANSELC	set	398
   429                           	global	_RCREG
   430  0199                     _RCREG	set	409
   431                           	global	_RCSTA
   432  019D                     _RCSTA	set	413
   433                           	global	_SPBRG
   434  019B                     _SPBRG	set	411
   435                           	global	_SPBRGH
   436  019C                     _SPBRGH	set	412
   437                           	global	_TXREG
   438  019A                     _TXREG	set	410
   439                           	global	_TXSTA
   440  019E                     _TXSTA	set	414
   441                           	global	_BRG16
   442  0CFB                     _BRG16	set	3323
   443                           	global	_RX9
   444  0CEE                     _RX9	set	3310
   445                           	global	_TX9
   446  0CF6                     _TX9	set	3318
   447                           psect	strings
   448                           	
   449  0571                     STR_1:	
   450  0571  3425               	retlw	37	;'%'
   451  0572  3464               	retlw	100	;'d'
   452  0573  3400               	retlw	0
   453                           psect	strings
   454                           	file	"Development.as"
   455                           	line	#
   456                           psect cinit,class=CODE,delta=2
   457                           global start_initialization
   458  0648                     start_initialization:
   459                           
   460                           psect	bitbssCOMMON,class=COMMON,bit,space=1
   461                           global __pbitbssCOMMON
   462  03D8                     __pbitbssCOMMON:
   463  03D8                     _CC2500_Enable:
   464  03D8                            ds      1
   465                           
   466  03D9                     _CC2500_OK:
   467  03D9                            ds      1
   468                           
   469  03DA                     _Receive_GO:
   470  03DA                            ds      1
   471                           
   472  03DB                     _Receive_OK:
   473  03DB                            ds      1
   474                           
   475  03DC                     _RxStatus:
   476  03DC                            ds      1
   477                           
   478  03DD                     _Transceive_GO:
   479  03DD                            ds      1
   480                           
   481  03DE                     _Transceive_OK:
   482  03DE                            ds      1
   483                           
   484  03DF                     _TxStatus:
   485  03DF                            ds      1
   486                           
   487                           psect	bssBANK0,class=BANK0,space=1
   488                           global __pbssBANK0
   489  0020                     __pbssBANK0:
   490  0020                     _RF_Data:
   491  0020                            ds      21
   492                           
   493  0035                     _RF_Count:
   494  0035                            ds      2
   495                           
   496  0037                     _CRC:
   497  0037                            ds      1
   498                           
   499  0038                     _RSSI:
   500  0038                            ds      1
   501                           
   502  0039                     _Rx_Length:
   503  0039                            ds      1
   504                           
   505  003A                     _SPI0Buffer:
   506  003A                            ds      1
   507                           
   508  003B                     _Segment:
   509  003B                            ds      1
   510                           
   511  003C                     _Timer1:
   512  003C                            ds      1
   513                           
   514  003D                     _Tx_Length:
   515  003D                            ds      1
   516                           
   517  003E                     _Uart:
   518  003E                            ds      1
   519                           
   520  003F                     _r_address:
   521  003F                            ds      1
   522                           
   523  0040                     _r_data:
   524  0040                            ds      1
   525                           
   526  0041                     _s_data:
   527  0041                            ds      1
   528                           
   529  0042                     _VarTMain:
   530  0042                            ds      12
   531                           
   532  004E                     _VarTimer1:
   533  004E                            ds      3
   534                           
   535                           psect	dataBANK0,class=BANK0,space=1
   536                           global __pdataBANK0
   537  0067                     __pdataBANK0:
   538                           	file	"G:\Program\PIC\7.Development\Release\Development.c"
   539                           	line	16
   540  0067                     _VarProduct:
   541  0067                            ds      4
   542                           
   543                           psect	dataBANK1,class=BANK1,space=1
   544                           global __pdataBANK1
   545  00A0                     __pdataBANK1:
   546                           	file	"G:\Program\PIC\Header_File\../Header_File/MCU_16F1516_A.h"
   547                           	line	499
   548  00A0                     _VarUart:
   549  00A0                            ds      50
   550                           
   551                           psect	dataBANK1
   552                           	file	"G:\Program\PIC\Header_File\../Header_File/SegmentDisplay_A.h"
   553                           	line	78
   554  00D2                     _VarSegment:
   555  00D2                            ds      29
   556                           
   557                           psect clrtext,class=CODE,delta=2
   558                           global clear_ram
   559                           ;	Called with FSR0 containing the base address, and
   560                           ;	WREG with the size to clear
   561  06A5                     clear_ram:
   562  06A5  0064               	clrwdt			;clear the watchdog before getting into this loop
   563  06A6                     clrloop:
   564  06A6  0180               	clrf	indf0		;clear RAM location pointed to by FSR
   565  06A7  3101               	addfsr	0,1
   566  06A8  0B89               	decfsz wreg		;Have we reached the end of clearing yet?
   567  06A9  2EA6               	goto clrloop	;have we reached the end yet?
   568  06AA  3400               	retlw	0		;all done for this memory range, return
   569                           ; Clear objects allocated to BITCOMMON
   570                           psect cinit,class=CODE,delta=2
   571                           	global __pbitbssCOMMON
   572  0648  01FB               	clrf	((__pbitbssCOMMON/8)+0)&07Fh
   573                           ; Clear objects allocated to BANK0
   574                           psect cinit,class=CODE,delta=2
   575                           	global __pbssBANK0
   576  0649  3020               	movlw	low(__pbssBANK0)
   577  064A  0084               	movwf	fsr0l
   578  064B  3000               	movlw	high(__pbssBANK0)
   579  064C  0085               	movwf	fsr0h
   580  064D  3031               	movlw	031h
   581  064E  3186  26A5  3186   	fcall	clear_ram
   582                           psect inittext,class=CODE,delta=2
   583                           global init_ram,btemp
   584  06AB                     init_ram:
   585  06AB  00FE               	movwf btemp,f
   586  06AC                     initloop:
   587  06AC  0012               	moviw fsr0++
   588  06AD  001E               	movwi fsr1++
   589  06AE  0BFE               	decfsz btemp
   590  06AF  2EAC               	goto initloop
   591  06B0  3400               	retlw 0
   592                           ; Initialize objects allocated to BANK0
   593                           	global __pidataBANK0,__pdataBANK0
   594                           psect cinit,class=CODE,delta=2
   595  0651  30B1               	movlw low(__pidataBANK0)
   596  0652  0084               	movwf fsr0l
   597  0653  3086               	movlw high(__pidataBANK0)|80h
   598  0654  0085               	movwf fsr0h
   599  0655  3067               	movlw low(__pdataBANK0)
   600  0656  0086               	movwf fsr1l
   601  0657  3000               	movlw high(__pdataBANK0)
   602  0658  0087               	movwf fsr1h
   603  0659  3004               	movlw 04h
   604  065A  3186  26AB  3186   	fcall init_ram
   605                           ; Initialize objects allocated to BANK1
   606                           	global __pidataBANK1,__pdataBANK1
   607                           psect cinit,class=CODE,delta=2
   608  065D  3074               	movlw low(__pidataBANK1)
   609  065E  0084               	movwf fsr0l
   610  065F  3085               	movlw high(__pidataBANK1)|80h
   611  0660  0085               	movwf fsr0h
   612  0661  30A0               	movlw low(__pdataBANK1)
   613  0662  0086               	movwf fsr1l
   614  0663  3000               	movlw high(__pdataBANK1)
   615  0664  0087               	movwf fsr1h
   616  0665  304F               	movlw 04Fh
   617  0666  3186  26AB  3186   	fcall init_ram
   618                           psect cinit,class=CODE,delta=2
   619                           global end_of_initialization
   620                           
   621                           ;End of C runtime variable initialization code
   622                           
   623  0669                     end_of_initialization:
   624  0669  0020               movlb 0
   625  066A  3180  2846         ljmp _main	;jump to C main() function
   626                           psect	cstackCOMMON,class=COMMON,space=1
   627                           global __pcstackCOMMON
   628  0070                     __pcstackCOMMON:
   629                           	global	?_MainT_Initial
   630  0070                     ?_MainT_Initial:	; 0 bytes @ 0x0
   631                           	global	?_MainT
   632  0070                     ?_MainT:	; 0 bytes @ 0x0
   633                           	global	?_setOverLoadtoEnable
   634  0070                     ?_setOverLoadtoEnable:	; 0 bytes @ 0x0
   635                           	global	?_main
   636  0070                     ?_main:	; 0 bytes @ 0x0
   637                           	global	?_ISR
   638  0070                     ?_ISR:	; 0 bytes @ 0x0
   639                           	global	??_ISR
   640  0070                     ??_ISR:	; 0 bytes @ 0x0
   641                           	global	?_putch
   642  0070                     ?_putch:	; 0 bytes @ 0x0
   643  0070                     	ds	1
   644                           	global	??_MainT_Initial
   645  0071                     ??_MainT_Initial:	; 0 bytes @ 0x1
   646                           	global	??_setOverLoadtoEnable
   647  0071                     ??_setOverLoadtoEnable:	; 0 bytes @ 0x1
   648                           	global	??_putch
   649  0071                     ??_putch:	; 0 bytes @ 0x1
   650                           	global	?_CDS_Get
   651  0071                     ?_CDS_Get:	; 2 bytes @ 0x1
   652                           	global	?___lwdiv
   653  0071                     ?___lwdiv:	; 2 bytes @ 0x1
   654                           	global	putch@byte
   655  0071                     putch@byte:	; 1 bytes @ 0x1
   656                           	global	___lwdiv@divisor
   657  0071                     ___lwdiv@divisor:	; 2 bytes @ 0x1
   658  0071                     	ds	2
   659                           	global	??_CDS_Get
   660  0073                     ??_CDS_Get:	; 0 bytes @ 0x3
   661                           	global	___lwdiv@dividend
   662  0073                     ___lwdiv@dividend:	; 2 bytes @ 0x3
   663  0073                     	ds	2
   664                           	global	??___lwdiv
   665  0075                     ??___lwdiv:	; 0 bytes @ 0x5
   666  0075                     	ds	1
   667                           	global	___lwdiv@quotient
   668  0076                     ___lwdiv@quotient:	; 2 bytes @ 0x6
   669  0076                     	ds	1
   670                           	global	CDS_Get@i
   671  0077                     CDS_Get@i:	; 2 bytes @ 0x7
   672  0077                     	ds	1
   673                           	global	___lwdiv@counter
   674  0078                     ___lwdiv@counter:	; 1 bytes @ 0x8
   675  0078                     	ds	1
   676                           	global	??___lwmod
   677  0079                     ??___lwmod:	; 0 bytes @ 0x9
   678  0079                     	ds	1
   679                           	global	___lwmod@counter
   680  007A                     ___lwmod@counter:	; 1 bytes @ 0xA
   681  007A                     	ds	1
   682                           psect	cstackBANK0,class=BANK0,space=1
   683                           global __pcstackBANK0
   684  0051                     __pcstackBANK0:
   685                           	global	?___lwmod
   686  0051                     ?___lwmod:	; 2 bytes @ 0x0
   687                           	global	___lwmod@divisor
   688  0051                     ___lwmod@divisor:	; 2 bytes @ 0x0
   689  0051                     	ds	2
   690                           	global	___lwmod@dividend
   691  0053                     ___lwmod@dividend:	; 2 bytes @ 0x2
   692  0053                     	ds	2
   693                           	global	?_printf
   694  0055                     ?_printf:	; 2 bytes @ 0x4
   695  0055                     	ds	2
   696                           	global	??_printf
   697  0057                     ??_printf:	; 0 bytes @ 0x6
   698  0057                     	ds	2
   699                           	global	printf@ap
   700  0059                     printf@ap:	; 1 bytes @ 0x8
   701  0059                     	ds	1
   702                           	global	printf@flag
   703  005A                     printf@flag:	; 1 bytes @ 0x9
   704  005A                     	ds	1
   705                           	global	printf@f
   706  005B                     printf@f:	; 1 bytes @ 0xA
   707  005B                     	ds	1
   708                           	global	printf@prec
   709  005C                     printf@prec:	; 1 bytes @ 0xB
   710  005C                     	ds	1
   711                           	global	printf@_val
   712  005D                     printf@_val:	; 4 bytes @ 0xC
   713  005D                     	ds	4
   714                           	global	printf@c
   715  0061                     printf@c:	; 1 bytes @ 0x10
   716  0061                     	ds	1
   717                           	global	??_MainT
   718  0062                     ??_MainT:	; 0 bytes @ 0x11
   719  0062                     	ds	2
   720                           	global	??_main
   721  0064                     ??_main:	; 0 bytes @ 0x13
   722  0064                     	ds	3
   723 ;;Data sizes: Strings 3, constant 112, data 83, bss 49, persistent 2 stack 0
   724 ;;Auto spaces:   Size  Autos    Used
   725 ;; COMMON          14     11      12
   726 ;; BANK0           80     22      77
   727 ;; BANK1           80      0      79
   728 ;; BANK2           80      0       0
   729 ;; BANK3           80      0       0
   730 ;; BANK4           80      0       0
   731 ;; BANK5           80      0       0
   732 ;; BANK6           16      0       0
   733                           
   734 ;;
   735 ;; Pointer list with targets:
   736                           
   737 ;; ?_CDS_Get	int  size(1) Largest target is 0
   738 ;;
   739 ;; ?___lwmod	unsigned int  size(1) Largest target is 0
   740 ;;
   741 ;; ?___lwdiv	unsigned int  size(1) Largest target is 0
   742 ;;
   743 ;; printf@f	PTR const unsigned char  size(1) Largest target is 3
   744 ;;		 -> STR_1(CODE[3]), 
   745 ;;
   746 ;; ?_printf	int  size(1) Largest target is 0
   747 ;;
   748 ;; printf@ap	PTR void [1] size(1) Largest target is 2
   749 ;;		 -> ?_printf(BANK0[2]), 
   750 ;;
   751 ;; S2992$_cp	PTR const unsigned char  size(1) Largest target is 0
   752 ;;
   753 ;; _val._str._cp	PTR const unsigned char  size(1) Largest target is 0
   754 ;;
   755 ;; Product	PTR struct Product size(1) Largest target is 4
   756 ;;		 -> NULL(NULL[0]), VarProduct(BANK0[4]), 
   757 ;;
   758 ;; TMain	PTR struct TMain size(1) Largest target is 12
   759 ;;		 -> NULL(NULL[0]), VarTMain(BANK0[12]), 
   760 ;;
   761 ;; Segment	PTR struct Segment size(1) Largest target is 29
   762 ;;		 -> NULL(NULL[0]), VarSegment(BANK1[29]), 
   763 ;;
   764 ;; Uart	PTR struct UART size(1) Largest target is 50
   765 ;;		 -> NULL(NULL[0]), VarUart(BANK1[50]), 
   766 ;;
   767 ;; Timer1	PTR struct Timer1 size(1) Largest target is 3
   768 ;;		 -> NULL(NULL[0]), VarTimer1(BANK0[3]), 
   769 ;;
   770                           
   771                           
   772 ;;
   773 ;; Critical Paths under _main in COMMON
   774 ;;
   775 ;;   _main->___lwmod
   776 ;;   _printf->___lwmod
   777 ;;   ___lwmod->___lwdiv
   778 ;;
   779 ;; Critical Paths under _ISR in COMMON
   780 ;;
   781 ;;   None.
   782 ;;
   783 ;; Critical Paths under _main in BANK0
   784 ;;
   785 ;;   _main->_MainT
   786 ;;   _MainT->_printf
   787 ;;   _printf->___lwmod
   788 ;;
   789 ;; Critical Paths under _ISR in BANK0
   790 ;;
   791 ;;   None.
   792 ;;
   793 ;; Critical Paths under _main in BANK1
   794 ;;
   795 ;;   None.
   796 ;;
   797 ;; Critical Paths under _ISR in BANK1
   798 ;;
   799 ;;   None.
   800 ;;
   801 ;; Critical Paths under _main in BANK2
   802 ;;
   803 ;;   None.
   804 ;;
   805 ;; Critical Paths under _ISR in BANK2
   806 ;;
   807 ;;   None.
   808 ;;
   809 ;; Critical Paths under _main in BANK3
   810 ;;
   811 ;;   None.
   812 ;;
   813 ;; Critical Paths under _ISR in BANK3
   814 ;;
   815 ;;   None.
   816 ;;
   817 ;; Critical Paths under _main in BANK4
   818 ;;
   819 ;;   None.
   820 ;;
   821 ;; Critical Paths under _ISR in BANK4
   822 ;;
   823 ;;   None.
   824 ;;
   825 ;; Critical Paths under _main in BANK5
   826 ;;
   827 ;;   None.
   828 ;;
   829 ;; Critical Paths under _ISR in BANK5
   830 ;;
   831 ;;   None.
   832 ;;
   833 ;; Critical Paths under _main in BANK6
   834 ;;
   835 ;;   None.
   836 ;;
   837 ;; Critical Paths under _ISR in BANK6
   838 ;;
   839 ;;   None.
   840                           
   841 ;;
   842 ;;Main: autosize = 0, tempsize = 3, incstack = 0, save=0
   843 ;;
   844                           
   845 ;;
   846 ;;Call Graph Tables:
   847 ;;
   848 ;; ---------------------------------------------------------------------------------
   849 ;; (Depth) Function   	        Calls       Base Space   Used Autos Params    Refs
   850 ;; ---------------------------------------------------------------------------------
   851 ;; (0) _main                                                 3     3      0    1397
   852 ;;                                             19 BANK0      3     3      0
   853 ;;                      _MainT_Initial
   854 ;;                              _MainT
   855 ;;                            ___lwdiv
   856 ;;                            ___lwmod
   857 ;; ---------------------------------------------------------------------------------
   858 ;; (1) _MainT                                                2     2      0    1003
   859 ;;                                             17 BANK0      2     2      0
   860 ;;                _setOverLoadtoEnable
   861 ;;                             _printf
   862 ;;                            _CDS_Get
   863 ;; ---------------------------------------------------------------------------------
   864 ;; (2) _printf                                              13    11      2     979
   865 ;;                                              4 BANK0     13    11      2
   866 ;;                              _putch
   867 ;;                            ___lwdiv
   868 ;;                            ___lwmod
   869 ;; ---------------------------------------------------------------------------------
   870 ;; (2) _setOverLoadtoEnable                                  0     0      0       0
   871 ;; ---------------------------------------------------------------------------------
   872 ;; (1) ___lwmod                                              6     2      4     232
   873 ;;                                              9 COMMON     2     2      0
   874 ;;                                              0 BANK0      4     0      4
   875 ;;                            ___lwdiv (ARG)
   876 ;; ---------------------------------------------------------------------------------
   877 ;; (1) ___lwdiv                                              8     4      4     162
   878 ;;                                              1 COMMON     8     4      4
   879 ;; ---------------------------------------------------------------------------------
   880 ;; (3) _putch                                                1     1      0      22
   881 ;;                                              1 COMMON     1     1      0
   882 ;; ---------------------------------------------------------------------------------
   883 ;; (2) _CDS_Get                                              8     6      2      24
   884 ;;                                              1 COMMON     8     6      2
   885 ;; ---------------------------------------------------------------------------------
   886 ;; (1) _MainT_Initial                                        1     1      0       0
   887 ;;                                              1 COMMON     1     1      0
   888 ;; ---------------------------------------------------------------------------------
   889 ;; Estimated maximum stack depth 3
   890 ;; ---------------------------------------------------------------------------------
   891 ;; (Depth) Function   	        Calls       Base Space   Used Autos Params    Refs
   892 ;; ---------------------------------------------------------------------------------
   893 ;; (4) _ISR                                                  1     1      0       0
   894 ;;                                              0 COMMON     1     1      0
   895 ;; ---------------------------------------------------------------------------------
   896 ;; Estimated maximum stack depth 4
   897 ;; ---------------------------------------------------------------------------------
   898                           
   899 ;; Call Graph Graphs:
   900                           
   901 ;; _main (ROOT)
   902 ;;   _MainT_Initial
   903 ;;   _MainT
   904 ;;     _setOverLoadtoEnable
   905 ;;     _printf
   906 ;;       _putch
   907 ;;       ___lwdiv
   908 ;;       ___lwmod
   909 ;;         ___lwdiv (ARG)
   910 ;;     _CDS_Get
   911 ;;   ___lwdiv
   912 ;;   ___lwmod
   913 ;;     ___lwdiv (ARG)
   914 ;;
   915 ;; _ISR (ROOT)
   916 ;;
   917                           
   918 ;; Address spaces:
   919                           
   920 ;;Name               Size   Autos  Total    Cost      Usage
   921 ;;BIGRAM             1F0      0       0       0        0.0%
   922 ;;NULL                 0      0       0       0        0.0%
   923 ;;CODE                 0      0       0       0        0.0%
   924 ;;BITCOMMON            E      0       1       1        7.1%
   925 ;;BITSFR0              0      0       0       1        0.0%
   926 ;;SFR0                 0      0       0       1        0.0%
   927 ;;COMMON               E      B       C       2       85.7%
   928 ;;BITSFR1              0      0       0       2        0.0%
   929 ;;SFR1                 0      0       0       2        0.0%
   930 ;;BITSFR2              0      0       0       3        0.0%
   931 ;;SFR2                 0      0       0       3        0.0%
   932 ;;STACK                0      0       3       3        0.0%
   933 ;;BITSFR3              0      0       0       4        0.0%
   934 ;;SFR3                 0      0       0       4        0.0%
   935 ;;ABS                  0      0      A8       4        0.0%
   936 ;;BITBANK0            50      0       0       5        0.0%
   937 ;;BITSFR4              0      0       0       5        0.0%
   938 ;;SFR4                 0      0       0       5        0.0%
   939 ;;BANK0               50     16      4D       6       96.3%
   940 ;;BITSFR5              0      0       0       6        0.0%
   941 ;;SFR5                 0      0       0       6        0.0%
   942 ;;BITBANK1            50      0       0       7        0.0%
   943 ;;BITSFR6              0      0       0       7        0.0%
   944 ;;SFR6                 0      0       0       7        0.0%
   945 ;;BANK1               50      0      4F       8       98.8%
   946 ;;BITSFR7              0      0       0       8        0.0%
   947 ;;SFR7                 0      0       0       8        0.0%
   948 ;;BITBANK2            50      0       0       9        0.0%
   949 ;;BITSFR8              0      0       0       9        0.0%
   950 ;;SFR8                 0      0       0       9        0.0%
   951 ;;BANK2               50      0       0      10        0.0%
   952 ;;BITSFR9              0      0       0      10        0.0%
   953 ;;SFR9                 0      0       0      10        0.0%
   954 ;;BITBANK3            50      0       0      11        0.0%
   955 ;;BITSFR10             0      0       0      11        0.0%
   956 ;;SFR10                0      0       0      11        0.0%
   957 ;;BANK3               50      0       0      12        0.0%
   958 ;;BITSFR11             0      0       0      12        0.0%
   959 ;;SFR11                0      0       0      12        0.0%
   960 ;;BITBANK4            50      0       0      13        0.0%
   961 ;;BITSFR12             0      0       0      13        0.0%
   962 ;;SFR12                0      0       0      13        0.0%
   963 ;;BANK4               50      0       0      14        0.0%
   964 ;;BITSFR13             0      0       0      14        0.0%
   965 ;;SFR13                0      0       0      14        0.0%
   966 ;;BITBANK5            50      0       0      15        0.0%
   967 ;;BITSFR14             0      0       0      15        0.0%
   968 ;;SFR14                0      0       0      15        0.0%
   969 ;;BANK5               50      0       0      16        0.0%
   970 ;;BITSFR15             0      0       0      16        0.0%
   971 ;;SFR15                0      0       0      16        0.0%
   972 ;;BITBANK6            10      0       0      17        0.0%
   973 ;;BITSFR16             0      0       0      17        0.0%
   974 ;;SFR16                0      0       0      17        0.0%
   975 ;;BANK6               10      0       0      18        0.0%
   976 ;;BITSFR17             0      0       0      18        0.0%
   977 ;;SFR17                0      0       0      18        0.0%
   978 ;;BITSFR18             0      0       0      19        0.0%
   979 ;;SFR18                0      0       0      19        0.0%
   980 ;;DATA                 0      0      AB      19        0.0%
   981 ;;BITSFR19             0      0       0      20        0.0%
   982 ;;SFR19                0      0       0      20        0.0%
   983 ;;BITSFR20             0      0       0      21        0.0%
   984 ;;SFR20                0      0       0      21        0.0%
   985 ;;BITSFR21             0      0       0      22        0.0%
   986 ;;SFR21                0      0       0      22        0.0%
   987 ;;BITSFR22             0      0       0      23        0.0%
   988 ;;SFR22                0      0       0      23        0.0%
   989 ;;BITSFR23             0      0       0      24        0.0%
   990 ;;SFR23                0      0       0      24        0.0%
   991 ;;BITSFR24             0      0       0      25        0.0%
   992 ;;SFR24                0      0       0      25        0.0%
   993 ;;BITSFR25             0      0       0      26        0.0%
   994 ;;SFR25                0      0       0      26        0.0%
   995 ;;BITSFR26             0      0       0      27        0.0%
   996 ;;SFR26                0      0       0      27        0.0%
   997 ;;BITSFR27             0      0       0      28        0.0%
   998 ;;SFR27                0      0       0      28        0.0%
   999 ;;BITSFR28             0      0       0      29        0.0%
  1000 ;;SFR28                0      0       0      29        0.0%
  1001 ;;BITSFR29             0      0       0      30        0.0%
  1002 ;;SFR29                0      0       0      30        0.0%
  1003 ;;BITSFR30             0      0       0      31        0.0%
  1004 ;;SFR30                0      0       0      31        0.0%
  1005 ;;BITSFR31             0      0       0      32        0.0%
  1006 ;;SFR31                0      0       0      32        0.0%
  1007                           
  1008                           	global	_main
  1009                           psect	maintext,global,class=CODE,delta=2
  1010                           global __pmaintext
  1011  0046                     __pmaintext:
  1012                           
  1013 ;; *************** function _main *****************
  1014 ;; Defined at:
  1015 ;;		line 48 in file "G:\Program\PIC\7.Development\Release\Development.c"
  1016 ;; Parameters:    Size  Location     Type
  1017 ;;		None
  1018 ;; Auto vars:     Size  Location     Type
  1019 ;;		None
  1020 ;; Return value:  Size  Location     Type
  1021 ;;		None               void
  1022 ;; Registers used:
  1023 ;;		wreg, fsr0l, fsr0h, fsr1l, fsr1h, status,2, status,0, btemp+1, pclath, cstack
  1024 ;; Tracked objects:
  1025 ;;		On entry : 17F/0
  1026 ;;		On exit  : 0/0
  1027 ;;		Unchanged: 0/0
  1028 ;; Data sizes:     COMMON   BANK0   BANK1   BANK2   BANK3   BANK4   BANK5   BANK6
  1029 ;;      Params:         0       0       0       0       0       0       0       0
  1030 ;;      Locals:         0       0       0       0       0       0       0       0
  1031 ;;      Temps:          0       3       0       0       0       0       0       0
  1032 ;;      Totals:         0       3       0       0       0       0       0       0
  1033 ;;Total ram usage:        3 bytes
  1034 ;; Hardware stack levels required when called:    4
  1035 ;; This function calls:
  1036 ;;		_MainT_Initial
  1037 ;;		_MainT
  1038 ;;		___lwdiv
  1039 ;;		___lwmod
  1040 ;; This function is called by:
  1041 ;;		Startup code after reset
  1042 ;; This function uses a non-reentrant model
  1043 ;;
  1044                           psect	maintext
  1045                           	file	"G:\Program\PIC\7.Development\Release\Development.c"
  1046                           	line	48
  1047                           	global	__size_of_main
  1048  0295                     	__size_of_main	equ	__end_of_main-_main
  1049                           	
  1050  0046                     _main:	
  1051                           	opt	stack 12
  1052                           ; Regs used in _main: [allreg]
  1053                           	line	49
  1054                           	
  1055  0046                     l4380:	
  1056                           ;Development.c: 49: MainT_Initial();
  1057  0046  3186  269B  3180   	fcall	_MainT_Initial
  1058                           	line	50
  1059                           	
  1060  0049                     l4382:	
  1061                           ;Development.c: 50: ; OSCCON=0x78; ; TRISA=0b00001001;; TRISB=0b00000000;; TRISC=0b00000
                                 000;; LATA=0b00000000;; LATB=0b00000000;; LATC=0b00000000;; ANSELA=0b00000001;; ANSELB=0
                                 b00000000;; ANSELC=0b00000000;; PORTA=0b00001001;; PORTB=0b00000000;; PORTC=0b00000000;;
                                  ;; ; 
  1062  0049  3078               	movlw	(078h)
  1063  004A  0021               	movlb 1	; select bank1
  1064  004B  0099               	movwf	(153)^080h	;volatile
  1065                           	
  1066  004C                     l4384:	
  1067  004C  3009               	movlw	(09h)
  1068  004D  008C               	movwf	(140)^080h	;volatile
  1069                           	
  1070  004E                     l4386:	
  1071  004E  018D               	clrf	(141)^080h	;volatile
  1072                           	
  1073  004F                     l4388:	
  1074  004F  018E               	clrf	(142)^080h	;volatile
  1075                           	
  1076  0050                     l4390:	
  1077  0050  0022               	movlb 2	; select bank2
  1078  0051  018C               	clrf	(268)^0100h	;volatile
  1079                           	
  1080  0052                     l4392:	
  1081  0052  018D               	clrf	(269)^0100h	;volatile
  1082                           	
  1083  0053                     l4394:	
  1084  0053  018E               	clrf	(270)^0100h	;volatile
  1085                           	
  1086  0054                     l4396:	
  1087  0054  3001               	movlw	(01h)
  1088  0055  0023               	movlb 3	; select bank3
  1089  0056  008C               	movwf	(396)^0180h	;volatile
  1090                           	
  1091  0057                     l4398:	
  1092  0057  018D               	clrf	(397)^0180h	;volatile
  1093                           	
  1094  0058                     l4400:	
  1095  0058  018E               	clrf	(398)^0180h	;volatile
  1096                           	
  1097  0059                     l4402:	
  1098  0059  3009               	movlw	(09h)
  1099  005A  0020               	movlb 0	; select bank0
  1100  005B  008C               	movwf	(12)	;volatile
  1101                           	
  1102  005C                     l4404:	
  1103  005C  018D               	clrf	(13)	;volatile
  1104                           	
  1105  005D                     l4406:	
  1106  005D  018E               	clrf	(14)	;volatile
  1107                           	
  1108  005E                     l4408:	
  1109  005E  0000               	nop
  1110                           	
  1111  005F                     l4410:	
  1112  005F  304E               	movlw	(_VarTimer1)&0ffh
  1113  0060  0020               	movlb 0	; select bank0
  1114  0061  00E4               	movwf	(??_main+0)+0
  1115  0062  0864               	movf	(??_main+0)+0,w
  1116  0063  00BC               	movwf	(_Timer1)
  1117                           	
  1118  0064                     l4412:	
  1119  0064  3041               	movlw	(041h)
  1120  0065  0098               	movwf	(24)	;volatile
  1121                           	
  1122  0066                     l4414:	
  1123  0066  30FA               	movlw	(0FAh)
  1124  0067  0097               	movwf	(23)	;volatile
  1125                           	
  1126  0068                     l4416:	
  1127  0068  3024               	movlw	(024h)
  1128  0069  0096               	movwf	(22)	;volatile
  1129                           	
  1130  006A                     l4418:	
  1131  006A  0021               	movlb 1	; select bank1
  1132  006B  1411               	bsf	(1160/8)^080h,(1160)&7
  1133                           	
  1134  006C                     l4420:	
  1135  006C  170B               	bsf	(94/8),(94)&7
  1136                           	
  1137  006D                     l4422:	
  1138  006D  178B               	bsf	(95/8),(95)&7
  1139                           	
  1140  006E                     l4424:	
  1141  006E  30F2               	movlw	(0F2h)
  1142  006F  009E               	movwf	(158)^080h	;volatile
  1143                           	
  1144  0070                     l4426:	
  1145  0070  30C0               	movlw	(0C0h)
  1146  0071  0022               	movlb 2	; select bank2
  1147  0072  0097               	movwf	(279)^0100h	;volatile
  1148                           	
  1149  0073                     l4428:	
  1150  0073  0000               	nop
  1151                           	
  1152  0074                     l4430:	
  1153  0074  0000               	nop
  1154                           	
  1155  0075                     l4432:	
  1156  0075  30A0               	movlw	(_VarUart)&0ffh
  1157  0076  0020               	movlb 0	; select bank0
  1158  0077  00E4               	movwf	(??_main+0)+0
  1159  0078  0864               	movf	(??_main+0)+0,w
  1160  0079  00BE               	movwf	(_Uart)
  1161                           	
  1162  007A                     l4434:	
  1163  007A  0021               	movlb 1	; select bank1
  1164  007B  178E               	bsf	(1143/8)^080h,(1143)&7
  1165                           	
  1166  007C                     l4436:	
  1167  007C  170E               	bsf	(1142/8)^080h,(1142)&7
  1168                           	
  1169  007D                     l4438:	
  1170  007D  3033               	movlw	(033h)
  1171  007E  0023               	movlb 3	; select bank3
  1172  007F  009B               	movwf	(411)^0180h	;volatile
  1173                           	
  1174  0080                     l4440:	
  1175  0080  019C               	clrf	(412)^0180h	;volatile
  1176                           	
  1177  0081                     l4442:	
  1178  0081  119F               	bcf	(3323/8)^0180h,(3323)&7
  1179                           	
  1180  0082                     l4444:	
  1181  0082  3090               	movlw	(090h)
  1182  0083  009D               	movwf	(413)^0180h	;volatile
  1183                           	
  1184  0084                     l4446:	
  1185  0084  3024               	movlw	(024h)
  1186  0085  009E               	movwf	(414)^0180h	;volatile
  1187                           	
  1188  0086                     l4448:	
  1189  0086  131E               	bcf	(3318/8)^0180h,(3318)&7
  1190                           	
  1191  0087                     l4450:	
  1192  0087  131D               	bcf	(3310/8)^0180h,(3310)&7
  1193                           	
  1194  0088                     l4452:	
  1195  0088  0021               	movlb 1	; select bank1
  1196  0089  1211               	bcf	(1164/8)^080h,(1164)&7
  1197                           	
  1198  008A                     l4454:	
  1199  008A  1291               	bcf	(1165/8)^080h,(1165)&7
  1200                           	line	51
  1201                           	
  1202  008B                     l4456:	
  1203                           ;Development.c: 51: _nop();
  1204  008B  0000               	nop
  1205                           	line	52
  1206                           	
  1207  008C                     l4458:	
  1208                           ;Development.c: 52: _nop();
  1209  008C  0000               	nop
  1210                           	line	53
  1211                           	
  1212  008D                     l4460:	
  1213                           ;Development.c: 53: _nop();
  1214  008D  0000               	nop
  1215                           	line	54
  1216                           	
  1217  008E                     l4462:	
  1218                           ;Development.c: 54: _nop();
  1219  008E  0000               	nop
  1220                           	line	55
  1221                           	
  1222  008F                     l4464:	
  1223                           ;Development.c: 55: _nop();
  1224  008F  0000               	nop
  1225                           	line	56
  1226                           	
  1227  0090                     l4466:	
  1228                           ;Development.c: 56: _nop();
  1229  0090  0000               	nop
  1230                           	line	57
  1231                           	
  1232  0091                     l4468:	
  1233                           ;Development.c: 57: _nop();
  1234  0091  0000               	nop
  1235                           	line	59
  1236                           	
  1237  0092                     l4470:	
  1238                           ;Development.c: 59: _nop();
  1239  0092  0000               	nop
  1240                           	line	60
  1241                           	
  1242  0093                     l4472:	
  1243                           ;Development.c: 60: Segment=&VarSegment; Segment->Enable=1; Segment->Ary=1; ;;
  1244  0093  30D2               	movlw	(_VarSegment)&0ffh
  1245  0094  0020               	movlb 0	; select bank0
  1246  0095  00E4               	movwf	(??_main+0)+0
  1247  0096  0864               	movf	(??_main+0)+0,w
  1248  0097  00BB               	movwf	(_Segment)
  1249                           	
  1250  0098                     l4474:	
  1251  0098  083B               	movf	(_Segment),w
  1252  0099  3E15               	addlw	015h
  1253  009A  0086               	movwf	fsr1l
  1254  009B  0187               	clrf fsr1h	
  1255                           	
  1256  009C  1401               	bsf	indf1,0
  1257                           	
  1258  009D                     l4476:	
  1259  009D  083B               	movf	(_Segment),w
  1260  009E  3E15               	addlw	015h
  1261  009F  0086               	movwf	fsr1l
  1262  00A0  0187               	clrf fsr1h	
  1263                           	
  1264  00A1  1581               	bsf	indf1,3
  1265  00A2  28A3               	goto	l4478
  1266                           	line	61
  1267                           ;Development.c: 61: while(1)
  1268                           	
  1269  00A3                     l1063:	
  1270                           	line	63
  1271                           	
  1272  00A3                     l4478:	
  1273                           ;Development.c: 62: {
  1274                           ;Development.c: 63: if(TMain->PowerON == 1)
  1275  00A3  086C               	movf	(_TMain),w
  1276  00A4  0086               	movwf	fsr1l
  1277  00A5  0187               	clrf fsr1h	
  1278                           	
  1279  00A6  1C01               	btfss	indf1,0
  1280  00A7  28A9               	goto	u3201
  1281  00A8  28AA               	goto	u3200
  1282  00A9                     u3201:
  1283  00A9  28AE               	goto	l4482
  1284  00AA                     u3200:
  1285                           	line	65
  1286                           	
  1287  00AA                     l4480:	
  1288                           ;Development.c: 64: {
  1289                           ;Development.c: 65: _nop();
  1290  00AA  0000               	nop
  1291                           	line	66
  1292                           ;Development.c: 66: _nop();
  1293  00AB  0000               	nop
  1294                           	line	67
  1295                           ;Development.c: 67: _nop();
  1296  00AC  0000               	nop
  1297  00AD  28AE               	goto	l4482
  1298                           	line	68
  1299                           	
  1300  00AE                     l1064:	
  1301                           	line	70
  1302                           	
  1303  00AE                     l4482:	
  1304                           ;Development.c: 68: }
  1305                           ;Development.c: 70: if(TMain->T1_Timerout == 1)
  1306  00AE  0020               	movlb 0	; select bank0
  1307  00AF  086C               	movf	(_TMain),w
  1308  00B0  0086               	movwf	fsr1l
  1309  00B1  0187               	clrf fsr1h	
  1310                           	
  1311  00B2  1D01               	btfss	indf1,2
  1312  00B3  28B5               	goto	u3211
  1313  00B4  28B6               	goto	u3210
  1314  00B5                     u3211:
  1315  00B5  28A3               	goto	l4478
  1316  00B6                     u3210:
  1317                           	line	72
  1318                           	
  1319  00B6                     l4484:	
  1320                           ;Development.c: 71: {
  1321                           ;Development.c: 72: TMain->T1_Timerout = 0;
  1322  00B6  086C               	movf	(_TMain),w
  1323  00B7  0086               	movwf	fsr1l
  1324  00B8  0187               	clrf fsr1h	
  1325                           	
  1326  00B9  1101               	bcf	indf1,2
  1327                           	line	73
  1328                           	
  1329  00BA                     l4486:	
  1330                           ;Development.c: 73: MainT();
  1331  00BA  3182  22DB  3180   	fcall	_MainT
  1332                           	line	74
  1333                           	
  1334  00BD                     l4488:	
  1335                           ;Development.c: 74: if(TMain->PowerON == 1)
  1336  00BD  0020               	movlb 0	; select bank0
  1337  00BE  086C               	movf	(_TMain),w
  1338  00BF  0086               	movwf	fsr1l
  1339  00C0  0187               	clrf fsr1h	
  1340                           	
  1341  00C1  1C01               	btfss	indf1,0
  1342  00C2  28C4               	goto	u3221
  1343  00C3  28C5               	goto	u3220
  1344  00C4                     u3221:
  1345  00C4  28A3               	goto	l4478
  1346  00C5                     u3220:
  1347                           	line	76
  1348                           	
  1349  00C5                     l4490:	
  1350                           ;Development.c: 75: {
  1351                           ;Development.c: 76: _nop();
  1352  00C5  0000               	nop
  1353                           	line	77
  1354                           ;Development.c: 77: _nop();
  1355  00C6  0000               	nop
  1356                           	line	78
  1357                           ;Development.c: 78: _nop();
  1358  00C7  0000               	nop
  1359                           	line	80
  1360                           ;Development.c: 80: _nop();
  1361  00C8  0000               	nop
  1362                           	line	82
  1363                           ;Development.c: 82: _nop();
  1364  00C9  0000               	nop
  1365                           	line	85
  1366                           ;Development.c: 85: _nop();
  1367  00CA  0000               	nop
  1368                           	line	86
  1369                           ;Development.c: 86: _nop();
  1370  00CB  0000               	nop
  1371                           	line	87
  1372                           	
  1373  00CC                     l4492:	
  1374                           ;Development.c: 87: if(Segment->Enable) { if(Segment->Set) { Segment->Set=0; Segment->GO
                                 =1; if(1) { Segment->Num[0] = Segment->Data & 0x000f; Segment->Num[1] = (Segment->Data>>
                                 4) & 0x000f; Segment->Num[2] = (Segment->Data>>8) & 0x000f; Segment->Num[3] = (Segment->
                                 Data>>
  1375  00CC  0020               	movlb 0	; select bank0
  1376  00CD  083B               	movf	(_Segment),w
  1377  00CE  3E15               	addlw	015h
  1378  00CF  0086               	movwf	fsr1l
  1379  00D0  0187               	clrf fsr1h	
  1380                           	
  1381  00D1  1C01               	btfss	indf1,0
  1382  00D2  28D4               	goto	u3231
  1383  00D3  28D5               	goto	u3230
  1384  00D4                     u3231:
  1385  00D4  28A3               	goto	l4478
  1386  00D5                     u3230:
  1387                           	
  1388  00D5                     l4494:	
  1389  00D5  083B               	movf	(_Segment),w
  1390  00D6  3E15               	addlw	015h
  1391  00D7  0086               	movwf	fsr1l
  1392  00D8  0187               	clrf fsr1h	
  1393                           	
  1394  00D9  1D01               	btfss	indf1,2
  1395  00DA  28DC               	goto	u3241
  1396  00DB  28DD               	goto	u3240
  1397  00DC                     u3241:
  1398  00DC  2A4D               	goto	l1068
  1399  00DD                     u3240:
  1400                           	
  1401  00DD                     l4496:	
  1402  00DD  083B               	movf	(_Segment),w
  1403  00DE  3E15               	addlw	015h
  1404  00DF  0086               	movwf	fsr1l
  1405  00E0  0187               	clrf fsr1h	
  1406                           	
  1407  00E1  1101               	bcf	indf1,2
  1408  00E2  083B               	movf	(_Segment),w
  1409  00E3  3E15               	addlw	015h
  1410  00E4  0086               	movwf	fsr1l
  1411  00E5  0187               	clrf fsr1h	
  1412                           	
  1413  00E6  1481               	bsf	indf1,1
  1414                           	
  1415  00E7                     l4498:	
  1416  00E7  083B               	movf	(_Segment),w
  1417  00E8  3E1A               	addlw	01Ah
  1418  00E9  0086               	movwf	fsr1l
  1419  00EA  0187               	clrf fsr1h	
  1420                           	
  1421  00EB  0801               	movf	indf1,w
  1422  00EC  390F               	andlw	0Fh
  1423  00ED  00E4               	movwf	(??_main+0)+0
  1424  00EE  083B               	movf	(_Segment),w
  1425  00EF  3E11               	addlw	011h
  1426  00F0  0086               	movwf	fsr1l
  1427  00F1  0187               	clrf fsr1h	
  1428                           	
  1429  00F2  0864               	movf	(??_main+0)+0,w
  1430  00F3  0081               	movwf	indf1
  1431                           	
  1432  00F4                     l4500:	
  1433  00F4  083B               	movf	(_Segment),w
  1434  00F5  3E1A               	addlw	01Ah
  1435  00F6  0086               	movwf	fsr1l
  1436  00F7  0187               	clrf fsr1h	
  1437                           	
  1438  00F8  3F40               	moviw	[0]fsr1
  1439  00F9  00E4               	movwf	(??_main+0)+0
  1440  00FA  3F41               	moviw	[1]fsr1
  1441  00FB  00E5               	movwf	(??_main+0)+0+1
  1442  00FC  3004               	movlw	04h
  1443  00FD                     u3255:
  1444  00FD  36E5               	lsrf	(??_main+0)+1,f
  1445  00FE  0CE4               	rrf	(??_main+0)+0,f
  1446  00FF  0B89               	decfsz	wreg,f
  1447  0100  28FD               	goto	u3255
  1448  0101  0864               	movf	0+(??_main+0)+0,w
  1449  0102  390F               	andlw	0Fh
  1450  0103  00E6               	movwf	(??_main+2)+0
  1451  0104  083B               	movf	(_Segment),w
  1452  0105  3E12               	addlw	012h
  1453  0106  0086               	movwf	fsr1l
  1454  0107  0187               	clrf fsr1h	
  1455                           	
  1456  0108  0866               	movf	(??_main+2)+0,w
  1457  0109  0081               	movwf	indf1
  1458                           	
  1459  010A                     l4502:	
  1460  010A  083B               	movf	(_Segment),w
  1461  010B  3E1A               	addlw	01Ah
  1462  010C  0086               	movwf	fsr1l
  1463  010D  0187               	clrf fsr1h	
  1464                           	
  1465  010E  3F40               	moviw	[0]fsr1
  1466  010F  00E4               	movwf	(??_main+0)+0
  1467  0110  3F41               	moviw	[1]fsr1
  1468  0111  00E5               	movwf	(??_main+0)+0+1
  1469  0112  0865               	movf	1+(??_main+0)+0,w
  1470  0113  390F               	andlw	0Fh
  1471  0114  00E6               	movwf	(??_main+2)+0
  1472  0115  083B               	movf	(_Segment),w
  1473  0116  3E13               	addlw	013h
  1474  0117  0086               	movwf	fsr1l
  1475  0118  0187               	clrf fsr1h	
  1476                           	
  1477  0119  0866               	movf	(??_main+2)+0,w
  1478  011A  0081               	movwf	indf1
  1479                           	
  1480  011B                     l4504:	
  1481  011B  083B               	movf	(_Segment),w
  1482  011C  3E1A               	addlw	01Ah
  1483  011D  0086               	movwf	fsr1l
  1484  011E  0187               	clrf fsr1h	
  1485                           	
  1486  011F  3F40               	moviw	[0]fsr1
  1487  0120  00E4               	movwf	(??_main+0)+0
  1488  0121  3F41               	moviw	[1]fsr1
  1489  0122  00E5               	movwf	(??_main+0)+0+1
  1490  0123  300C               	movlw	0Ch
  1491  0124                     u3265:
  1492  0124  36E5               	lsrf	(??_main+0)+1,f
  1493  0125  0CE4               	rrf	(??_main+0)+0,f
  1494  0126  0B89               	decfsz	wreg,f
  1495  0127  2924               	goto	u3265
  1496  0128  0864               	movf	0+(??_main+0)+0,w
  1497  0129  390F               	andlw	0Fh
  1498  012A  00E6               	movwf	(??_main+2)+0
  1499  012B  083B               	movf	(_Segment),w
  1500  012C  3E14               	addlw	014h
  1501  012D  0086               	movwf	fsr1l
  1502  012E  0187               	clrf fsr1h	
  1503                           	
  1504  012F  0866               	movf	(??_main+2)+0,w
  1505  0130  0081               	movwf	indf1
  1506  0131  2A0D               	goto	l4518
  1507                           	
  1508  0132                     l1069:	
  1509  0132  2A0D               	goto	l4518
  1510                           	
  1511  0133                     l4506:	
  1512  0133  083B               	movf	(_Segment),w
  1513  0134  3E1A               	addlw	01Ah
  1514  0135  0086               	movwf	fsr1l
  1515  0136  0187               	clrf fsr1h	
  1516                           	
  1517  0137  3F40               	moviw	[0]fsr1
  1518  0138  00E4               	movwf	(??_main+0)+0
  1519  0139  3F41               	moviw	[1]fsr1
  1520  013A  00E5               	movwf	(??_main+0)+0+1
  1521  013B  3027               	movlw	high(02710h)
  1522  013C  0265               	subwf	1+(??_main+0)+0,w
  1523  013D  3010               	movlw	low(02710h)
  1524  013E  1903               	skipnz
  1525  013F  0264               	subwf	0+(??_main+0)+0,w
  1526  0140  1C03               	skipc
  1527  0141  2943               	goto	u3271
  1528  0142  2944               	goto	u3270
  1529  0143                     u3271:
  1530  0143  296E               	goto	l4514
  1531  0144                     u3270:
  1532                           	
  1533  0144                     l4508:	
  1534  0144  083B               	movf	(_Segment),w
  1535  0145  3E1C               	addlw	01Ch
  1536  0146  0086               	movwf	fsr1l
  1537  0147  0187               	clrf fsr1h	
  1538                           	
  1539  0148  0181               	clrf	indf1
  1540  0149  2962               	goto	l4512
  1541                           	
  1542  014A                     l1074:	
  1543                           	
  1544  014A                     l4510:	
  1545  014A  3010               	movlw	(010h)
  1546  014B  00E4               	movwf	(??_main+0)+0
  1547  014C  083B               	movf	(_Segment),w
  1548  014D  3E1C               	addlw	01Ch
  1549  014E  0086               	movwf	fsr1l
  1550  014F  0187               	clrf fsr1h	
  1551                           	
  1552  0150  0801               	movf	indf1,w
  1553  0151  3E11               	addlw	011h
  1554  0152  073B               	addwf	(_Segment),w
  1555  0153  00E5               	movwf	(??_main+1)+0
  1556  0154  0865               	movf	0+(??_main+1)+0,w
  1557  0155  0086               	movwf	fsr1l
  1558  0156  0187               	clrf fsr1h	
  1559                           	
  1560  0157  0864               	movf	(??_main+0)+0,w
  1561  0158  0081               	movwf	indf1
  1562  0159  3001               	movlw	(01h)
  1563  015A  00E4               	movwf	(??_main+0)+0
  1564  015B  083B               	movf	(_Segment),w
  1565  015C  3E1C               	addlw	01Ch
  1566  015D  0086               	movwf	fsr1l
  1567  015E  0187               	clrf fsr1h	
  1568                           	
  1569  015F  0864               	movf	(??_main+0)+0,w
  1570  0160  0781               	addwf	indf1,f
  1571  0161  2962               	goto	l4512
  1572                           	
  1573  0162                     l1073:	
  1574                           	
  1575  0162                     l4512:	
  1576  0162  083B               	movf	(_Segment),w
  1577  0163  3E1C               	addlw	01Ch
  1578  0164  0086               	movwf	fsr1l
  1579  0165  0187               	clrf fsr1h	
  1580                           	
  1581  0166  3004               	movlw	(04h)
  1582  0167  0201               	subwf	indf1,w
  1583  0168  1C03               	skipc
  1584  0169  296B               	goto	u3281
  1585  016A  296C               	goto	u3280
  1586  016B                     u3281:
  1587  016B  294A               	goto	l4510
  1588  016C                     u3280:
  1589  016C  2A0D               	goto	l4518
  1590                           	
  1591  016D                     l1075:	
  1592  016D  2A0D               	goto	l4518
  1593                           	
  1594  016E                     l1072:	
  1595                           	
  1596  016E                     l4514:	
  1597  016E  30E8               	movlw	low(03E8h)
  1598  016F  00F1               	movwf	(?___lwdiv)
  1599  0170  3003               	movlw	high(03E8h)
  1600  0171  00F2               	movwf	((?___lwdiv))+1
  1601  0172  083B               	movf	(_Segment),w
  1602  0173  3E1A               	addlw	01Ah
  1603  0174  0086               	movwf	fsr1l
  1604  0175  0187               	clrf fsr1h	
  1605                           	
  1606  0176  3F40               	moviw	[0]fsr1
  1607  0177  00F3               	movwf	0+(?___lwdiv)+02h
  1608  0178  3F41               	moviw	[1]fsr1
  1609  0179  00F4               	movwf	1+(?___lwdiv)+02h
  1610  017A  3185  25C3  3180   	fcall	___lwdiv
  1611  017D  0871               	movf	(0+(?___lwdiv)),w
  1612  017E  0020               	movlb 0	; select bank0
  1613  017F  00E4               	movwf	(??_main+0)+0
  1614  0180  083B               	movf	(_Segment),w
  1615  0181  3E14               	addlw	014h
  1616  0182  0086               	movwf	fsr1l
  1617  0183  0187               	clrf fsr1h	
  1618                           	
  1619  0184  0864               	movf	(??_main+0)+0,w
  1620  0185  0081               	movwf	indf1
  1621  0186  30E8               	movlw	low(03E8h)
  1622  0187  00D1               	movwf	(?___lwmod)
  1623  0188  3003               	movlw	high(03E8h)
  1624  0189  00D2               	movwf	((?___lwmod))+1
  1625  018A  083B               	movf	(_Segment),w
  1626  018B  3E1A               	addlw	01Ah
  1627  018C  0086               	movwf	fsr1l
  1628  018D  0187               	clrf fsr1h	
  1629                           	
  1630  018E  3F40               	moviw	[0]fsr1
  1631  018F  00D3               	movwf	0+(?___lwmod)+02h
  1632  0190  3F41               	moviw	[1]fsr1
  1633  0191  00D4               	movwf	1+(?___lwmod)+02h
  1634  0192  3186  2609  3180   	fcall	___lwmod
  1635  0195  0020               	movlb 0	; select bank0
  1636  0196  083B               	movf	(_Segment),w
  1637  0197  3E1A               	addlw	01Ah
  1638  0198  0086               	movwf	fsr1l
  1639  0199  0187               	clrf fsr1h	
  1640                           	
  1641  019A  0851               	movf	(0+(?___lwmod)),w
  1642  019B  3FC0               	movwi	[0]fsr1
  1643  019C  0852               	movf	(1+(?___lwmod)),w
  1644  019D  3FC1               	movwi	[1]fsr1
  1645  019E  3064               	movlw	low(064h)
  1646  019F  00F1               	movwf	(?___lwdiv)
  1647  01A0  3000               	movlw	high(064h)
  1648  01A1  00F2               	movwf	((?___lwdiv))+1
  1649  01A2  083B               	movf	(_Segment),w
  1650  01A3  3E1A               	addlw	01Ah
  1651  01A4  0086               	movwf	fsr1l
  1652  01A5  0187               	clrf fsr1h	
  1653                           	
  1654  01A6  3F40               	moviw	[0]fsr1
  1655  01A7  00F3               	movwf	0+(?___lwdiv)+02h
  1656  01A8  3F41               	moviw	[1]fsr1
  1657  01A9  00F4               	movwf	1+(?___lwdiv)+02h
  1658  01AA  3185  25C3  3180   	fcall	___lwdiv
  1659  01AD  0871               	movf	(0+(?___lwdiv)),w
  1660  01AE  0020               	movlb 0	; select bank0
  1661  01AF  00E4               	movwf	(??_main+0)+0
  1662  01B0  083B               	movf	(_Segment),w
  1663  01B1  3E13               	addlw	013h
  1664  01B2  0086               	movwf	fsr1l
  1665  01B3  0187               	clrf fsr1h	
  1666                           	
  1667  01B4  0864               	movf	(??_main+0)+0,w
  1668  01B5  0081               	movwf	indf1
  1669  01B6  3064               	movlw	low(064h)
  1670  01B7  00D1               	movwf	(?___lwmod)
  1671  01B8  3000               	movlw	high(064h)
  1672  01B9  00D2               	movwf	((?___lwmod))+1
  1673  01BA  083B               	movf	(_Segment),w
  1674  01BB  3E1A               	addlw	01Ah
  1675  01BC  0086               	movwf	fsr1l
  1676  01BD  0187               	clrf fsr1h	
  1677                           	
  1678  01BE  3F40               	moviw	[0]fsr1
  1679  01BF  00D3               	movwf	0+(?___lwmod)+02h
  1680  01C0  3F41               	moviw	[1]fsr1
  1681  01C1  00D4               	movwf	1+(?___lwmod)+02h
  1682  01C2  3186  2609  3180   	fcall	___lwmod
  1683  01C5  0020               	movlb 0	; select bank0
  1684  01C6  083B               	movf	(_Segment),w
  1685  01C7  3E1A               	addlw	01Ah
  1686  01C8  0086               	movwf	fsr1l
  1687  01C9  0187               	clrf fsr1h	
  1688                           	
  1689  01CA  0851               	movf	(0+(?___lwmod)),w
  1690  01CB  3FC0               	movwi	[0]fsr1
  1691  01CC  0852               	movf	(1+(?___lwmod)),w
  1692  01CD  3FC1               	movwi	[1]fsr1
  1693  01CE  300A               	movlw	low(0Ah)
  1694  01CF  00F1               	movwf	(?___lwdiv)
  1695  01D0  3000               	movlw	high(0Ah)
  1696  01D1  00F2               	movwf	((?___lwdiv))+1
  1697  01D2  083B               	movf	(_Segment),w
  1698  01D3  3E1A               	addlw	01Ah
  1699  01D4  0086               	movwf	fsr1l
  1700  01D5  0187               	clrf fsr1h	
  1701                           	
  1702  01D6  3F40               	moviw	[0]fsr1
  1703  01D7  00F3               	movwf	0+(?___lwdiv)+02h
  1704  01D8  3F41               	moviw	[1]fsr1
  1705  01D9  00F4               	movwf	1+(?___lwdiv)+02h
  1706  01DA  3185  25C3  3180   	fcall	___lwdiv
  1707  01DD  0871               	movf	(0+(?___lwdiv)),w
  1708  01DE  0020               	movlb 0	; select bank0
  1709  01DF  00E4               	movwf	(??_main+0)+0
  1710  01E0  083B               	movf	(_Segment),w
  1711  01E1  3E12               	addlw	012h
  1712  01E2  0086               	movwf	fsr1l
  1713  01E3  0187               	clrf fsr1h	
  1714                           	
  1715  01E4  0864               	movf	(??_main+0)+0,w
  1716  01E5  0081               	movwf	indf1
  1717  01E6  300A               	movlw	low(0Ah)
  1718  01E7  00D1               	movwf	(?___lwmod)
  1719  01E8  3000               	movlw	high(0Ah)
  1720  01E9  00D2               	movwf	((?___lwmod))+1
  1721  01EA  083B               	movf	(_Segment),w
  1722  01EB  3E1A               	addlw	01Ah
  1723  01EC  0086               	movwf	fsr1l
  1724  01ED  0187               	clrf fsr1h	
  1725                           	
  1726  01EE  3F40               	moviw	[0]fsr1
  1727  01EF  00D3               	movwf	0+(?___lwmod)+02h
  1728  01F0  3F41               	moviw	[1]fsr1
  1729  01F1  00D4               	movwf	1+(?___lwmod)+02h
  1730  01F2  3186  2609  3180   	fcall	___lwmod
  1731  01F5  0020               	movlb 0	; select bank0
  1732  01F6  083B               	movf	(_Segment),w
  1733  01F7  3E1A               	addlw	01Ah
  1734  01F8  0086               	movwf	fsr1l
  1735  01F9  0187               	clrf fsr1h	
  1736                           	
  1737  01FA  0851               	movf	(0+(?___lwmod)),w
  1738  01FB  3FC0               	movwi	[0]fsr1
  1739  01FC  0852               	movf	(1+(?___lwmod)),w
  1740  01FD  3FC1               	movwi	[1]fsr1
  1741                           	
  1742  01FE                     l4516:	
  1743  01FE  083B               	movf	(_Segment),w
  1744  01FF  3E1A               	addlw	01Ah
  1745  0200  0086               	movwf	fsr1l
  1746  0201  0187               	clrf fsr1h	
  1747                           	
  1748  0202  0801               	movf	indf1,w
  1749  0203  00E4               	movwf	(??_main+0)+0
  1750  0204  083B               	movf	(_Segment),w
  1751  0205  3E11               	addlw	011h
  1752  0206  0086               	movwf	fsr1l
  1753  0207  0187               	clrf fsr1h	
  1754                           	
  1755  0208  0864               	movf	(??_main+0)+0,w
  1756  0209  0081               	movwf	indf1
  1757  020A  2A0D               	goto	l4518
  1758                           	
  1759  020B                     l1076:	
  1760  020B  2A0D               	goto	l4518
  1761                           	
  1762  020C                     l1071:	
  1763  020C  2A0D               	goto	l4518
  1764                           	
  1765  020D                     l1070:	
  1766                           	
  1767  020D                     l4518:	
  1768  020D  083B               	movf	(_Segment),w
  1769  020E  3E14               	addlw	014h
  1770  020F  0086               	movwf	fsr1l
  1771  0210  0187               	clrf fsr1h	
  1772                           	
  1773  0211  0801               	movf	indf1,w
  1774  0212  3A00               	xorlw	0&0ffh
  1775  0213  1903               	skipnz
  1776  0214  2A16               	goto	u3291
  1777  0215  2A17               	goto	u3290
  1778  0216                     u3291:
  1779  0216  2A20               	goto	l4522
  1780  0217                     u3290:
  1781                           	
  1782  0217                     l4520:	
  1783  0217  3003               	movlw	(03h)
  1784  0218  00E4               	movwf	(??_main+0)+0
  1785  0219  083B               	movf	(_Segment),w
  1786  021A  3E17               	addlw	017h
  1787  021B  0086               	movwf	fsr1l
  1788  021C  0187               	clrf fsr1h	
  1789                           	
  1790  021D  0864               	movf	(??_main+0)+0,w
  1791  021E  0081               	movwf	indf1
  1792  021F  2A4D               	goto	l1068
  1793                           	
  1794  0220                     l1077:	
  1795                           	
  1796  0220                     l4522:	
  1797  0220  083B               	movf	(_Segment),w
  1798  0221  3E13               	addlw	013h
  1799  0222  0086               	movwf	fsr1l
  1800  0223  0187               	clrf fsr1h	
  1801                           	
  1802  0224  0801               	movf	indf1,w
  1803  0225  3A00               	xorlw	0&0ffh
  1804  0226  1903               	skipnz
  1805  0227  2A29               	goto	u3301
  1806  0228  2A2A               	goto	u3300
  1807  0229                     u3301:
  1808  0229  2A33               	goto	l4526
  1809  022A                     u3300:
  1810                           	
  1811  022A                     l4524:	
  1812  022A  3002               	movlw	(02h)
  1813  022B  00E4               	movwf	(??_main+0)+0
  1814  022C  083B               	movf	(_Segment),w
  1815  022D  3E17               	addlw	017h
  1816  022E  0086               	movwf	fsr1l
  1817  022F  0187               	clrf fsr1h	
  1818                           	
  1819  0230  0864               	movf	(??_main+0)+0,w
  1820  0231  0081               	movwf	indf1
  1821  0232  2A4D               	goto	l1068
  1822                           	
  1823  0233                     l1079:	
  1824                           	
  1825  0233                     l4526:	
  1826  0233  083B               	movf	(_Segment),w
  1827  0234  3E12               	addlw	012h
  1828  0235  0086               	movwf	fsr1l
  1829  0236  0187               	clrf fsr1h	
  1830                           	
  1831  0237  0801               	movf	indf1,w
  1832  0238  3A00               	xorlw	0&0ffh
  1833  0239  1903               	skipnz
  1834  023A  2A3C               	goto	u3311
  1835  023B  2A3D               	goto	u3310
  1836  023C                     u3311:
  1837  023C  2A45               	goto	l4530
  1838  023D                     u3310:
  1839                           	
  1840  023D                     l4528:	
  1841  023D  083B               	movf	(_Segment),w
  1842  023E  3E17               	addlw	017h
  1843  023F  0086               	movwf	fsr1l
  1844  0240  0187               	clrf fsr1h	
  1845                           	
  1846  0241  0181               	clrf	indf1
  1847  0242  1403               	bsf	status,0
  1848  0243  0D81               	rlf	indf1,f
  1849  0244  2A4D               	goto	l1068
  1850                           	
  1851  0245                     l1081:	
  1852                           	
  1853  0245                     l4530:	
  1854  0245  083B               	movf	(_Segment),w
  1855  0246  3E17               	addlw	017h
  1856  0247  0086               	movwf	fsr1l
  1857  0248  0187               	clrf fsr1h	
  1858                           	
  1859  0249  0181               	clrf	indf1
  1860  024A  2A4D               	goto	l1068
  1861                           	
  1862  024B                     l1082:	
  1863  024B  2A4D               	goto	l1068
  1864                           	
  1865  024C                     l1080:	
  1866  024C  2A4D               	goto	l1068
  1867                           	
  1868  024D                     l1078:	
  1869                           	
  1870  024D                     l1068:	
  1871  024D  083B               	movf	(_Segment),w
  1872  024E  3E15               	addlw	015h
  1873  024F  0086               	movwf	fsr1l
  1874  0250  0187               	clrf fsr1h	
  1875                           	
  1876  0251  1C81               	btfss	indf1,1
  1877  0252  2A54               	goto	u3321
  1878  0253  2A55               	goto	u3320
  1879  0254                     u3321:
  1880  0254  28A3               	goto	l4478
  1881  0255                     u3320:
  1882                           	
  1883  0255                     l4532:	
  1884  0255  3001               	movlw	(01h)
  1885  0256  00E4               	movwf	(??_main+0)+0
  1886  0257  083B               	movf	(_Segment),w
  1887  0258  3E19               	addlw	019h
  1888  0259  0086               	movwf	fsr1l
  1889  025A  0187               	clrf fsr1h	
  1890                           	
  1891  025B  0864               	movf	(??_main+0)+0,w
  1892  025C  0781               	addwf	indf1,f
  1893                           	
  1894  025D                     l4534:	
  1895  025D  083B               	movf	(_Segment),w
  1896  025E  3E19               	addlw	019h
  1897  025F  0086               	movwf	fsr1l
  1898  0260  0187               	clrf fsr1h	
  1899                           	
  1900  0261  0801               	movf	indf1,w
  1901  0262  3A05               	xorlw	05h&0ffh
  1902  0263  1D03               	skipz
  1903  0264  2A66               	goto	u3331
  1904  0265  2A67               	goto	u3330
  1905  0266                     u3331:
  1906  0266  28A3               	goto	l4478
  1907  0267                     u3330:
  1908                           	
  1909  0267                     l4536:	
  1910  0267  083B               	movf	(_Segment),w
  1911  0268  3E19               	addlw	019h
  1912  0269  0086               	movwf	fsr1l
  1913  026A  0187               	clrf fsr1h	
  1914                           	
  1915  026B  0181               	clrf	indf1
  1916                           	
  1917  026C                     l4538:	
  1918  026C  300F               	movlw	(0Fh)
  1919  026D  00E4               	movwf	(??_main+0)+0
  1920  026E  0864               	movf	(??_main+0)+0,w
  1921  026F  058C               	andwf	(12),f	;volatile
  1922                           	
  1923  0270                     l4540:	
  1924  0270  083B               	movf	(_Segment),w
  1925  0271  3E16               	addlw	016h
  1926  0272  0086               	movwf	fsr1l
  1927  0273  0187               	clrf fsr1h	
  1928                           	
  1929  0274  0881               	movf	indf1,f
  1930  0275  1D03               	skipz
  1931  0276  2A78               	goto	u3341
  1932  0277  2A79               	goto	u3340
  1933  0278                     u3341:
  1934  0278  2A7B               	goto	l4544
  1935  0279                     u3340:
  1936                           	
  1937  0279                     l4542:	
  1938  0279  160C               	bsf	(100/8),(100)&7
  1939  027A  2AA2               	goto	l4556
  1940                           	
  1941  027B                     l1085:	
  1942                           	
  1943  027B                     l4544:	
  1944  027B  083B               	movf	(_Segment),w
  1945  027C  3E16               	addlw	016h
  1946  027D  0086               	movwf	fsr1l
  1947  027E  0187               	clrf fsr1h	
  1948                           	
  1949  027F  0801               	movf	indf1,w
  1950  0280  3A01               	xorlw	01h&0ffh
  1951  0281  1D03               	skipz
  1952  0282  2A84               	goto	u3351
  1953  0283  2A85               	goto	u3350
  1954  0284                     u3351:
  1955  0284  2A87               	goto	l4548
  1956  0285                     u3350:
  1957                           	
  1958  0285                     l4546:	
  1959  0285  168C               	bsf	(101/8),(101)&7
  1960  0286  2AA2               	goto	l4556
  1961                           	
  1962  0287                     l1087:	
  1963                           	
  1964  0287                     l4548:	
  1965  0287  083B               	movf	(_Segment),w
  1966  0288  3E16               	addlw	016h
  1967  0289  0086               	movwf	fsr1l
  1968  028A  0187               	clrf fsr1h	
  1969                           	
  1970  028B  0801               	movf	indf1,w
  1971  028C  3A02               	xorlw	02h&0ffh
  1972  028D  1D03               	skipz
  1973  028E  2A90               	goto	u3361
  1974  028F  2A91               	goto	u3360
  1975  0290                     u3361:
  1976  0290  2A93               	goto	l4552
  1977  0291                     u3360:
  1978                           	
  1979  0291                     l4550:	
  1980  0291  170C               	bsf	(102/8),(102)&7
  1981  0292  2AA2               	goto	l4556
  1982                           	
  1983  0293                     l1089:	
  1984                           	
  1985  0293                     l4552:	
  1986  0293  083B               	movf	(_Segment),w
  1987  0294  3E16               	addlw	016h
  1988  0295  0086               	movwf	fsr1l
  1989  0296  0187               	clrf fsr1h	
  1990                           	
  1991  0297  0801               	movf	indf1,w
  1992  0298  3A03               	xorlw	03h&0ffh
  1993  0299  1D03               	skipz
  1994  029A  2A9C               	goto	u3371
  1995  029B  2A9D               	goto	u3370
  1996  029C                     u3371:
  1997  029C  2AA2               	goto	l4556
  1998  029D                     u3370:
  1999                           	
  2000  029D                     l4554:	
  2001  029D  178C               	bsf	(103/8),(103)&7
  2002  029E  2AA2               	goto	l4556
  2003                           	
  2004  029F                     l1091:	
  2005  029F  2AA2               	goto	l4556
  2006                           	
  2007  02A0                     l1090:	
  2008  02A0  2AA2               	goto	l4556
  2009                           	
  2010  02A1                     l1088:	
  2011  02A1  2AA2               	goto	l4556
  2012                           	
  2013  02A2                     l1086:	
  2014                           	
  2015  02A2                     l4556:	
  2016  02A2  083B               	movf	(_Segment),w
  2017  02A3  3E16               	addlw	016h
  2018  02A4  0086               	movwf	fsr1l
  2019  02A5  0187               	clrf fsr1h	
  2020                           	
  2021  02A6  0801               	movf	indf1,w
  2022  02A7  3E11               	addlw	011h
  2023  02A8  073B               	addwf	(_Segment),w
  2024  02A9  00E4               	movwf	(??_main+0)+0
  2025  02AA  0864               	movf	0+(??_main+0)+0,w
  2026  02AB  0086               	movwf	fsr1l
  2027  02AC  0187               	clrf fsr1h	
  2028                           	
  2029  02AD  0801               	movf	indf1,w
  2030  02AE  073B               	addwf	(_Segment),w
  2031  02AF  00E5               	movwf	(??_main+1)+0
  2032  02B0  0865               	movf	0+(??_main+1)+0,w
  2033  02B1  0086               	movwf	fsr1l
  2034  02B2  0187               	clrf fsr1h	
  2035                           	
  2036  02B3  0801               	movf	indf1,w
  2037  02B4  008D               	movwf	(13)	;volatile
  2038                           	
  2039  02B5                     l4558:	
  2040  02B5  083B               	movf	(_Segment),w
  2041  02B6  3E16               	addlw	016h
  2042  02B7  0086               	movwf	fsr1l
  2043  02B8  0187               	clrf fsr1h	
  2044                           	
  2045  02B9  083B               	movf	(_Segment),w
  2046  02BA  3E17               	addlw	017h
  2047  02BB  0084               	movwf	fsr0l
  2048  02BC  0185               	clrf fsr0h	
  2049                           	
  2050  02BD  0800               	movf	indf0,w
  2051  02BE  0201               	subwf	indf1,w
  2052  02BF  1803               	skipnc
  2053  02C0  2AC2               	goto	u3381
  2054  02C1  2AC3               	goto	u3380
  2055  02C2                     u3381:
  2056  02C2  2ACC               	goto	l4562
  2057  02C3                     u3380:
  2058                           	
  2059  02C3                     l4560:	
  2060  02C3  3001               	movlw	(01h)
  2061  02C4  00E4               	movwf	(??_main+0)+0
  2062  02C5  083B               	movf	(_Segment),w
  2063  02C6  3E16               	addlw	016h
  2064  02C7  0086               	movwf	fsr1l
  2065  02C8  0187               	clrf fsr1h	
  2066                           	
  2067  02C9  0864               	movf	(??_main+0)+0,w
  2068  02CA  0781               	addwf	indf1,f
  2069  02CB  28A3               	goto	l4478
  2070                           	
  2071  02CC                     l1092:	
  2072                           	
  2073  02CC                     l4562:	
  2074  02CC  083B               	movf	(_Segment),w
  2075  02CD  3E16               	addlw	016h
  2076  02CE  0086               	movwf	fsr1l
  2077  02CF  0187               	clrf fsr1h	
  2078                           	
  2079  02D0  0181               	clrf	indf1
  2080  02D1  28A3               	goto	l4478
  2081                           	
  2082  02D2                     l1093:	
  2083  02D2  28A3               	goto	l4478
  2084                           	
  2085  02D3                     l1084:	
  2086  02D3  28A3               	goto	l4478
  2087                           	
  2088  02D4                     l1083:	
  2089  02D4  28A3               	goto	l4478
  2090                           	
  2091  02D5                     l1067:	
  2092  02D5  28A3               	goto	l4478
  2093                           	line	88
  2094                           	
  2095  02D6                     l1066:	
  2096  02D6  28A3               	goto	l4478
  2097                           	line	89
  2098                           	
  2099  02D7                     l1065:	
  2100  02D7  28A3               	goto	l4478
  2101                           	line	90
  2102                           	
  2103  02D8                     l1094:	
  2104                           	line	61
  2105  02D8  28A3               	goto	l4478
  2106                           	
  2107  02D9                     l1095:	
  2108                           	line	91
  2109                           	
  2110  02D9                     l1096:	
  2111                           	global	start
  2112  02D9  3180  2843         	ljmp	start
  2113                           	opt stack 0
  2114                           GLOBAL	__end_of_main
  2115  02DB                     	__end_of_main:
  2116 ;; =============== function _main ends ============
  2117                           
  2118                           	signat	_main,88
  2119                           	global	_MainT
  2120                           psect	text354,local,class=CODE,delta=2
  2121                           global __ptext354
  2122  02DB                     __ptext354:
  2123                           
  2124 ;; *************** function _MainT *****************
  2125 ;; Defined at:
  2126 ;;		line 101 in file "G:\Program\PIC\7.Development\Release\Development.c"
  2127 ;; Parameters:    Size  Location     Type
  2128 ;;		None
  2129 ;; Auto vars:     Size  Location     Type
  2130 ;;		None
  2131 ;; Return value:  Size  Location     Type
  2132 ;;		None               void
  2133 ;; Registers used:
  2134 ;;		wreg, fsr0l, fsr0h, fsr1l, fsr1h, status,2, status,0, btemp+1, pclath, cstack
  2135 ;; Tracked objects:
  2136 ;;		On entry : 0/0
  2137 ;;		On exit  : 0/0
  2138 ;;		Unchanged: 0/0
  2139 ;; Data sizes:     COMMON   BANK0   BANK1   BANK2   BANK3   BANK4   BANK5   BANK6
  2140 ;;      Params:         0       0       0       0       0       0       0       0
  2141 ;;      Locals:         0       0       0       0       0       0       0       0
  2142 ;;      Temps:          0       2       0       0       0       0       0       0
  2143 ;;      Totals:         0       2       0       0       0       0       0       0
  2144 ;;Total ram usage:        2 bytes
  2145 ;; Hardware stack levels used:    1
  2146 ;; Hardware stack levels required when called:    3
  2147 ;; This function calls:
  2148 ;;		_setOverLoadtoEnable
  2149 ;;		_printf
  2150 ;;		_CDS_Get
  2151 ;; This function is called by:
  2152 ;;		_main
  2153 ;; This function uses a non-reentrant model
  2154 ;;
  2155                           psect	text354
  2156                           	file	"G:\Program\PIC\7.Development\Release\Development.c"
  2157                           	line	101
  2158                           	global	__size_of_MainT
  2159  00F9                     	__size_of_MainT	equ	__end_of_MainT-_MainT
  2160                           	
  2161  02DB                     _MainT:	
  2162                           	opt	stack 12
  2163                           ; Regs used in _MainT: [allreg]
  2164                           	line	103
  2165                           	
  2166  02DB                     l4326:	
  2167                           ;Development.c: 103: if(TMain->PowerON == 0)
  2168  02DB  0020               	movlb 0	; select bank0
  2169  02DC  086C               	movf	(_TMain),w
  2170  02DD  0086               	movwf	fsr1l
  2171  02DE  0187               	clrf fsr1h	
  2172                           	
  2173  02DF  1801               	btfsc	indf1,0
  2174  02E0  2AE2               	goto	u3131
  2175  02E1  2AE3               	goto	u3130
  2176  02E2                     u3131:
  2177  02E2  2B0E               	goto	l4342
  2178  02E3                     u3130:
  2179                           	line	105
  2180                           	
  2181  02E3                     l4328:	
  2182                           ;Development.c: 104: {
  2183                           ;Development.c: 105: TMain->PowerCount++;
  2184  02E3  086C               	movf	(_TMain),w
  2185  02E4  3E01               	addlw	01h
  2186  02E5  0086               	movwf	fsr1l
  2187  02E6  0187               	clrf fsr1h	
  2188                           	
  2189  02E7  3001               	movlw	01h
  2190  02E8  0781               	addwf	indf1,f
  2191  02E9  3141               	addfsr	fsr1,1
  2192  02EA  1803               	skipnc
  2193  02EB  0A81               	incf	indf1,f
  2194                           	line	106
  2195                           	
  2196  02EC                     l4330:	
  2197                           ;Development.c: 106: if(TMain->PowerCount == 2000)
  2198  02EC  086C               	movf	(_TMain),w
  2199  02ED  3E01               	addlw	01h
  2200  02EE  0086               	movwf	fsr1l
  2201  02EF  0187               	clrf fsr1h	
  2202                           	
  2203  02F0  3F40               	moviw	[0]fsr1
  2204  02F1  3AD0               	xorlw	low(07D0h)
  2205  02F2  1D03               	skipz
  2206  02F3  2AF6               	goto	u3145
  2207  02F4  3F41               	moviw	[1]fsr1
  2208  02F5  3A07               	xorlw	high(07D0h)
  2209  02F6                     u3145:
  2210  02F6  1D03               	skipz
  2211  02F7  2AF9               	goto	u3141
  2212  02F8  2AFA               	goto	u3140
  2213  02F9                     u3141:
  2214  02F9  2BD3               	goto	l1113
  2215  02FA                     u3140:
  2216                           	line	108
  2217                           	
  2218  02FA                     l4332:	
  2219                           ;Development.c: 107: {
  2220                           ;Development.c: 108: TMain->PowerCount=0;
  2221  02FA  086C               	movf	(_TMain),w
  2222  02FB  3E01               	addlw	01h
  2223  02FC  0086               	movwf	fsr1l
  2224  02FD  0187               	clrf fsr1h	
  2225                           	
  2226  02FE  3000               	movlw	low(0)
  2227  02FF  3FC0               	movwi	[0]fsr1
  2228  0300  3000               	movlw	high(0)
  2229  0301  3FC1               	movwi	[1]fsr1
  2230                           	line	109
  2231                           ;Development.c: 109: TMain->PowerON=1;
  2232  0302  086C               	movf	(_TMain),w
  2233  0303  0086               	movwf	fsr1l
  2234  0304  0187               	clrf fsr1h	
  2235                           	
  2236  0305  1401               	bsf	indf1,0
  2237                           	line	111
  2238                           	
  2239  0306                     l4334:	
  2240                           ;Development.c: 111: _nop();
  2241  0306  0000               	nop
  2242                           	line	112
  2243                           	
  2244  0307                     l4336:	
  2245                           ;Development.c: 112: _nop();
  2246  0307  0000               	nop
  2247                           	line	113
  2248                           	
  2249  0308                     l4338:	
  2250                           ;Development.c: 113: _nop();
  2251  0308  0000               	nop
  2252                           	line	114
  2253                           	
  2254  0309                     l4340:	
  2255                           ;Development.c: 114: setOverLoadtoEnable();
  2256  0309  3186  26B5  3182   	fcall	_setOverLoadtoEnable
  2257  030C  2BD3               	goto	l1113
  2258                           	line	115
  2259                           	
  2260  030D                     l1103:	
  2261                           	line	116
  2262                           ;Development.c: 115: }
  2263                           ;Development.c: 116: }
  2264  030D  2BD3               	goto	l1113
  2265                           	line	117
  2266                           	
  2267  030E                     l1102:	
  2268                           	line	119
  2269                           	
  2270  030E                     l4342:	
  2271                           ;Development.c: 117: else
  2272                           ;Development.c: 118: {
  2273                           ;Development.c: 119: TMain->Count1++;
  2274  030E  0020               	movlb 0	; select bank0
  2275  030F  086C               	movf	(_TMain),w
  2276  0310  3E05               	addlw	05h
  2277  0311  0086               	movwf	fsr1l
  2278  0312  0187               	clrf fsr1h	
  2279                           	
  2280  0313  3001               	movlw	01h
  2281  0314  0781               	addwf	indf1,f
  2282  0315  3141               	addfsr	fsr1,1
  2283  0316  1803               	skipnc
  2284  0317  0A81               	incf	indf1,f
  2285                           	line	120
  2286                           	
  2287  0318                     l4344:	
  2288                           ;Development.c: 120: if(TMain->Count1 == 1000)
  2289  0318  086C               	movf	(_TMain),w
  2290  0319  3E05               	addlw	05h
  2291  031A  0086               	movwf	fsr1l
  2292  031B  0187               	clrf fsr1h	
  2293                           	
  2294  031C  3F40               	moviw	[0]fsr1
  2295  031D  3AE8               	xorlw	low(03E8h)
  2296  031E  1D03               	skipz
  2297  031F  2B22               	goto	u3155
  2298  0320  3F41               	moviw	[1]fsr1
  2299  0321  3A03               	xorlw	high(03E8h)
  2300  0322                     u3155:
  2301  0322  1D03               	skipz
  2302  0323  2B25               	goto	u3151
  2303  0324  2B26               	goto	u3150
  2304  0325                     u3151:
  2305  0325  2B5D               	goto	l4358
  2306  0326                     u3150:
  2307                           	line	122
  2308                           	
  2309  0326                     l4346:	
  2310                           ;Development.c: 123: if(1)
  2311  0326  086C               	movf	(_TMain),w
  2312  0327  3E05               	addlw	05h
  2313  0328  0086               	movwf	fsr1l
  2314  0329  0187               	clrf fsr1h	
  2315                           	
  2316  032A  3000               	movlw	low(0)
  2317  032B  3FC0               	movwi	[0]fsr1
  2318  032C  3000               	movlw	high(0)
  2319  032D  3FC1               	movwi	[1]fsr1
  2320                           	line	125
  2321                           	
  2322  032E                     l4348:	
  2323                           ;Development.c: 124: {
  2324                           ;Development.c: 125: TMain->Count++;
  2325  032E  086C               	movf	(_TMain),w
  2326  032F  3E03               	addlw	03h
  2327  0330  0086               	movwf	fsr1l
  2328  0331  0187               	clrf fsr1h	
  2329                           	
  2330  0332  3001               	movlw	01h
  2331  0333  0781               	addwf	indf1,f
  2332  0334  3141               	addfsr	fsr1,1
  2333  0335  1803               	skipnc
  2334  0336  0A81               	incf	indf1,f
  2335                           	line	126
  2336                           	
  2337  0337                     l4350:	
  2338                           ;Development.c: 126: Segment->Set=1; Segment->Data=TMain->Count; ;;
  2339  0337  083B               	movf	(_Segment),w
  2340  0338  3E15               	addlw	015h
  2341  0339  0086               	movwf	fsr1l
  2342  033A  0187               	clrf fsr1h	
  2343                           	
  2344  033B  1501               	bsf	indf1,2
  2345                           	
  2346  033C                     l4352:	
  2347  033C  086C               	movf	(_TMain),w
  2348  033D  3E03               	addlw	03h
  2349  033E  0086               	movwf	fsr1l
  2350  033F  0187               	clrf fsr1h	
  2351                           	
  2352  0340  3F40               	moviw	[0]fsr1
  2353  0341  00E2               	movwf	(??_MainT+0)+0
  2354  0342  3F41               	moviw	[1]fsr1
  2355  0343  00E3               	movwf	(??_MainT+0)+0+1
  2356  0344  083B               	movf	(_Segment),w
  2357  0345  3E1A               	addlw	01Ah
  2358  0346  0086               	movwf	fsr1l
  2359  0347  0187               	clrf fsr1h	
  2360                           	
  2361  0348  0862               	movf	0+(??_MainT+0)+0,w
  2362  0349  3FC0               	movwi	[0]fsr1
  2363  034A  0863               	movf	1+(??_MainT+0)+0,w
  2364  034B  3FC1               	movwi	[1]fsr1
  2365                           	line	128
  2366                           	
  2367  034C                     l4354:	
  2368                           ;Development.c: 128: printf("%d",TMain->Count);
  2369  034C  086C               	movf	(_TMain),w
  2370  034D  3E03               	addlw	03h
  2371  034E  0086               	movwf	fsr1l
  2372  034F  0187               	clrf fsr1h	
  2373                           	
  2374  0350  3F40               	moviw	[0]fsr1
  2375  0351  00D5               	movwf	(?_printf)
  2376  0352  3F41               	moviw	[1]fsr1
  2377  0353  00D6               	movwf	(?_printf+1)
  2378  0354  3071               	movlw	(STR_1|8000h)&0ffh
  2379  0355  3183  23D4  3182   	fcall	_printf
  2380                           	line	129
  2381                           	
  2382  0358                     l4356:	
  2383                           ;Development.c: 129: RA1=~RA1;
  2384  0358  3002               	movlw	1<<((97)&7)
  2385  0359  0020               	movlb 0	; select bank0
  2386  035A  068C               	xorwf	((97)/8),f
  2387  035B  2B5D               	goto	l4358
  2388                           	line	130
  2389                           	
  2390  035C                     l1106:	
  2391  035C  2B5D               	goto	l4358
  2392                           	line	131
  2393                           	
  2394  035D                     l1105:	
  2395                           	line	132
  2396                           	
  2397  035D                     l4358:	
  2398                           ;Development.c: 130: }
  2399                           ;Development.c: 131: }
  2400                           ;Development.c: 132: TMain->Count2++;
  2401  035D  086C               	movf	(_TMain),w
  2402  035E  3E07               	addlw	07h
  2403  035F  0086               	movwf	fsr1l
  2404  0360  0187               	clrf fsr1h	
  2405                           	
  2406  0361  3001               	movlw	01h
  2407  0362  0781               	addwf	indf1,f
  2408  0363  3141               	addfsr	fsr1,1
  2409  0364  1803               	skipnc
  2410  0365  0A81               	incf	indf1,f
  2411                           	line	133
  2412                           	
  2413  0366                     l4360:	
  2414                           ;Development.c: 133: if(TMain->Count2 == 200)
  2415  0366  086C               	movf	(_TMain),w
  2416  0367  3E07               	addlw	07h
  2417  0368  0086               	movwf	fsr1l
  2418  0369  0187               	clrf fsr1h	
  2419                           	
  2420  036A  3F40               	moviw	[0]fsr1
  2421  036B  3AC8               	xorlw	low(0C8h)
  2422  036C  1D03               	skipz
  2423  036D  2B70               	goto	u3165
  2424  036E  3F41               	moviw	[1]fsr1
  2425  036F  3A00               	xorlw	high(0C8h)
  2426  0370                     u3165:
  2427  0370  1D03               	skipz
  2428  0371  2B73               	goto	u3161
  2429  0372  2B74               	goto	u3160
  2430  0373                     u3161:
  2431  0373  2BD3               	goto	l1113
  2432  0374                     u3160:
  2433                           	line	135
  2434                           	
  2435  0374                     l4362:	
  2436                           ;Development.c: 134: {
  2437                           ;Development.c: 135: TMain->Count2=0;
  2438  0374  086C               	movf	(_TMain),w
  2439  0375  3E07               	addlw	07h
  2440  0376  0086               	movwf	fsr1l
  2441  0377  0187               	clrf fsr1h	
  2442                           	
  2443  0378  3000               	movlw	low(0)
  2444  0379  3FC0               	movwi	[0]fsr1
  2445  037A  3000               	movlw	high(0)
  2446  037B  3FC1               	movwi	[1]fsr1
  2447                           	line	136
  2448                           ;Development.c: 136: if(0)
  2449  037C  2BD3               	goto	l1113
  2450                           	line	138
  2451                           	
  2452  037D                     l4364:	
  2453                           ;Development.c: 137: {
  2454                           ;Development.c: 138: if(TMain->Flag == 0)
  2455  037D  086C               	movf	(_TMain),w
  2456  037E  0086               	movwf	fsr1l
  2457  037F  0187               	clrf fsr1h	
  2458                           	
  2459  0380  1981               	btfsc	indf1,3
  2460  0381  2B83               	goto	u3171
  2461  0382  2B84               	goto	u3170
  2462  0383                     u3171:
  2463  0383  2BB9               	goto	l4376
  2464  0384                     u3170:
  2465                           	line	140
  2466                           	
  2467  0384                     l4366:	
  2468                           ;Development.c: 139: {
  2469                           ;Development.c: 140: if(CDS_Get()<=0x40)
  2470  0384  3186  266C  3182   	fcall	_CDS_Get
  2471  0387  0872               	movf	(1+(?_CDS_Get)),w
  2472  0388  3A80               	xorlw	80h
  2473  0389  00FF               	movwf	btemp+1
  2474  038A  3080               	movlw	(high(041h))^80h
  2475  038B  027F               	subwf	btemp+1,w
  2476  038C  1D03               	skipz
  2477  038D  2B90               	goto	u3185
  2478  038E  3041               	movlw	low(041h)
  2479  038F  0271               	subwf	(0+(?_CDS_Get)),w
  2480  0390                     u3185:
  2481                           
  2482  0390  1803               	skipnc
  2483  0391  2B93               	goto	u3181
  2484  0392  2B94               	goto	u3180
  2485  0393                     u3181:
  2486  0393  2BD3               	goto	l1113
  2487  0394                     u3180:
  2488                           	line	142
  2489                           	
  2490  0394                     l4368:	
  2491                           ;Development.c: 141: {
  2492                           ;Development.c: 142: TMain->Flag=1;
  2493  0394  0020               	movlb 0	; select bank0
  2494  0395  086C               	movf	(_TMain),w
  2495  0396  0086               	movwf	fsr1l
  2496  0397  0187               	clrf fsr1h	
  2497                           	
  2498  0398  1581               	bsf	indf1,3
  2499                           	line	143
  2500                           	
  2501  0399                     l4370:	
  2502                           ;Development.c: 143: TMain->Count++;
  2503  0399  086C               	movf	(_TMain),w
  2504  039A  3E03               	addlw	03h
  2505  039B  0086               	movwf	fsr1l
  2506  039C  0187               	clrf fsr1h	
  2507                           	
  2508  039D  3001               	movlw	01h
  2509  039E  0781               	addwf	indf1,f
  2510  039F  3141               	addfsr	fsr1,1
  2511  03A0  1803               	skipnc
  2512  03A1  0A81               	incf	indf1,f
  2513                           	line	144
  2514                           	
  2515  03A2                     l4372:	
  2516                           ;Development.c: 144: Segment->Set=1; Segment->Data=TMain->Count; ;;
  2517  03A2  083B               	movf	(_Segment),w
  2518  03A3  3E15               	addlw	015h
  2519  03A4  0086               	movwf	fsr1l
  2520  03A5  0187               	clrf fsr1h	
  2521                           	
  2522  03A6  1501               	bsf	indf1,2
  2523                           	
  2524  03A7                     l4374:	
  2525  03A7  086C               	movf	(_TMain),w
  2526  03A8  3E03               	addlw	03h
  2527  03A9  0086               	movwf	fsr1l
  2528  03AA  0187               	clrf fsr1h	
  2529                           	
  2530  03AB  3F40               	moviw	[0]fsr1
  2531  03AC  00E2               	movwf	(??_MainT+0)+0
  2532  03AD  3F41               	moviw	[1]fsr1
  2533  03AE  00E3               	movwf	(??_MainT+0)+0+1
  2534  03AF  083B               	movf	(_Segment),w
  2535  03B0  3E1A               	addlw	01Ah
  2536  03B1  0086               	movwf	fsr1l
  2537  03B2  0187               	clrf fsr1h	
  2538                           	
  2539  03B3  0862               	movf	0+(??_MainT+0)+0,w
  2540  03B4  3FC0               	movwi	[0]fsr1
  2541  03B5  0863               	movf	1+(??_MainT+0)+0,w
  2542  03B6  3FC1               	movwi	[1]fsr1
  2543  03B7  2BD3               	goto	l1113
  2544                           	line	145
  2545                           	
  2546  03B8                     l1110:	
  2547                           	line	146
  2548                           ;Development.c: 145: }
  2549                           ;Development.c: 146: }
  2550  03B8  2BD3               	goto	l1113
  2551                           	line	147
  2552                           	
  2553  03B9                     l1109:	
  2554                           	line	149
  2555                           	
  2556  03B9                     l4376:	
  2557                           ;Development.c: 147: else
  2558                           ;Development.c: 148: {
  2559                           ;Development.c: 149: if(CDS_Get()>=0x80)
  2560  03B9  3186  266C  3182   	fcall	_CDS_Get
  2561  03BC  0872               	movf	(1+(?_CDS_Get)),w
  2562  03BD  3A80               	xorlw	80h
  2563  03BE  00FF               	movwf	btemp+1
  2564  03BF  3080               	movlw	(high(080h))^80h
  2565  03C0  027F               	subwf	btemp+1,w
  2566  03C1  1D03               	skipz
  2567  03C2  2BC5               	goto	u3195
  2568  03C3  3080               	movlw	low(080h)
  2569  03C4  0271               	subwf	(0+(?_CDS_Get)),w
  2570  03C5                     u3195:
  2571                           
  2572  03C5  1C03               	skipc
  2573  03C6  2BC8               	goto	u3191
  2574  03C7  2BC9               	goto	u3190
  2575  03C8                     u3191:
  2576  03C8  2BD3               	goto	l1113
  2577  03C9                     u3190:
  2578                           	line	150
  2579                           	
  2580  03C9                     l4378:	
  2581                           ;Development.c: 150: TMain->Flag=0;
  2582  03C9  0020               	movlb 0	; select bank0
  2583  03CA  086C               	movf	(_TMain),w
  2584  03CB  0086               	movwf	fsr1l
  2585  03CC  0187               	clrf fsr1h	
  2586                           	
  2587  03CD  1181               	bcf	indf1,3
  2588  03CE  2BD3               	goto	l1113
  2589                           	
  2590  03CF                     l1112:	
  2591  03CF  2BD3               	goto	l1113
  2592                           	line	151
  2593                           	
  2594  03D0                     l1111:	
  2595  03D0  2BD3               	goto	l1113
  2596                           	line	152
  2597                           	
  2598  03D1                     l1108:	
  2599  03D1  2BD3               	goto	l1113
  2600                           	line	153
  2601                           	
  2602  03D2                     l1107:	
  2603  03D2  2BD3               	goto	l1113
  2604                           	line	154
  2605                           	
  2606  03D3                     l1104:	
  2607                           	line	155
  2608                           	
  2609  03D3                     l1113:	
  2610  03D3  0008               	return
  2611                           	opt stack 0
  2612                           GLOBAL	__end_of_MainT
  2613  03D4                     	__end_of_MainT:
  2614 ;; =============== function _MainT ends ============
  2615                           
  2616                           	signat	_MainT,88
  2617                           	global	_printf
  2618                           psect	text355,local,class=CODE,delta=2
  2619                           global __ptext355
  2620  03D4                     __ptext355:
  2621                           
  2622 ;; *************** function _printf *****************
  2623 ;; Defined at:
  2624 ;;		line 461 in file "C:\Program Files (x86)\HI-TECH Software\PICC\9.82\lib\doprnt.c"
  2625 ;; Parameters:    Size  Location     Type
  2626 ;;  f               1    wreg     PTR const unsigned char 
  2627 ;;		 -> STR_1(3), 
  2628 ;; Auto vars:     Size  Location     Type
  2629 ;;  f               1   10[BANK0 ] PTR const unsigned char 
  2630 ;;		 -> STR_1(3), 
  2631 ;;  _val            4   12[BANK0 ] struct .
  2632 ;;  c               1   16[BANK0 ] char 
  2633 ;;  prec            1   11[BANK0 ] char 
  2634 ;;  flag            1    9[BANK0 ] unsigned char 
  2635 ;;  ap              1    8[BANK0 ] PTR void [1]
  2636 ;;		 -> ?_printf(2), 
  2637 ;; Return value:  Size  Location     Type
  2638 ;;                  2    4[BANK0 ] int 
  2639 ;; Registers used:
  2640 ;;		wreg, fsr0l, fsr0h, fsr1l, fsr1h, status,2, status,0, pclath, cstack
  2641 ;; Tracked objects:
  2642 ;;		On entry : 0/0
  2643 ;;		On exit  : 0/0
  2644 ;;		Unchanged: 0/0
  2645 ;; Data sizes:     COMMON   BANK0   BANK1   BANK2   BANK3   BANK4   BANK5   BANK6
  2646 ;;      Params:         0       2       0       0       0       0       0       0
  2647 ;;      Locals:         0       9       0       0       0       0       0       0
  2648 ;;      Temps:          0       2       0       0       0       0       0       0
  2649 ;;      Totals:         0      13       0       0       0       0       0       0
  2650 ;;Total ram usage:       13 bytes
  2651 ;; Hardware stack levels used:    1
  2652 ;; Hardware stack levels required when called:    2
  2653 ;; This function calls:
  2654 ;;		_putch
  2655 ;;		___lwdiv
  2656 ;;		___lwmod
  2657 ;; This function is called by:
  2658 ;;		_MainT
  2659 ;; This function uses a non-reentrant model
  2660 ;;
  2661                           psect	text355
  2662                           	file	"C:\Program Files (x86)\HI-TECH Software\PICC\9.82\sources\doprnt.c"
  2663                           	line	461
  2664                           	global	__size_of_printf
  2665  00D3                     	__size_of_printf	equ	__end_of_printf-_printf
  2666                           	
  2667  03D4                     _printf:	
  2668                           	opt	stack 12
  2669                           ; Regs used in _printf: [wreg-status,0+pclath+cstack]
  2670                           ;printf@f stored from wreg
  2671                           	line	537
  2672  03D4  0020               	movlb 0	; select bank0
  2673  03D5  00DB               	movwf	(printf@f)
  2674                           	
  2675  03D6                     l4278:	
  2676  03D6  3055               	movlw	(?_printf)&0ffh
  2677  03D7  00D7               	movwf	(??_printf+0)+0
  2678  03D8  0857               	movf	(??_printf+0)+0,w
  2679  03D9  00D9               	movwf	(printf@ap)
  2680                           	line	540
  2681  03DA  2C94               	goto	l4324
  2682                           	
  2683  03DB                     l2217:	
  2684                           	line	542
  2685                           	
  2686  03DB                     l4280:	
  2687  03DB  0861               	movf	(printf@c),w
  2688  03DC  3A25               	xorlw	025h&0ffh
  2689  03DD  1903               	skipnz
  2690  03DE  2BE0               	goto	u3051
  2691  03DF  2BE1               	goto	u3050
  2692  03E0                     u3051:
  2693  03E0  2BE6               	goto	l2218
  2694  03E1                     u3050:
  2695                           	line	545
  2696                           	
  2697  03E1                     l4282:	
  2698  03E1  0861               	movf	(printf@c),w
  2699  03E2  3186  268F  3183   	fcall	_putch
  2700                           	line	546
  2701  03E5  2C94               	goto	l4324
  2702                           	line	547
  2703                           	
  2704  03E6                     l2218:	
  2705                           	line	552
  2706  03E6  01DA               	clrf	(printf@flag)
  2707                           	line	638
  2708  03E7  2BED               	goto	l4286
  2709                           	line	640
  2710                           	
  2711  03E8                     l2220:	
  2712                           	line	641
  2713  03E8  2CA6               	goto	l2235
  2714                           	line	700
  2715                           	
  2716  03E9                     l2222:	
  2717  03E9  2BFF               	goto	l4288
  2718                           	line	701
  2719                           	
  2720  03EA                     l2223:	
  2721                           	line	702
  2722  03EA  2BFF               	goto	l4288
  2723                           	line	805
  2724                           	
  2725  03EB                     l2225:	
  2726                           	line	816
  2727  03EB  2C94               	goto	l4324
  2728                           	line	825
  2729                           	
  2730  03EC                     l4284:	
  2731  03EC  2BFF               	goto	l4288
  2732                           	line	638
  2733                           	
  2734  03ED                     l2219:	
  2735                           	
  2736  03ED                     l4286:	
  2737  03ED  3001               	movlw	01h
  2738  03EE  07DB               	addwf	(printf@f),f
  2739  03EF  30FF               	movlw	-01h
  2740  03F0  075B               	addwf	(printf@f),w
  2741  03F1  3185               	movlp	high __stringtab
  2742  03F2  000A               	callw
  2743  03F3  3183               	pagesel	$
  2744  03F4  00E1               	movwf	(printf@c)
  2745                           	; Switch size 1, requested type "space"
  2746                           ; Number of cases is 3, Range of values is 0 to 105
  2747                           ; switch strategies available:
  2748                           ; Name         Instructions Cycles
  2749                           ; simple_byte           10     6 (average)
  2750                           ; direct_byte          218     6 (fixed)
  2751                           ; jumptable            260     6 (fixed)
  2752                           ; rangetable           110     4 (fixed)
  2753                           ; spacedrange          217     6 (fixed)
  2754                           ; locatedrange         106     3 (fixed)
  2755                           ;	Chosen strategy is simple_byte
  2756                           
  2757                           	opt asmopt_off
  2758  03F5  3A00               	xorlw	0^0	; case 0
  2759  03F6  1903               	skipnz
  2760  03F7  2CA6               	goto	l2235
  2761  03F8  3A64               	xorlw	100^0	; case 100
  2762  03F9  1903               	skipnz
  2763  03FA  2BFF               	goto	l4288
  2764  03FB  3A0D               	xorlw	105^100	; case 105
  2765  03FC  1903               	skipnz
  2766  03FD  2BFF               	goto	l4288
  2767  03FE  2C94               	goto	l4324
  2768                           	opt asmopt_on
  2769                           
  2770                           	line	825
  2771                           	
  2772  03FF                     l2224:	
  2773                           	line	1254
  2774                           	
  2775  03FF                     l4288:	
  2776  03FF  0859               	movf	(printf@ap),w
  2777  0400  0086               	movwf	fsr1l
  2778  0401  0187               	clrf fsr1h	
  2779                           	
  2780  0402  3F40               	moviw	[0]fsr1
  2781  0403  00DD               	movwf	(printf@_val)
  2782  0404  3F41               	moviw	[1]fsr1
  2783  0405  00DE               	movwf	(printf@_val+1)
  2784                           	
  2785  0406                     l4290:	
  2786  0406  3002               	movlw	(02h)
  2787  0407  00D7               	movwf	(??_printf+0)+0
  2788  0408  0857               	movf	(??_printf+0)+0,w
  2789  0409  07D9               	addwf	(printf@ap),f
  2790                           	line	1256
  2791                           	
  2792  040A                     l4292:	
  2793  040A  1FDE               	btfss	(printf@_val+1),7
  2794  040B  2C0D               	goto	u3061
  2795  040C  2C0E               	goto	u3060
  2796  040D                     u3061:
  2797  040D  2C18               	goto	l4298
  2798  040E                     u3060:
  2799                           	line	1257
  2800                           	
  2801  040E                     l4294:	
  2802  040E  3003               	movlw	(03h)
  2803  040F  00D7               	movwf	(??_printf+0)+0
  2804  0410  0857               	movf	(??_printf+0)+0,w
  2805  0411  04DA               	iorwf	(printf@flag),f
  2806                           	line	1258
  2807                           	
  2808  0412                     l4296:	
  2809  0412  09DD               	comf	(printf@_val),f
  2810  0413  09DE               	comf	(printf@_val+1),f
  2811  0414  0ADD               	incf	(printf@_val),f
  2812  0415  1903               	skipnz
  2813  0416  0ADE               	incf	(printf@_val+1),f
  2814  0417  2C18               	goto	l4298
  2815                           	line	1259
  2816                           	
  2817  0418                     l2226:	
  2818                           	line	1300
  2819                           	
  2820  0418                     l4298:	
  2821  0418  01E1               	clrf	(printf@c)
  2822  0419  1403               	bsf	status,0
  2823  041A  0DE1               	rlf	(printf@c),f
  2824                           	
  2825  041B                     l4300:	
  2826  041B  0861               	movf	(printf@c),w
  2827  041C  3A05               	xorlw	05h&0ffh
  2828  041D  1D03               	skipz
  2829  041E  2C20               	goto	u3071
  2830  041F  2C21               	goto	u3070
  2831  0420                     u3071:
  2832  0420  2C23               	goto	l4304
  2833  0421                     u3070:
  2834  0421  2C47               	goto	l4312
  2835                           	
  2836  0422                     l4302:	
  2837  0422  2C47               	goto	l4312
  2838                           	line	1301
  2839                           	
  2840  0423                     l2227:	
  2841                           	
  2842  0423                     l4304:	
  2843  0423  305F               	movlw	low(_dpowers|8000h)
  2844  0424  0084               	movwf	fsr0l
  2845  0425  3085               	movlw	high(_dpowers|8000h)
  2846  0426  0085               	movwf	fsr0h
  2847  0427  0861               	movf	(printf@c),w
  2848  0428  0709               	addwf	wreg,w
  2849  0429  0784               	addwf	fsr0l,f
  2850  042A  1803               	skipnc
  2851  042B  0A85               	incf	fsr0h,f
  2852  042C  3F00               	moviw	[0]fsr0
  2853  042D  00D7               	movwf	(??_printf+0)+0
  2854  042E  3F01               	moviw	[1]fsr0
  2855  042F  00D8               	movwf	(??_printf+0)+0+1
  2856  0430  0858               	movf	1+(??_printf+0)+0,w
  2857  0431  025E               	subwf	(printf@_val+1),w
  2858  0432  1D03               	skipz
  2859  0433  2C36               	goto	u3085
  2860  0434  0857               	movf	0+(??_printf+0)+0,w
  2861  0435  025D               	subwf	(printf@_val),w
  2862  0436                     u3085:
  2863  0436  1803               	skipnc
  2864  0437  2C39               	goto	u3081
  2865  0438  2C3A               	goto	u3080
  2866  0439                     u3081:
  2867  0439  2C3C               	goto	l4308
  2868  043A                     u3080:
  2869  043A  2C47               	goto	l4312
  2870                           	line	1302
  2871                           	
  2872  043B                     l4306:	
  2873  043B  2C47               	goto	l4312
  2874                           	
  2875  043C                     l2229:	
  2876                           	line	1300
  2877                           	
  2878  043C                     l4308:	
  2879  043C  3001               	movlw	(01h)
  2880  043D  00D7               	movwf	(??_printf+0)+0
  2881  043E  0857               	movf	(??_printf+0)+0,w
  2882  043F  07E1               	addwf	(printf@c),f
  2883                           	
  2884  0440                     l4310:	
  2885  0440  0861               	movf	(printf@c),w
  2886  0441  3A05               	xorlw	05h&0ffh
  2887  0442  1D03               	skipz
  2888  0443  2C45               	goto	u3091
  2889  0444  2C46               	goto	u3090
  2890  0445                     u3091:
  2891  0445  2C23               	goto	l4304
  2892  0446                     u3090:
  2893  0446  2C47               	goto	l4312
  2894                           	
  2895  0447                     l2228:	
  2896                           	line	1433
  2897                           	
  2898  0447                     l4312:	
  2899  0447  085A               	movf	(printf@flag),w
  2900  0448  3903               	andlw	03h
  2901  0449  1903               	btfsc	status,2
  2902  044A  2C4C               	goto	u3101
  2903  044B  2C4D               	goto	u3100
  2904  044C                     u3101:
  2905  044C  2C52               	goto	l4316
  2906  044D                     u3100:
  2907                           	line	1434
  2908                           	
  2909  044D                     l4314:	
  2910  044D  302D               	movlw	(02Dh)
  2911  044E  3186  268F  3183   	fcall	_putch
  2912  0451  2C52               	goto	l4316
  2913                           	
  2914  0452                     l2230:	
  2915                           	line	1467
  2916                           	
  2917  0452                     l4316:	
  2918  0452  0020               	movlb 0	; select bank0
  2919  0453  0861               	movf	(printf@c),w
  2920  0454  00D7               	movwf	(??_printf+0)+0
  2921  0455  0857               	movf	(??_printf+0)+0,w
  2922  0456  00DC               	movwf	(printf@prec)
  2923                           	line	1469
  2924  0457  2C87               	goto	l4322
  2925                           	
  2926  0458                     l2232:	
  2927                           	line	1484
  2928                           	
  2929  0458                     l4318:	
  2930  0458  300A               	movlw	low(0Ah)
  2931  0459  00D1               	movwf	(?___lwmod)
  2932  045A  3000               	movlw	high(0Ah)
  2933  045B  00D2               	movwf	((?___lwmod))+1
  2934  045C  305F               	movlw	low(_dpowers|8000h)
  2935  045D  0084               	movwf	fsr0l
  2936  045E  3085               	movlw	high(_dpowers|8000h)
  2937  045F  0085               	movwf	fsr0h
  2938  0460  085C               	movf	(printf@prec),w
  2939  0461  0709               	addwf	wreg,w
  2940  0462  0784               	addwf	fsr0l,f
  2941  0463  1803               	skipnc
  2942  0464  0A85               	incf	fsr0h,f
  2943  0465  3F00               	moviw	[0]fsr0
  2944  0466  00F1               	movwf	(?___lwdiv)
  2945  0467  3F01               	moviw	[1]fsr0
  2946  0468  00F2               	movwf	(?___lwdiv+1)
  2947  0469  085E               	movf	(printf@_val+1),w
  2948  046A  01F4               	clrf	1+(?___lwdiv)+02h
  2949  046B  07F4               	addwf	1+(?___lwdiv)+02h
  2950  046C  085D               	movf	(printf@_val),w
  2951  046D  01F3               	clrf	0+(?___lwdiv)+02h
  2952  046E  07F3               	addwf	0+(?___lwdiv)+02h
  2953                           
  2954  046F  3185  25C3  3183   	fcall	___lwdiv
  2955  0472  0872               	movf	(1+(?___lwdiv)),w
  2956  0473  0020               	movlb 0	; select bank0
  2957  0474  01D4               	clrf	1+(?___lwmod)+02h
  2958  0475  07D4               	addwf	1+(?___lwmod)+02h
  2959  0476  0871               	movf	(0+(?___lwdiv)),w
  2960  0477  01D3               	clrf	0+(?___lwmod)+02h
  2961  0478  07D3               	addwf	0+(?___lwmod)+02h
  2962                           
  2963  0479  3186  2609  3183   	fcall	___lwmod
  2964  047C  0020               	movlb 0	; select bank0
  2965  047D  0851               	movf	(0+(?___lwmod)),w
  2966  047E  3E30               	addlw	030h
  2967  047F  00D7               	movwf	(??_printf+0)+0
  2968  0480  0857               	movf	(??_printf+0)+0,w
  2969  0481  00E1               	movwf	(printf@c)
  2970                           	line	1516
  2971                           	
  2972  0482                     l4320:	
  2973  0482  0861               	movf	(printf@c),w
  2974  0483  3186  268F  3183   	fcall	_putch
  2975  0486  2C87               	goto	l4322
  2976                           	line	1517
  2977                           	
  2978  0487                     l2231:	
  2979                           	line	1469
  2980                           	
  2981  0487                     l4322:	
  2982  0487  30FF               	movlw	(-1)
  2983  0488  0020               	movlb 0	; select bank0
  2984  0489  00D7               	movwf	(??_printf+0)+0
  2985  048A  0857               	movf	(??_printf+0)+0,w
  2986  048B  07DC               	addwf	(printf@prec),f
  2987  048C  085C               	movf	((printf@prec)),w
  2988  048D  3AFF               	xorlw	-1&0ffh
  2989  048E  1D03               	skipz
  2990  048F  2C91               	goto	u3111
  2991  0490  2C92               	goto	u3110
  2992  0491                     u3111:
  2993  0491  2C58               	goto	l4318
  2994  0492                     u3110:
  2995  0492  2C94               	goto	l4324
  2996                           	
  2997  0493                     l2233:	
  2998  0493  2C94               	goto	l4324
  2999                           	line	1525
  3000                           	
  3001  0494                     l2216:	
  3002                           	line	540
  3003                           	
  3004  0494                     l4324:	
  3005  0494  3001               	movlw	01h
  3006  0495  0020               	movlb 0	; select bank0
  3007  0496  07DB               	addwf	(printf@f),f
  3008  0497  30FF               	movlw	-01h
  3009  0498  075B               	addwf	(printf@f),w
  3010  0499  3185               	movlp	high __stringtab
  3011  049A  000A               	callw
  3012  049B  3184               	pagesel	$
  3013  049C  00D7               	movwf	(??_printf+0)+0
  3014  049D  0857               	movf	(??_printf+0)+0,w
  3015  049E  00E1               	movwf	(printf@c)
  3016  049F  08E1               	movf	((printf@c)),f
  3017  04A0  1D03               	skipz
  3018  04A1  2CA3               	goto	u3121
  3019  04A2  2CA4               	goto	u3120
  3020  04A3                     u3121:
  3021  04A3  2BDB               	goto	l4280
  3022  04A4                     u3120:
  3023  04A4  2CA6               	goto	l2235
  3024                           	
  3025  04A5                     l2234:	
  3026  04A5  2CA6               	goto	l2235
  3027                           	line	1527
  3028                           	
  3029  04A6                     l2221:	
  3030                           	line	1533
  3031                           ;	Return value of _printf is never used
  3032                           	
  3033  04A6                     l2235:	
  3034  04A6  0008               	return
  3035                           	opt stack 0
  3036                           GLOBAL	__end_of_printf
  3037  04A7                     	__end_of_printf:
  3038 ;; =============== function _printf ends ============
  3039                           
  3040                           	signat	_printf,602
  3041                           	global	_setOverLoadtoEnable
  3042                           psect	text356,local,class=CODE,delta=2
  3043                           global __ptext356
  3044  06B5                     __ptext356:
  3045                           
  3046 ;; *************** function _setOverLoadtoEnable *****************
  3047 ;; Defined at:
  3048 ;;		line 27 in file "G:\Program\PIC\Source_File\OverLoad_A.c"
  3049 ;; Parameters:    Size  Location     Type
  3050 ;;		None
  3051 ;; Auto vars:     Size  Location     Type
  3052 ;;		None
  3053 ;; Return value:  Size  Location     Type
  3054 ;;		None               void
  3055 ;; Registers used:
  3056 ;;		None
  3057 ;; Tracked objects:
  3058 ;;		On entry : 0/0
  3059 ;;		On exit  : 0/0
  3060 ;;		Unchanged: 0/0
  3061 ;; Data sizes:     COMMON   BANK0   BANK1   BANK2   BANK3   BANK4   BANK5   BANK6
  3062 ;;      Params:         0       0       0       0       0       0       0       0
  3063 ;;      Locals:         0       0       0       0       0       0       0       0
  3064 ;;      Temps:          0       0       0       0       0       0       0       0
  3065 ;;      Totals:         0       0       0       0       0       0       0       0
  3066 ;;Total ram usage:        0 bytes
  3067 ;; Hardware stack levels used:    1
  3068 ;; Hardware stack levels required when called:    1
  3069 ;; This function calls:
  3070 ;;		Nothing
  3071 ;; This function is called by:
  3072 ;;		_MainT
  3073 ;; This function uses a non-reentrant model
  3074 ;;
  3075                           psect	text356
  3076                           	file	"G:\Program\PIC\Source_File\OverLoad_A.c"
  3077                           	line	27
  3078                           	global	__size_of_setOverLoadtoEnable
  3079  0002                     	__size_of_setOverLoadtoEnable	equ	__end_of_setOverLoadtoEnable-_setOverLoadtoEnable
  3080                           	
  3081  06B5                     _setOverLoadtoEnable:	
  3082                           	opt	stack 13
  3083                           ; Regs used in _setOverLoadtoEnable: []
  3084                           	line	28
  3085                           	
  3086  06B5                     l3952:	
  3087                           ;OverLoad_A.c: 28: _nop();
  3088  06B5  0000               	nop
  3089                           	line	29
  3090                           	
  3091  06B6                     l2196:	
  3092  06B6  0008               	return
  3093                           	opt stack 0
  3094                           GLOBAL	__end_of_setOverLoadtoEnable
  3095  06B7                     	__end_of_setOverLoadtoEnable:
  3096 ;; =============== function _setOverLoadtoEnable ends ============
  3097                           
  3098                           	signat	_setOverLoadtoEnable,88
  3099                           	global	___lwmod
  3100                           psect	text357,local,class=CODE,delta=2
  3101                           global __ptext357
  3102  0609                     __ptext357:
  3103                           
  3104 ;; *************** function ___lwmod *****************
  3105 ;; Defined at:
  3106 ;;		line 5 in file "C:\Program Files (x86)\HI-TECH Software\PICC\9.82\sources\lwmod.c"
  3107 ;; Parameters:    Size  Location     Type
  3108 ;;  divisor         2    0[BANK0 ] unsigned int 
  3109 ;;  dividend        2    2[BANK0 ] unsigned int 
  3110 ;; Auto vars:     Size  Location     Type
  3111 ;;  counter         1   10[COMMON] unsigned char 
  3112 ;; Return value:  Size  Location     Type
  3113 ;;                  2    0[BANK0 ] unsigned int 
  3114 ;; Registers used:
  3115 ;;		wreg, status,2, status,0
  3116 ;; Tracked objects:
  3117 ;;		On entry : 0/0
  3118 ;;		On exit  : 0/0
  3119 ;;		Unchanged: 0/0
  3120 ;; Data sizes:     COMMON   BANK0   BANK1   BANK2   BANK3   BANK4   BANK5   BANK6
  3121 ;;      Params:         0       4       0       0       0       0       0       0
  3122 ;;      Locals:         1       0       0       0       0       0       0       0
  3123 ;;      Temps:          1       0       0       0       0       0       0       0
  3124 ;;      Totals:         2       4       0       0       0       0       0       0
  3125 ;;Total ram usage:        6 bytes
  3126 ;; Hardware stack levels used:    1
  3127 ;; Hardware stack levels required when called:    1
  3128 ;; This function calls:
  3129 ;;		Nothing
  3130 ;; This function is called by:
  3131 ;;		_main
  3132 ;;		_printf
  3133 ;; This function uses a non-reentrant model
  3134 ;;
  3135                           psect	text357
  3136                           	file	"C:\Program Files (x86)\HI-TECH Software\PICC\9.82\sources\lwmod.c"
  3137                           	line	5
  3138                           	global	__size_of___lwmod
  3139  003F                     	__size_of___lwmod	equ	__end_of___lwmod-___lwmod
  3140                           	
  3141  0609                     ___lwmod:	
  3142                           	opt	stack 14
  3143                           ; Regs used in ___lwmod: [wreg+status,2+status,0]
  3144                           	line	8
  3145                           	
  3146  0609                     l4256:	
  3147  0609  0020               	movlb 0	; select bank0
  3148  060A  0852               	movf	(___lwmod@divisor+1),w
  3149  060B  0451               	iorwf	(___lwmod@divisor),w
  3150  060C  1903               	skipnz
  3151  060D  2E0F               	goto	u2991
  3152  060E  2E10               	goto	u2990
  3153  060F                     u2991:
  3154  060F  2E40               	goto	l4274
  3155  0610                     u2990:
  3156                           	line	9
  3157                           	
  3158  0610                     l4258:	
  3159  0610  01FA               	clrf	(___lwmod@counter)
  3160  0611  1403               	bsf	status,0
  3161  0612  0DFA               	rlf	(___lwmod@counter),f
  3162                           	line	10
  3163  0613  2E1E               	goto	l4264
  3164                           	
  3165  0614                     l2262:	
  3166                           	line	11
  3167                           	
  3168  0614                     l4260:	
  3169  0614  3001               	movlw	01h
  3170                           	
  3171  0615                     u3005:
  3172  0615  35D1               	lslf	(___lwmod@divisor),f
  3173  0616  0DD2               	rlf	(___lwmod@divisor+1),f
  3174  0617  0B89               	decfsz	wreg,f
  3175  0618  2E15               	goto	u3005
  3176                           	line	12
  3177                           	
  3178  0619                     l4262:	
  3179  0619  3001               	movlw	(01h)
  3180  061A  00F9               	movwf	(??___lwmod+0)+0
  3181  061B  0879               	movf	(??___lwmod+0)+0,w
  3182  061C  07FA               	addwf	(___lwmod@counter),f
  3183  061D  2E1E               	goto	l4264
  3184                           	line	13
  3185                           	
  3186  061E                     l2261:	
  3187                           	line	10
  3188                           	
  3189  061E                     l4264:	
  3190  061E  1FD2               	btfss	(___lwmod@divisor+1),(15)&7
  3191  061F  2E21               	goto	u3011
  3192  0620  2E22               	goto	u3010
  3193  0621                     u3011:
  3194  0621  2E14               	goto	l4260
  3195  0622                     u3010:
  3196  0622  2E24               	goto	l4266
  3197                           	
  3198  0623                     l2263:	
  3199  0623  2E24               	goto	l4266
  3200                           	line	14
  3201                           	
  3202  0624                     l2264:	
  3203                           	line	15
  3204                           	
  3205  0624                     l4266:	
  3206  0624  0852               	movf	(___lwmod@divisor+1),w
  3207  0625  0254               	subwf	(___lwmod@dividend+1),w
  3208  0626  1D03               	skipz
  3209  0627  2E2A               	goto	u3025
  3210  0628  0851               	movf	(___lwmod@divisor),w
  3211  0629  0253               	subwf	(___lwmod@dividend),w
  3212  062A                     u3025:
  3213  062A  1C03               	skipc
  3214  062B  2E2D               	goto	u3021
  3215  062C  2E2E               	goto	u3020
  3216  062D                     u3021:
  3217  062D  2E33               	goto	l4270
  3218  062E                     u3020:
  3219                           	line	16
  3220                           	
  3221  062E                     l4268:	
  3222  062E  0851               	movf	(___lwmod@divisor),w
  3223  062F  02D3               	subwf	(___lwmod@dividend),f
  3224  0630  0852               	movf	(___lwmod@divisor+1),w
  3225  0631  3BD4               	subwfb	(___lwmod@dividend+1),f
  3226  0632  2E33               	goto	l4270
  3227                           	
  3228  0633                     l2265:	
  3229                           	line	17
  3230                           	
  3231  0633                     l4270:	
  3232  0633  3001               	movlw	01h
  3233                           	
  3234  0634                     u3035:
  3235  0634  36D2               	lsrf	(___lwmod@divisor+1),f
  3236  0635  0CD1               	rrf	(___lwmod@divisor),f
  3237  0636  0B89               	decfsz	wreg,f
  3238  0637  2E34               	goto	u3035
  3239                           	line	18
  3240                           	
  3241  0638                     l4272:	
  3242  0638  3001               	movlw	low(01h)
  3243  0639  02FA               	subwf	(___lwmod@counter),f
  3244  063A  1D03               	btfss	status,2
  3245  063B  2E3D               	goto	u3041
  3246  063C  2E3E               	goto	u3040
  3247  063D                     u3041:
  3248  063D  2E24               	goto	l4266
  3249  063E                     u3040:
  3250  063E  2E40               	goto	l4274
  3251                           	
  3252  063F                     l2266:	
  3253  063F  2E40               	goto	l4274
  3254                           	line	19
  3255                           	
  3256  0640                     l2260:	
  3257                           	line	20
  3258                           	
  3259  0640                     l4274:	
  3260  0640  0854               	movf	(___lwmod@dividend+1),w
  3261  0641  01D2               	clrf	(?___lwmod+1)
  3262  0642  07D2               	addwf	(?___lwmod+1)
  3263  0643  0853               	movf	(___lwmod@dividend),w
  3264  0644  01D1               	clrf	(?___lwmod)
  3265  0645  07D1               	addwf	(?___lwmod)
  3266                           
  3267  0646  2E47               	goto	l2267
  3268                           	
  3269  0647                     l4276:	
  3270                           	line	21
  3271                           	
  3272  0647                     l2267:	
  3273  0647  0008               	return
  3274                           	opt stack 0
  3275                           GLOBAL	__end_of___lwmod
  3276  0648                     	__end_of___lwmod:
  3277 ;; =============== function ___lwmod ends ============
  3278                           
  3279                           	signat	___lwmod,8314
  3280                           	global	___lwdiv
  3281                           psect	text358,local,class=CODE,delta=2
  3282                           global __ptext358
  3283  05C3                     __ptext358:
  3284                           
  3285 ;; *************** function ___lwdiv *****************
  3286 ;; Defined at:
  3287 ;;		line 5 in file "C:\Program Files (x86)\HI-TECH Software\PICC\9.82\sources\lwdiv.c"
  3288 ;; Parameters:    Size  Location     Type
  3289 ;;  divisor         2    1[COMMON] unsigned int 
  3290 ;;  dividend        2    3[COMMON] unsigned int 
  3291 ;; Auto vars:     Size  Location     Type
  3292 ;;  quotient        2    6[COMMON] unsigned int 
  3293 ;;  counter         1    8[COMMON] unsigned char 
  3294 ;; Return value:  Size  Location     Type
  3295 ;;                  2    1[COMMON] unsigned int 
  3296 ;; Registers used:
  3297 ;;		wreg, status,2, status,0
  3298 ;; Tracked objects:
  3299 ;;		On entry : 0/0
  3300 ;;		On exit  : 0/0
  3301 ;;		Unchanged: 0/0
  3302 ;; Data sizes:     COMMON   BANK0   BANK1   BANK2   BANK3   BANK4   BANK5   BANK6
  3303 ;;      Params:         4       0       0       0       0       0       0       0
  3304 ;;      Locals:         3       0       0       0       0       0       0       0
  3305 ;;      Temps:          1       0       0       0       0       0       0       0
  3306 ;;      Totals:         8       0       0       0       0       0       0       0
  3307 ;;Total ram usage:        8 bytes
  3308 ;; Hardware stack levels used:    1
  3309 ;; Hardware stack levels required when called:    1
  3310 ;; This function calls:
  3311 ;;		Nothing
  3312 ;; This function is called by:
  3313 ;;		_main
  3314 ;;		_printf
  3315 ;; This function uses a non-reentrant model
  3316 ;;
  3317                           psect	text358
  3318                           	file	"C:\Program Files (x86)\HI-TECH Software\PICC\9.82\sources\lwdiv.c"
  3319                           	line	5
  3320                           	global	__size_of___lwdiv
  3321  0046                     	__size_of___lwdiv	equ	__end_of___lwdiv-___lwdiv
  3322                           	
  3323  05C3                     ___lwdiv:	
  3324                           	opt	stack 14
  3325                           ; Regs used in ___lwdiv: [wreg+status,2+status,0]
  3326                           	line	9
  3327                           	
  3328  05C3                     l3904:	
  3329  05C3  01F6               	clrf	(___lwdiv@quotient)
  3330  05C4  01F7               	clrf	(___lwdiv@quotient+1)
  3331                           	line	10
  3332                           	
  3333  05C5                     l3906:	
  3334  05C5  0872               	movf	(___lwdiv@divisor+1),w
  3335  05C6  0471               	iorwf	(___lwdiv@divisor),w
  3336  05C7  1903               	skipnz
  3337  05C8  2DCA               	goto	u2521
  3338  05C9  2DCB               	goto	u2520
  3339  05CA                     u2521:
  3340  05CA  2E01               	goto	l3926
  3341  05CB                     u2520:
  3342                           	line	11
  3343                           	
  3344  05CB                     l3908:	
  3345  05CB  01F8               	clrf	(___lwdiv@counter)
  3346  05CC  1403               	bsf	status,0
  3347  05CD  0DF8               	rlf	(___lwdiv@counter),f
  3348                           	line	12
  3349  05CE  2DD9               	goto	l3914
  3350                           	
  3351  05CF                     l2252:	
  3352                           	line	13
  3353                           	
  3354  05CF                     l3910:	
  3355  05CF  3001               	movlw	01h
  3356                           	
  3357  05D0                     u2535:
  3358  05D0  35F1               	lslf	(___lwdiv@divisor),f
  3359  05D1  0DF2               	rlf	(___lwdiv@divisor+1),f
  3360  05D2  0B89               	decfsz	wreg,f
  3361  05D3  2DD0               	goto	u2535
  3362                           	line	14
  3363                           	
  3364  05D4                     l3912:	
  3365  05D4  3001               	movlw	(01h)
  3366  05D5  00F5               	movwf	(??___lwdiv+0)+0
  3367  05D6  0875               	movf	(??___lwdiv+0)+0,w
  3368  05D7  07F8               	addwf	(___lwdiv@counter),f
  3369  05D8  2DD9               	goto	l3914
  3370                           	line	15
  3371                           	
  3372  05D9                     l2251:	
  3373                           	line	12
  3374                           	
  3375  05D9                     l3914:	
  3376  05D9  1FF2               	btfss	(___lwdiv@divisor+1),(15)&7
  3377  05DA  2DDC               	goto	u2541
  3378  05DB  2DDD               	goto	u2540
  3379  05DC                     u2541:
  3380  05DC  2DCF               	goto	l3910
  3381  05DD                     u2540:
  3382  05DD  2DDF               	goto	l3916
  3383                           	
  3384  05DE                     l2253:	
  3385  05DE  2DDF               	goto	l3916
  3386                           	line	16
  3387                           	
  3388  05DF                     l2254:	
  3389                           	line	17
  3390                           	
  3391  05DF                     l3916:	
  3392  05DF  3001               	movlw	01h
  3393                           	
  3394  05E0                     u2555:
  3395  05E0  35F6               	lslf	(___lwdiv@quotient),f
  3396  05E1  0DF7               	rlf	(___lwdiv@quotient+1),f
  3397  05E2  0B89               	decfsz	wreg,f
  3398  05E3  2DE0               	goto	u2555
  3399                           	line	18
  3400  05E4  0872               	movf	(___lwdiv@divisor+1),w
  3401  05E5  0274               	subwf	(___lwdiv@dividend+1),w
  3402  05E6  1D03               	skipz
  3403  05E7  2DEA               	goto	u2565
  3404  05E8  0871               	movf	(___lwdiv@divisor),w
  3405  05E9  0273               	subwf	(___lwdiv@dividend),w
  3406  05EA                     u2565:
  3407  05EA  1C03               	skipc
  3408  05EB  2DED               	goto	u2561
  3409  05EC  2DEE               	goto	u2560
  3410  05ED                     u2561:
  3411  05ED  2DF4               	goto	l3922
  3412  05EE                     u2560:
  3413                           	line	19
  3414                           	
  3415  05EE                     l3918:	
  3416  05EE  0871               	movf	(___lwdiv@divisor),w
  3417  05EF  02F3               	subwf	(___lwdiv@dividend),f
  3418  05F0  0872               	movf	(___lwdiv@divisor+1),w
  3419  05F1  3BF4               	subwfb	(___lwdiv@dividend+1),f
  3420                           	line	20
  3421                           	
  3422  05F2                     l3920:	
  3423  05F2  1476               	bsf	(___lwdiv@quotient)+(0/8),(0)&7
  3424  05F3  2DF4               	goto	l3922
  3425                           	line	21
  3426                           	
  3427  05F4                     l2255:	
  3428                           	line	22
  3429                           	
  3430  05F4                     l3922:	
  3431  05F4  3001               	movlw	01h
  3432                           	
  3433  05F5                     u2575:
  3434  05F5  36F2               	lsrf	(___lwdiv@divisor+1),f
  3435  05F6  0CF1               	rrf	(___lwdiv@divisor),f
  3436  05F7  0B89               	decfsz	wreg,f
  3437  05F8  2DF5               	goto	u2575
  3438                           	line	23
  3439                           	
  3440  05F9                     l3924:	
  3441  05F9  3001               	movlw	low(01h)
  3442  05FA  02F8               	subwf	(___lwdiv@counter),f
  3443  05FB  1D03               	btfss	status,2
  3444  05FC  2DFE               	goto	u2581
  3445  05FD  2DFF               	goto	u2580
  3446  05FE                     u2581:
  3447  05FE  2DDF               	goto	l3916
  3448  05FF                     u2580:
  3449  05FF  2E01               	goto	l3926
  3450                           	
  3451  0600                     l2256:	
  3452  0600  2E01               	goto	l3926
  3453                           	line	24
  3454                           	
  3455  0601                     l2250:	
  3456                           	line	25
  3457                           	
  3458  0601                     l3926:	
  3459  0601  0877               	movf	(___lwdiv@quotient+1),w
  3460  0602  01F2               	clrf	(?___lwdiv+1)
  3461  0603  07F2               	addwf	(?___lwdiv+1)
  3462  0604  0876               	movf	(___lwdiv@quotient),w
  3463  0605  01F1               	clrf	(?___lwdiv)
  3464  0606  07F1               	addwf	(?___lwdiv)
  3465                           
  3466  0607  2E08               	goto	l2257
  3467                           	
  3468  0608                     l3928:	
  3469                           	line	26
  3470                           	
  3471  0608                     l2257:	
  3472  0608  0008               	return
  3473                           	opt stack 0
  3474                           GLOBAL	__end_of___lwdiv
  3475  0609                     	__end_of___lwdiv:
  3476 ;; =============== function ___lwdiv ends ============
  3477                           
  3478                           	signat	___lwdiv,8314
  3479                           	global	_putch
  3480                           psect	text359,local,class=CODE,delta=2
  3481                           global __ptext359
  3482  068F                     __ptext359:
  3483                           
  3484 ;; *************** function _putch *****************
  3485 ;; Defined at:
  3486 ;;		line 172 in file "G:\Program\PIC\7.Development\Release\Development.c"
  3487 ;; Parameters:    Size  Location     Type
  3488 ;;  byte            1    wreg     unsigned char 
  3489 ;; Auto vars:     Size  Location     Type
  3490 ;;  byte            1    1[COMMON] unsigned char 
  3491 ;; Return value:  Size  Location     Type
  3492 ;;		None               void
  3493 ;; Registers used:
  3494 ;;		wreg
  3495 ;; Tracked objects:
  3496 ;;		On entry : 0/0
  3497 ;;		On exit  : 0/0
  3498 ;;		Unchanged: 0/0
  3499 ;; Data sizes:     COMMON   BANK0   BANK1   BANK2   BANK3   BANK4   BANK5   BANK6
  3500 ;;      Params:         0       0       0       0       0       0       0       0
  3501 ;;      Locals:         1       0       0       0       0       0       0       0
  3502 ;;      Temps:          0       0       0       0       0       0       0       0
  3503 ;;      Totals:         1       0       0       0       0       0       0       0
  3504 ;;Total ram usage:        1 bytes
  3505 ;; Hardware stack levels used:    1
  3506 ;; Hardware stack levels required when called:    1
  3507 ;; This function calls:
  3508 ;;		Nothing
  3509 ;; This function is called by:
  3510 ;;		_printf
  3511 ;;		_getche
  3512 ;; This function uses a non-reentrant model
  3513 ;;
  3514                           psect	text359
  3515                           	file	"G:\Program\PIC\7.Development\Release\Development.c"
  3516                           	line	172
  3517                           	global	__size_of_putch
  3518  000C                     	__size_of_putch	equ	__end_of_putch-_putch
  3519                           	
  3520  068F                     _putch:	
  3521                           	opt	stack 12
  3522                           ; Regs used in _putch: [wreg]
  3523                           ;putch@byte stored from wreg
  3524  068F  00F1               	movwf	(putch@byte)
  3525                           	line	174
  3526                           	
  3527  0690                     l3896:	
  3528                           ;Development.c: 174: while(!TXIF)
  3529  0690  2E91               	goto	l1121
  3530                           	
  3531  0691                     l1122:	
  3532                           	line	175
  3533                           ;Development.c: 175: continue;
  3534                           	
  3535  0691                     l1121:	
  3536                           	line	174
  3537  0691  0020               	movlb 0	; select bank0
  3538  0692  1E11               	btfss	(140/8),(140)&7
  3539  0693  2E95               	goto	u2511
  3540  0694  2E96               	goto	u2510
  3541  0695                     u2511:
  3542  0695  2E91               	goto	l1121
  3543  0696                     u2510:
  3544  0696  2E97               	goto	l3898
  3545                           	
  3546  0697                     l1123:	
  3547                           	line	176
  3548                           	
  3549  0697                     l3898:	
  3550                           ;Development.c: 176: TXREG = byte;
  3551  0697  0871               	movf	(putch@byte),w
  3552  0698  0023               	movlb 3	; select bank3
  3553  0699  009A               	movwf	(410)^0180h	;volatile
  3554                           	line	177
  3555                           	
  3556  069A                     l1124:	
  3557  069A  0008               	return
  3558                           	opt stack 0
  3559                           GLOBAL	__end_of_putch
  3560  069B                     	__end_of_putch:
  3561 ;; =============== function _putch ends ============
  3562                           
  3563                           	signat	_putch,4216
  3564                           	global	_CDS_Get
  3565                           psect	text360,local,class=CODE,delta=2
  3566                           global __ptext360
  3567  066C                     __ptext360:
  3568                           
  3569 ;; *************** function _CDS_Get *****************
  3570 ;; Defined at:
  3571 ;;		line 194 in file "G:\Program\PIC\7.Development\Release\Development.c"
  3572 ;; Parameters:    Size  Location     Type
  3573 ;;		None
  3574 ;; Auto vars:     Size  Location     Type
  3575 ;;  i               2    7[COMMON] int 
  3576 ;; Return value:  Size  Location     Type
  3577 ;;                  2    1[COMMON] int 
  3578 ;; Registers used:
  3579 ;;		wreg, status,2, status,0, btemp+1
  3580 ;; Tracked objects:
  3581 ;;		On entry : 0/0
  3582 ;;		On exit  : 0/0
  3583 ;;		Unchanged: 0/0
  3584 ;; Data sizes:     COMMON   BANK0   BANK1   BANK2   BANK3   BANK4   BANK5   BANK6
  3585 ;;      Params:         2       0       0       0       0       0       0       0
  3586 ;;      Locals:         2       0       0       0       0       0       0       0
  3587 ;;      Temps:          4       0       0       0       0       0       0       0
  3588 ;;      Totals:         8       0       0       0       0       0       0       0
  3589 ;;Total ram usage:        8 bytes
  3590 ;; Hardware stack levels used:    1
  3591 ;; Hardware stack levels required when called:    1
  3592 ;; This function calls:
  3593 ;;		Nothing
  3594 ;; This function is called by:
  3595 ;;		_MainT
  3596 ;; This function uses a non-reentrant model
  3597 ;;
  3598                           psect	text360
  3599                           	file	"G:\Program\PIC\7.Development\Release\Development.c"
  3600                           	line	194
  3601                           	global	__size_of_CDS_Get
  3602  0023                     	__size_of_CDS_Get	equ	__end_of_CDS_Get-_CDS_Get
  3603                           	
  3604  066C                     _CDS_Get:	
  3605                           	opt	stack 13
  3606                           ; Regs used in _CDS_Get: [wreg+status,2+status,0+btemp+1]
  3607                           	line	195
  3608                           	
  3609  066C                     l3868:	
  3610                           ;Development.c: 195: int i=0;
  3611  066C  01F7               	clrf	(CDS_Get@i)
  3612  066D  01F8               	clrf	(CDS_Get@i+1)
  3613                           	line	196
  3614                           	
  3615  066E                     l3870:	
  3616                           ;Development.c: 196: ADCON0=0x01;
  3617  066E  3001               	movlw	(01h)
  3618  066F  0021               	movlb 1	; select bank1
  3619  0670  009D               	movwf	(157)^080h	;volatile
  3620                           	line	198
  3621                           	
  3622  0671                     l3872:	
  3623                           ;Development.c: 198: GO_nDONE=1;
  3624  0671  149D               	bsf	(1257/8)^080h,(1257)&7
  3625                           	line	199
  3626                           ;Development.c: 199: while(GO_nDONE);
  3627  0672  2E73               	goto	l1136
  3628                           	
  3629  0673                     l1137:	
  3630                           	
  3631  0673                     l1136:	
  3632  0673  189D               	btfsc	(1257/8)^080h,(1257)&7
  3633  0674  2E76               	goto	u2471
  3634  0675  2E77               	goto	u2470
  3635  0676                     u2471:
  3636  0676  2E73               	goto	l1136
  3637  0677                     u2470:
  3638  0677  2E78               	goto	l3874
  3639                           	
  3640  0678                     l1138:	
  3641                           	line	200
  3642                           	
  3643  0678                     l3874:	
  3644                           ;Development.c: 200: i=((ADRESH*256)+ADRESL);
  3645  0678  081B               	movf	(155)^080h,w	;volatile
  3646  0679  00F3               	movwf	(??_CDS_Get+0)+0
  3647  067A  01F4               	clrf	(??_CDS_Get+0)+0+1
  3648  067B  081C               	movf	(156)^080h,w	;volatile
  3649  067C  00F5               	movwf	(??_CDS_Get+2)+0
  3650  067D  01F6               	clrf	(??_CDS_Get+2)+0+1
  3651  067E  0875               	movf	(??_CDS_Get+2)+0,w
  3652  067F  00F6               	movwf	(??_CDS_Get+2)+1
  3653  0680  01F5               	clrf	(??_CDS_Get+2)+0
  3654  0681  0873               	movf	0+(??_CDS_Get+0)+0,w
  3655  0682  0775               	addwf	0+(??_CDS_Get+2)+0,w
  3656  0683  00F7               	movwf	(CDS_Get@i)
  3657  0684  0874               	movf	1+(??_CDS_Get+0)+0,w
  3658  0685  3D76               	addwfc	1+(??_CDS_Get+2)+0,w
  3659  0686  00F8               	movwf	1+(CDS_Get@i)
  3660                           	line	203
  3661                           	
  3662  0687                     l3876:	
  3663                           ;Development.c: 203: return i;
  3664  0687  0878               	movf	(CDS_Get@i+1),w
  3665  0688  01F2               	clrf	(?_CDS_Get+1)
  3666  0689  07F2               	addwf	(?_CDS_Get+1)
  3667  068A  0877               	movf	(CDS_Get@i),w
  3668  068B  01F1               	clrf	(?_CDS_Get)
  3669  068C  07F1               	addwf	(?_CDS_Get)
  3670                           
  3671  068D  2E8E               	goto	l1139
  3672                           	
  3673  068E                     l3878:	
  3674                           	line	204
  3675                           	
  3676  068E                     l1139:	
  3677  068E  0008               	return
  3678                           	opt stack 0
  3679                           GLOBAL	__end_of_CDS_Get
  3680  068F                     	__end_of_CDS_Get:
  3681 ;; =============== function _CDS_Get ends ============
  3682                           
  3683                           	signat	_CDS_Get,90
  3684                           	global	_MainT_Initial
  3685                           psect	text361,local,class=CODE,delta=2
  3686                           global __ptext361
  3687  069B                     __ptext361:
  3688                           
  3689 ;; *************** function _MainT_Initial *****************
  3690 ;; Defined at:
  3691 ;;		line 95 in file "G:\Program\PIC\7.Development\Release\Development.c"
  3692 ;; Parameters:    Size  Location     Type
  3693 ;;		None
  3694 ;; Auto vars:     Size  Location     Type
  3695 ;;		None
  3696 ;; Return value:  Size  Location     Type
  3697 ;;		None               void
  3698 ;; Registers used:
  3699 ;;		wreg
  3700 ;; Tracked objects:
  3701 ;;		On entry : 0/0
  3702 ;;		On exit  : 0/0
  3703 ;;		Unchanged: 0/0
  3704 ;; Data sizes:     COMMON   BANK0   BANK1   BANK2   BANK3   BANK4   BANK5   BANK6
  3705 ;;      Params:         0       0       0       0       0       0       0       0
  3706 ;;      Locals:         0       0       0       0       0       0       0       0
  3707 ;;      Temps:          1       0       0       0       0       0       0       0
  3708 ;;      Totals:         1       0       0       0       0       0       0       0
  3709 ;;Total ram usage:        1 bytes
  3710 ;; Hardware stack levels used:    1
  3711 ;; Hardware stack levels required when called:    1
  3712 ;; This function calls:
  3713 ;;		Nothing
  3714 ;; This function is called by:
  3715 ;;		_main
  3716 ;; This function uses a non-reentrant model
  3717 ;;
  3718                           psect	text361
  3719                           	file	"G:\Program\PIC\7.Development\Release\Development.c"
  3720                           	line	95
  3721                           	global	__size_of_MainT_Initial
  3722  000A                     	__size_of_MainT_Initial	equ	__end_of_MainT_Initial-_MainT_Initial
  3723                           	
  3724  069B                     _MainT_Initial:	
  3725                           	opt	stack 14
  3726                           ; Regs used in _MainT_Initial: [wreg]
  3727                           	line	96
  3728                           	
  3729  069B                     l3866:	
  3730                           ;Development.c: 96: TMain = &VarTMain;
  3731  069B  3042               	movlw	(_VarTMain)&0ffh
  3732  069C  00F1               	movwf	(??_MainT_Initial+0)+0
  3733  069D  0871               	movf	(??_MainT_Initial+0)+0,w
  3734  069E  0020               	movlb 0	; select bank0
  3735  069F  00EC               	movwf	(_TMain)
  3736                           	line	97
  3737                           ;Development.c: 97: Product=&VarProduct;
  3738  06A0  3067               	movlw	(_VarProduct)&0ffh
  3739  06A1  00F1               	movwf	(??_MainT_Initial+0)+0
  3740  06A2  0871               	movf	(??_MainT_Initial+0)+0,w
  3741  06A3  00EB               	movwf	(_Product)
  3742                           	line	98
  3743                           	
  3744  06A4                     l1099:	
  3745  06A4  0008               	return
  3746                           	opt stack 0
  3747                           GLOBAL	__end_of_MainT_Initial
  3748  06A5                     	__end_of_MainT_Initial:
  3749 ;; =============== function _MainT_Initial ends ============
  3750                           
  3751                           	signat	_MainT_Initial,88
  3752                           	global	_ISR
  3753                           psect	intentry,class=CODE,delta=2
  3754                           global __pintentry
  3755  0004                     __pintentry:
  3756                           
  3757 ;; *************** function _ISR *****************
  3758 ;; Defined at:
  3759 ;;		line 158 in file "G:\Program\PIC\7.Development\Release\Development.c"
  3760 ;; Parameters:    Size  Location     Type
  3761 ;;		None
  3762 ;; Auto vars:     Size  Location     Type
  3763 ;;		None
  3764 ;; Return value:  Size  Location     Type
  3765 ;;		None               void
  3766 ;; Registers used:
  3767 ;;		wreg, fsr1l, fsr1h, status,2, status,0
  3768 ;; Tracked objects:
  3769 ;;		On entry : 0/0
  3770 ;;		On exit  : 0/0
  3771 ;;		Unchanged: 0/0
  3772 ;; Data sizes:     COMMON   BANK0   BANK1   BANK2   BANK3   BANK4   BANK5   BANK6
  3773 ;;      Params:         0       0       0       0       0       0       0       0
  3774 ;;      Locals:         0       0       0       0       0       0       0       0
  3775 ;;      Temps:          1       0       0       0       0       0       0       0
  3776 ;;      Totals:         1       0       0       0       0       0       0       0
  3777 ;;Total ram usage:        1 bytes
  3778 ;; Hardware stack levels used:    1
  3779 ;; This function calls:
  3780 ;;		Nothing
  3781 ;; This function is called by:
  3782 ;;		Interrupt level 1
  3783 ;; This function uses a non-reentrant model
  3784 ;;
  3785                           psect	intentry
  3786                           	file	"G:\Program\PIC\7.Development\Release\Development.c"
  3787                           	line	158
  3788                           	global	__size_of_ISR
  3789  003F                     	__size_of_ISR	equ	__end_of_ISR-_ISR
  3790                           	
  3791  0004                     _ISR:	
  3792                           	opt	stack 12
  3793                           ; Regs used in _ISR: [wreg+fsr1l-status,0]
  3794                           psect	intentry
  3795  0004  3180               	pagesel	$
  3796  0005  0020               	movlb 0	; select bank0
  3797  0006  087F               	movf	btemp+1,w
  3798  0007  00F0               	movwf	(??_ISR+0)
  3799                           	line	159
  3800                           	
  3801  0008                     i1l3880:	
  3802                           ;Development.c: 159: _nop();
  3803  0008  0000               	nop
  3804                           	line	161
  3805                           ;Development.c: 161: _nop();
  3806  0009  0000               	nop
  3807                           	line	163
  3808                           ;Development.c: 163: if(TMR1IE && TMR1IF) { TMR1H=((65536-1500)/256); TMR1L=((65536-1500
                                 )%256); TMR1IF=0; Timer1->Count++; if(Timer1->Count == 10) { Timer1->Count=0; TMain->T1_
                                 Timerout=1; } };
  3809  000A  0021               	movlb 1	; select bank1
  3810  000B  1C11               	btfss	(1160/8)^080h,(1160)&7
  3811  000C  280E               	goto	u248_21
  3812  000D  280F               	goto	u248_20
  3813  000E                     u248_21:
  3814  000E  283E               	goto	i1l3894
  3815  000F                     u248_20:
  3816                           	
  3817  000F                     i1l3882:	
  3818  000F  0020               	movlb 0	; select bank0
  3819  0010  1C11               	btfss	(136/8),(136)&7
  3820  0011  2813               	goto	u249_21
  3821  0012  2814               	goto	u249_20
  3822  0013                     u249_21:
  3823  0013  283E               	goto	i1l3894
  3824  0014                     u249_20:
  3825                           	
  3826  0014                     i1l3884:	
  3827  0014  30FA               	movlw	(0FAh)
  3828  0015  0097               	movwf	(23)	;volatile
  3829  0016  3024               	movlw	(024h)
  3830  0017  0096               	movwf	(22)	;volatile
  3831                           	
  3832  0018                     i1l3886:	
  3833  0018  1011               	bcf	(136/8),(136)&7
  3834                           	
  3835  0019                     i1l3888:	
  3836  0019  083C               	movf	(_Timer1),w
  3837  001A  3E01               	addlw	01h
  3838  001B  0086               	movwf	fsr1l
  3839  001C  0187               	clrf fsr1h	
  3840                           	
  3841  001D  3001               	movlw	01h
  3842  001E  0781               	addwf	indf1,f
  3843  001F  3141               	addfsr	fsr1,1
  3844  0020  1803               	skipnc
  3845  0021  0A81               	incf	indf1,f
  3846                           	
  3847  0022                     i1l3890:	
  3848  0022  083C               	movf	(_Timer1),w
  3849  0023  3E01               	addlw	01h
  3850  0024  0086               	movwf	fsr1l
  3851  0025  0187               	clrf fsr1h	
  3852                           	
  3853  0026  3F40               	moviw	[0]fsr1
  3854  0027  3A0A               	xorlw	low(0Ah)
  3855  0028  1D03               	skipz
  3856  0029  282C               	goto	u250_25
  3857  002A  3F41               	moviw	[1]fsr1
  3858  002B  3A00               	xorlw	high(0Ah)
  3859  002C                     u250_25:
  3860  002C  1D03               	skipz
  3861  002D  282F               	goto	u250_21
  3862  002E  2830               	goto	u250_20
  3863  002F                     u250_21:
  3864  002F  283E               	goto	i1l3894
  3865  0030                     u250_20:
  3866                           	
  3867  0030                     i1l3892:	
  3868  0030  083C               	movf	(_Timer1),w
  3869  0031  3E01               	addlw	01h
  3870  0032  0086               	movwf	fsr1l
  3871  0033  0187               	clrf fsr1h	
  3872                           	
  3873  0034  3000               	movlw	low(0)
  3874  0035  3FC0               	movwi	[0]fsr1
  3875  0036  3000               	movlw	high(0)
  3876  0037  3FC1               	movwi	[1]fsr1
  3877  0038  086C               	movf	(_TMain),w
  3878  0039  0086               	movwf	fsr1l
  3879  003A  0187               	clrf fsr1h	
  3880                           	
  3881  003B  1501               	bsf	indf1,2
  3882  003C  283E               	goto	i1l3894
  3883                           	
  3884  003D                     i1l1117:	
  3885  003D  283E               	goto	i1l3894
  3886                           	
  3887  003E                     i1l1116:	
  3888                           	line	167
  3889                           	
  3890  003E                     i1l3894:	
  3891                           ;Development.c: 167: _nop();
  3892  003E  0000               	nop
  3893                           	line	169
  3894                           	
  3895  003F                     i1l1118:	
  3896  003F  0870               	movf	(??_ISR+0),w
  3897  0040  0020               	movlb 0	; select bank0
  3898  0041  00FF               	movwf	btemp+1
  3899  0042  0009               	retfie
  3900                           	opt stack 0
  3901                           GLOBAL	__end_of_ISR
  3902  0043                     	__end_of_ISR:
  3903 ;; =============== function _ISR ends ============
  3904                           
  3905                           	signat	_ISR,88
  3906                           psect	intentry
  3907                           	global	btemp
  3908  007E                     	btemp set 07Eh
  3909                           
  3910                           	DABS	1,126,2	;btemp
  3911                           	global	wtemp0
  3912  007E                     	wtemp0 set btemp


HI-TECH Software PICC Macro Assembler V9.82 build 9453 
Symbol Table                                                                                   Wed Jul 02 00:00:30 2014

             ??_MainT_Initial 0071                           _GIE 005F                           _CRC 0037  
                         _RA1 0061                           _RA4 0064                           _RA5 0065  
                         _RA6 0066                           _RA7 0067                           _ISR 0004  
                         _RX9 0CEE                           _TX9 0CF6                           wreg 0009  
             __end_of_CDS_Get 068F                          ?_ISR 0070                          l1110 03B8  
                        l1102 030E                          l1111 03D0                          l1103 030D  
                        l1104 03D3                          l1112 03CF                          l1121 0691  
                        l1105 035D                          l1113 03D3                          l1122 0691  
                        l1106 035C                          l1123 0697                          l1107 03D2  
                        l1124 069A                          l1108 03D1                          l1109 03B9  
                        l1070 020D                          l1071 020C                          l1063 00A3  
                        l1136 0673                          l1080 024C                          l1072 016E  
                        l1064 00AE                          l1137 0673                          l1065 02D7  
                        l1081 0245                          l1073 0162                          l1138 0678  
                        l1066 02D6                          l1090 02A0                          l1082 024B  
                        l1074 014A                          l1139 068E                          l1067 02D5  
                        l1083 02D4                          l1091 029F                          l1075 016D  
                        l2220 03E8                          l1084 02D3                          l1092 02CC  
                        l1076 020B                          l1068 024D                          l2221 04A6  
                        l1093 02D2                          l1085 027B                          l1077 0220  
                        l1069 0132                          l2230 0452                          l2222 03E9  
                        l1094 02D8                          l1086 02A2                          l1078 024D  
                        l2231 0487                          l2223 03EA                          l1095 02D9  
                        l1087 0287                          l1079 0233                          l2216 0494  
                        l2232 0458                          l2224 03FF                          l1096 02D9  
                        l1088 02A1                          l2233 0493                          l2225 03EB  
                        l2217 03DB                          l1089 0293                          l2250 0601  
                        l2234 04A5                          l2226 0418                          l2218 03E6  
                        l1099 06A4                          l2251 05D9                          l2227 0423  
                        l2219 03ED                          l2235 04A6                          l2252 05CF  
                        l2260 0640                          l2228 0447                          l2253 05DE  
                        l2261 061E                          l2229 043C                          l2254 05DF  
                        l2262 0614                          l2255 05F4                          l2263 0623  
                        l2256 0600                          l2264 0624                          l2257 0608  
                        l2265 0633                          l2266 063F                          l2267 0647  
                        l2196 06B6                          l4300 041B                          l4310 0440  
                        l4302 0422                          l4320 0482                          l4312 0447  
                        l4304 0423                          l4400 0058                          l4322 0487  
                        l4314 044D                          l4306 043B                          l4330 02EC  
                        l4410 005F                          l4402 0059                          l4260 0614  
                        l4316 0452                          l4308 043C                          l4324 0494  
                        l4340 0309                          l4332 02FA                          l4500 00F4  
                        l4420 006C                          l4412 0064                          l4404 005C  
                        l4270 0633                          l4262 0619                          l4318 0458  
                        l4350 0337                          l4334 0306                          l4342 030E  
                        l4326 02DB                          l4510 014A                          l4502 010A  
                        l4430 0074                          l4422 006D                          l4414 0066  
                        l4406 005D                          l4272 0638                          l4264 061E  
                        l4256 0609                          l4280 03DB                          l4360 0366  
                        l4352 033C                          l4344 0318                          l4336 0307  
                        l4328 02E3                          l4520 0217                          l4512 0162  
                        l4504 011B                          l4440 0080                          l4432 0075  
                        l4424 006E                          l4416 0068                          l4408 005E  
                        l4266 0624                          l4258 0610                          l4274 0640  
                        l4290 0406                          l4282 03E1                          l4370 0399  
                        l4362 0374                          l4354 034C                          l4346 0326  
                        l4338 0308                          l4530 0245                          l4522 0220  
                        l4514 016E                          l4506 0133                          l4450 0087  
                        l4442 0081                          l4434 007A                          l4426 0070  
                        l4418 006A                          l4276 0647                          l4268 062E  
                        l4292 040A                          l4284 03EC                          l4372 03A2  
                        l4364 037D                          l4356 0358                          l4348 032E  
                        l4540 0270                          l4532 0255                          l4524 022A  
                        l4516 01FE                          l4508 0144                          l4460 008D  
                        l4452 0088                          l4444 0082                          l4436 007C  
                        l4428 0073                          l4380 0046                          l3910 05CF  
                        l4294 040E                          l4286 03ED                          l4278 03D6  
                        l4374 03A7                          l4366 0384                          l4358 035D  
                        l4550 0291                          l4542 0279                          l4534 025D  
                        l4526 0233                          l4518 020D                          l4470 0092  
                        l4462 008E                          l4454 008A                          l4446 0084  
                        l4438 007D                          l4390 0050                          l4382 0049  
                        l3920 05F2                          l3912 05D4                          l3904 05C3  
                        l4296 0412                          l4288 03FF                          l4368 0394  
                        l4376 03B9                          l4560 02C3                          l4552 0293  
                        l4544 027B                          l4536 0267                          l4528 023D  
                        l4480 00AA                          l4472 0093                          l4464 008F  
                        l4456 008B                          l4448 0086                          l4392 0052  
                        l4384 004C                          l3922 05F4                          l3914 05D9  
                        l3906 05C5                          l4298 0418                          l4378 03C9  
                        l4562 02CC                          l4554 029D                          l4546 0285  
                        l4538 026C                          l4490 00C5                          l4482 00AE  
                        l4474 0098                          l4466 0090                          l4458 008C  
                        l4394 0053                          l4386 004E                          l3924 05F9  
                        l3916 05DF                          l3908 05CB                          l4548 0287  
                        l4556 02A2                          l4492 00CC                          l4484 00B6  
                        l4476 009D                          l4468 0091                          l4396 0054  
                        l4388 004F                          l3870 066E                          l3918 05EE  
                        l3926 0601                          l4558 02B5                          l4494 00D5  
                        l4486 00BA                          l4478 00A3                          l4398 0057  
                        l3872 0671                          l3928 0608                          l3952 06B5  
                        l4496 00DD                          l4488 00BD                          l3866 069B  
                        l3874 0678                          l4498 00E7                          l3876 0687  
                        l3868 066C                          l3878 068E                          l3896 0690  
                        l3898 0697                          STR_1 0571                          u3010 0622  
                        u3011 0621                          u3020 062E                          u3100 044D  
                        u3021 062D                          u3005 0615                          u3101 044C  
                        _LATA 010C                          u3110 0492                          _LATB 010D  
                        u3111 0491                          _LATC 010E                          u3040 063E  
                        u3120 04A4                          u3200 00AA                          u3041 063D  
                        u3025 062A                          u3121 04A3                          u3201 00A9  
                        u3050 03E1                          u3130 02E3                          u3210 00B6  
                        u3035 0634                          u3051 03E0                          u3131 02E2  
                        u3211 00B5                          u3060 040E                          u3140 02FA  
                        u3300 022A                          u3220 00C5                          u3061 040D  
                        u3141 02F9                          u3301 0229                          u3221 00C4  
                        u2510 0696                          u3070 0421                          u3150 0326  
                        u3310 023D                          u3230 00D5                          u2511 0695  
                        u3071 0420                          u3151 0325                          u3311 023C  
                        u3231 00D4                          u2520 05CB                          u3080 043A  
                        u3160 0374                          u3320 0255                          u3240 00DD  
                        u2521 05CA                          u3081 0439                          u3161 0373  
                        u3145 02F6                          u3321 0254                          u3241 00DC  
                        u3090 0446                          u3170 0384                          u3330 0267  
                        u3091 0445                          u3171 0383                          u3155 0322  
                        u3331 0266                          u2540 05DD                          u3180 0394  
                        u3340 0279                          u2541 05DC                          u3085 0436  
                        u3181 0393                          u3165 0370                          u3341 0278  
                        u2470 0677                          u3190 03C9                          u3350 0285  
                        u3270 0144                          u2471 0676                          u2535 05D0  
                        u3191 03C8                          u3351 0284                          u3271 0143  
                        u3255 00FD                          u2560 05EE                          u3360 0291  
                        u3280 016C                          u2561 05ED                          u3185 0390  
                        u3361 0290                          u3281 016B                          u3265 0124  
                        u3370 029D                          u3290 0217                          u2555 05E0  
                        u3195 03C5                          u3371 029C                          u3291 0216  
                        u2580 05FF                          u3380 02C3                          u2581 05FE  
                        u2565 05EA                          u3381 02C2                          u2575 05F5  
                        _PEIE 005E                          _RCIE 048D                          _RCIF 008D  
                        u2990 0610                          u2991 060F                          _RSSI 0038  
                        _TXIE 048C                          _TXIF 008C                          _Uart 003E  
                        _main 0046                          fsr0h 0005                          fsr1h 0007  
                        fsr0l 0004                          indf0 0000                          indf1 0001  
                        fsr1l 0006                          btemp 007E                          start 0043  
                       ??_ISR 0070                         ?_main 0070                         _BRG16 0CFB  
                       _T1CON 0018               __end_of___lwdiv 0609               __end_of___lwmod 0648  
                       _RCREG 0199                         _RCSTA 019D                         _TMR1H 0017  
                       _TMR1L 0016                         _SPBRG 019B                         _PORTA 000C  
                       _PORTB 000D                         _PORTC 000E                         _TRISA 008C  
                       _TRISB 008D                         _TRISC 008E                         _TXREG 019A  
                       _TXSTA 019E                         _TMain 006C                         _MainT 02DB  
                       _putch 068F                __pbitbssCOMMON 03D8                         status 0003  
                       wtemp0 007E                  __end_of_main 02DB                        ??_main 0064  
                   ??_CDS_Get 0073                    _Receive_GO 03DA                    _Receive_OK 03DB  
                      ?_MainT 0070                        _ADCON0 009D                        _ADCON1 009E  
                      _ADRESH 009C                        _ADRESL 009B                        _ANSELA 018C  
                      ?_putch 0070                        _ANSELB 018D                        _ANSELC 018E  
                      i1l1116 003E                        i1l1117 003D                        i1l1118 003F  
                      i1l3880 0008                        i1l3890 0022                        i1l3882 000F  
                      i1l3892 0030                        i1l3884 0014                        i1l3886 0018  
                      i1l3894 003E                        i1l3888 0019                        u250_20 0030  
                      u250_21 002F                        u250_25 002C                        _FVRCON 0117  
                      u248_20 000F                        u248_21 000E                        u249_20 0014  
                      u249_21 0013                        _OSCCON 0099                    _VarSegment 00D2  
                      _TMR1IE 0488                        _TMR1IF 0088                        _SPBRGH 019C  
                      _TRISC6 0476                        _TRISC7 0477                    _VarProduct 0067  
                      _Timer1 003C                     ??___lwdiv 0075                     ??___lwmod 0079  
                      _r_data 0040                        _s_data 0041                        _printf 03D4  
                      clrloop 06A6                 __end_of_MainT 03D4                __pcstackCOMMON 0070  
                __pidataBANK0 06B1                  __pidataBANK1 0574                 __end_of_putch 069B  
__size_of_setOverLoadtoEnable 0002                       ??_MainT 0062                       ??_putch 0071  
                  __pbssBANK0 0020                    __pmaintext 0046                     _CC2500_OK 03D9  
                  __pintentry 0004         __end_of_MainT_Initial 06A5                       ?_printf 0055  
                     _CDS_Get 066C                       _RF_Data 0020                    __stringtab 0500  
    _CC2500_registers_address 0501                       _Segment 003B                       _VarUart 00A0  
                     _Product 006B                       ___lwdiv 05C3                       ___lwmod 0609  
             __size_of_printf 00D3                  __size_of_ISR 003F                       _dpowers 055F  
        end_of_initialization 0669                       init_ram 06AB                       initloop 06AC  
               _CC2500_Enable 03D8                       printf@c 0061                       printf@f 005B  
         _setOverLoadtoEnable 06B5          ?_setOverLoadtoEnable 0070                __end_of_printf 04A7  
         start_initialization 0648                   __end_of_ISR 0043                     _VarTimer1 004E  
                   _Rx_Length 0039                     _Tx_Length 003D         ??_setOverLoadtoEnable 0071  
                    CDS_Get@i 0077                   __pdataBANK0 0067                   __pdataBANK1 00A0  
                    ??_printf 0057                      ?_CDS_Get 0071                 __pcstackBANK0 0051  
                   __pnvBANK0 006B              ___lwdiv@dividend 0073                     __ptext360 066C  
                   __ptext361 069B                     __ptext354 02DB                     __ptext355 03D4  
                   __ptext356 06B5                     __ptext357 0609                     __ptext358 05C3  
                   __ptext359 068F                      ?___lwdiv 0071                      ?___lwmod 0051  
                   __pstrings 0500                __size_of_MainT 00F9                     _r_address 003F  
            ___lwdiv@quotient 0076                __size_of_putch 000C             _CC2500_rfSettings 0530  
      __size_of_MainT_Initial 000A                      _GO_nDONE 04E9                      _RF_Count 0035  
                  printf@_val 005D                    printf@flag 005A              __size_of_CDS_Get 0023  
                  printf@prec 005C                      _VarTMain 0042                      _RxStatus 03DC  
                    _TxStatus 03DF              __size_of___lwdiv 0046              __size_of___lwmod 003F  
               _MainT_Initial 069B               ___lwdiv@divisor 0071               ___lwdiv@counter 0078  
               __size_of_main 0295                      clear_ram 06A5          _CC2500_patable_vaule 0569  
              ?_MainT_Initial 0070                     putch@byte 0071                 _Transceive_GO 03DD  
               _Transceive_OK 03DE                      intlevel1 0000              ___lwmod@dividend 0053  
 __end_of_setOverLoadtoEnable 06B7                      printf@ap 0059                    _SPI0Buffer 003A  
             ___lwmod@divisor 0051               ___lwmod@counter 007A  
